
 Start         Length     Name                   Class
 0001:00000000 00070E9CH .text                   CODE
 0002:00000000 00007614H .data                   DATA
 0002:00007614 0002A0ADH .bss                    BSS


Detailed map of segments

 0001:00000000 000040B0 C=CODE     S=.text    G=(none)   M=System   ACBP=A9
 0001:000040B0 00000164 C=CODE     S=.text    G=(none)   M=SysInit  ACBP=A9
 0001:00004214 00000038 C=CODE     S=.text    G=(none)   M=def0     ACBP=A9
 0001:0000424C 00000038 C=CODE     S=.text    G=(none)   M=def1     ACBP=A9
 0001:00004284 00000438 C=CODE     S=.text    G=(none)   M=param0   ACBP=A9
 0001:000046BC 000000EC C=CODE     S=.text    G=(none)   M=inl32    ACBP=A9
 0001:000047A8 00000288 C=CODE     S=.text    G=(none)   M=Windows  ACBP=A9
 0001:00004A30 00000038 C=CODE     S=.text    G=(none)   M=Messages ACBP=A9
 0001:00004A68 000001EC C=CODE     S=.text    G=(none)   M=os       ACBP=A9
 0001:00004C54 000003C8 C=CODE     S=.text    G=(none)   M=nconv0   ACBP=A9
 0001:0000501C 00002FF6 C=CODE     S=.text    G=(none)   M=SysUtils ACBP=A9
 0001:00008014 000004F0 C=CODE     S=.text    G=(none)   M=larit032 ACBP=A9
 0001:00008504 000001E4 C=CODE     S=.text    G=(none)   M=bg       ACBP=A9
 0001:000086E8 0000069C C=CODE     S=.text    G=(none)   M=datim    ACBP=A9
 0001:00008D84 00000AE0 C=CODE     S=.text    G=(none)   M=dtconv   ACBP=A9
 0001:00009864 00000038 C=CODE     S=.text    G=(none)   M=objref   ACBP=A9
 0001:0000989C 000011BC C=CODE     S=.text    G=(none)   M=dir0     ACBP=A9
 0001:0000AA58 00000038 C=CODE     S=.text    G=(none)   M=perfdef  ACBP=A9
 0001:0000AA90 00000038 C=CODE     S=.text    G=(none)   M=perfmon0 ACBP=A9
 0001:0000AAC8 000009E8 C=CODE     S=.text    G=(none)   M=des      ACBP=A9
 0001:0000B4B0 00000038 C=CODE     S=.text    G=(none)   M=filedef  ACBP=A9
 0001:0000B4E8 00000038 C=CODE     S=.text    G=(none)   M=crc0     ACBP=A9
 0001:0000B520 00000038 C=CODE     S=.text    G=(none)   M=md5      ACBP=A9
 0001:0000B558 00000038 C=CODE     S=.text    G=(none)   M=kbd0def  ACBP=A9
 0001:0000B590 00000038 C=CODE     S=.text    G=(none)   M=rng      ACBP=A9
 0001:0000B5C8 00000138 C=CODE     S=.text    G=(none)   M=lbit32   ACBP=A9
 0001:0000B700 00000038 C=CODE     S=.text    G=(none)   M=gost     ACBP=A9
 0001:0000B738 00000038 C=CODE     S=.text    G=(none)   M=gost_2   ACBP=A9
 0001:0000B770 00000038 C=CODE     S=.text    G=(none)   M=gosthash ACBP=A9
 0001:0000B7A8 000001A4 C=CODE     S=.text    G=(none)   M=sifra    ACBP=A9
 0001:0000B94C 00000078 C=CODE     S=.text    G=(none)   M=global   ACBP=A9
 0001:0000B9C4 00001338 C=CODE     S=.text    G=(none)   M=file1    ACBP=A9
 0001:0000CCFC 000001D8 C=CODE     S=.text    G=(none)   M=logr     ACBP=A9
 0001:0000CED4 00000A74 C=CODE     S=.text    G=(none)   M=err1     ACBP=A9
 0001:0000D948 00000BB0 C=CODE     S=.text    G=(none)   M=nconv1   ACBP=A9
 0001:0000E4F8 00000078 C=CODE     S=.text    G=(none)   M=uint64   ACBP=A9
 0001:0000E570 00000108 C=CODE     S=.text    G=(none)   M=timer0   ACBP=A9
 0001:0000E678 000000B4 C=CODE     S=.text    G=(none)   M=util     ACBP=A9
 0001:0000E72C 000000A0 C=CODE     S=.text    G=(none)   M=mem1     ACBP=A9
 0001:0000E7CC 00000038 C=CODE     S=.text    G=(none)   M=WinSvc   ACBP=A9
 0001:0000E804 00000480 C=CODE     S=.text    G=(none)   M=service  ACBP=A9
 0001:0000EC84 00000778 C=CODE     S=.text    G=(none)   M=multi    ACBP=A9
 0001:0000F3FC 000002C0 C=CODE     S=.text    G=(none)   M=sync     ACBP=A9
 0001:0000F6BC 00000138 C=CODE     S=.text    G=(none)   M=mem0     ACBP=A9
 0001:0000F7F4 00000038 C=CODE     S=.text    G=(none)   M=m2       ACBP=A9
 0001:0000F82C 00000408 C=CODE     S=.text    G=(none)   M=memvm    ACBP=A9
 0001:0000FC34 00001D1C C=CODE     S=.text    G=(none)   M=memmgr   ACBP=A9
 0001:00011950 00000158 C=CODE     S=.text    G=(none)   M=mbl32    ACBP=A9
 0001:00011AA8 000009AC C=CODE     S=.text    G=(none)   M=strg     ACBP=A9
 0001:00012454 000000B0 C=CODE     S=.text    G=(none)   M=err0     ACBP=A9
 0001:00012504 00000054 C=CODE     S=.text    G=(none)   M=con0     ACBP=A9
 0001:00012558 000000F0 C=CODE     S=.text    G=(none)   M=work0    ACBP=A9
 0001:00012648 0000024C C=CODE     S=.text    G=(none)   M=code0    ACBP=A9
 0001:00012894 000003C4 C=CODE     S=.text    G=(none)   M=kbd0     ACBP=A9
 0001:00012C58 00000770 C=CODE     S=.text    G=(none)   M=kbd1     ACBP=A9
 0001:000133C8 00000038 C=CODE     S=.text    G=(none)   M=f_def    ACBP=A9
 0001:00013400 00000038 C=CODE     S=.text    G=(none)   M=dirdef   ACBP=A9
 0001:00013438 000002E0 C=CODE     S=.text    G=(none)   M=dir4     ACBP=A9
 0001:00013718 00000558 C=CODE     S=.text    G=(none)   M=cc_warn  ACBP=A9
 0001:00013C70 00000404 C=CODE     S=.text    G=(none)   M=mem2     ACBP=A9
 0001:00014074 00000088 C=CODE     S=.text    G=(none)   M=cc_desc  ACBP=A9
 0001:000140FC 0000005C C=CODE     S=.text    G=(none)   M=Math     ACBP=A9
 0001:00014158 00000324 C=CODE     S=.text    G=(none)   M=cc_mem   ACBP=A9
 0001:0001447C 000001BC C=CODE     S=.text    G=(none)   M=cc_list  ACBP=A9
 0001:00014638 00000038 C=CODE     S=.text    G=(none)   M=cc_var   ACBP=A9
 0001:00014670 00000038 C=CODE     S=.text    G=(none)   M=kbdkey   ACBP=A9
 0001:000146A8 0000076C C=CODE     S=.text    G=(none)   M=cc_uniop ACBP=A9
 0001:00014E14 000003F4 C=CODE     S=.text    G=(none)   M=filetxt  ACBP=A9
 0001:00015208 000002E0 C=CODE     S=.text    G=(none)   M=cc_lst0  ACBP=A9
 0001:000154E8 00000088 C=CODE     S=.text    G=(none)   M=cc_dump  ACBP=A9
 0001:00015570 00000038 C=CODE     S=.text    G=(none)   M=edstr    ACBP=A9
 0001:000155A8 000000A0 C=CODE     S=.text    G=(none)   M=cc_msg   ACBP=A9
 0001:00015648 00000AC0 C=CODE     S=.text    G=(none)   M=cc_text  ACBP=A9
 0001:00016108 000012B8 C=CODE     S=.text    G=(none)   M=cc_lex0  ACBP=A9
 0001:000173C0 00001898 C=CODE     S=.text    G=(none)   M=cc_sym   ACBP=A9
 0001:00018C58 0000017C C=CODE     S=.text    G=(none)   M=cc_rtl   ACBP=A9
 0001:00018DD4 0000051C C=CODE     S=.text    G=(none)   M=cc_env   ACBP=A9
 0001:000192F0 00000ED3 C=CODE     S=.text    G=(none)   M=cc_util  ACBP=A9
 0001:0001A1C4 00000138 C=CODE     S=.text    G=(none)   M=strgs    ACBP=A9
 0001:0001A2FC 00003720 C=CODE     S=.text    G=(none)   M=cc_type  ACBP=A9
 0001:0001DA1C 00000364 C=CODE     S=.text    G=(none)   M=conv     ACBP=A9
 0001:0001DD80 000001C4 C=CODE     S=.text    G=(none)   M=cc_attr  ACBP=A9
 0001:0001DF44 00000518 C=CODE     S=.text    G=(none)   M=cx_array ACBP=A9
 0001:0001E45C 00000EC4 C=CODE     S=.text    G=(none)   M=cx_set   ACBP=A9
 0001:0001F320 00001B04 C=CODE     S=.text    G=(none)   M=cx_imm   ACBP=A9
 0001:00020E24 0000264B C=CODE     S=.text    G=(none)   M=cx_def   ACBP=A9
 0001:00023470 0000190C C=CODE     S=.text    G=(none)   M=cx_parse ACBP=A9
 0001:00024D7C 00000EEC C=CODE     S=.text    G=(none)   M=cx_util  ACBP=A9
 0001:00025C68 000003BC C=CODE     S=.text    G=(none)   M=cx_resolve ACBP=A9
 0001:00026024 00000A08 C=CODE     S=.text    G=(none)   M=cx_rta   ACBP=A9
 0001:00026A2C 000017A8 C=CODE     S=.text    G=(none)   M=cx_type  ACBP=A9
 0001:000281D4 00003DF4 C=CODE     S=.text    G=(none)   M=cx_opt   ACBP=A9
 0001:0002BFC8 00001184 C=CODE     S=.text    G=(none)   M=cx_final ACBP=A9
 0001:0002D14C 00000A14 C=CODE     S=.text    G=(none)   M=cb_choice ACBP=A9
 0001:0002DB60 00000A64 C=CODE     S=.text    G=(none)   M=cb_def   ACBP=A9
 0001:0002E5C4 00001670 C=CODE     S=.text    G=(none)   M=cb_parse ACBP=A9
 0001:0002FC34 00000A2C C=CODE     S=.text    G=(none)   M=cb_opt   ACBP=A9
 0001:00030660 0000109C C=CODE     S=.text    G=(none)   M=cb_form  ACBP=A9
 0001:000316FC 000002F4 C=CODE     S=.text    G=(none)   M=cb_block ACBP=A9
 0001:000319F0 0000019C C=CODE     S=.text    G=(none)   M=cd_idl   ACBP=A9
 0001:00031B8C 00000350 C=CODE     S=.text    G=(none)   M=cd_util  ACBP=A9
 0001:00031EDC 000004E8 C=CODE     S=.text    G=(none)   M=cd_attr  ACBP=A9
 0001:000323C4 00001028 C=CODE     S=.text    G=(none)   M=cd_type  ACBP=A9
 0001:000333EC 00000038 C=CODE     S=.text    G=(none)   M=ca_def   ACBP=A9
 0001:00033424 00002C10 C=CODE     S=.text    G=(none)   M=cd_unit  ACBP=A9
 0001:00036034 000001C0 C=CODE     S=.text    G=(none)   M=cx_phase ACBP=A9
 0001:000361F4 000040E0 C=CODE     S=.text    G=(none)   M=cx_form  ACBP=A9
 0001:0003A2D4 00001254 C=CODE     S=.text    G=(none)   M=cx_expr  ACBP=A9
 0001:0003B528 00003EC4 C=CODE     S=.text    G=(none)   M=cd_eval  ACBP=A9
 0001:0003F3EC 000007A4 C=CODE     S=.text    G=(none)   M=cd_decl  ACBP=A9
 0001:0003FB90 00001FAC C=CODE     S=.text    G=(none)   M=cc_pre   ACBP=A9
 0001:00041B3C 00000718 C=CODE     S=.text    G=(none)   M=cc_lex1  ACBP=A9
 0001:00042254 00003E38 C=CODE     S=.text    G=(none)   M=cc_err   ACBP=A9
 0001:0004608C 00000788 C=CODE     S=.text    G=(none)   M=cc_def   ACBP=A9
 0001:00046814 00000184 C=CODE     S=.text    G=(none)   M=cb_make  ACBP=A9
 0001:00046998 00000734 C=CODE     S=.text    G=(none)   M=cx_make  ACBP=A9
 0001:000470CC 000000B0 C=CODE     S=.text    G=(none)   M=ca_util  ACBP=A9
 0001:0004717C 00000DCC C=CODE     S=.text    G=(none)   M=ca_type  ACBP=A9
 0001:00047F48 000006B0 C=CODE     S=.text    G=(none)   M=ca_var   ACBP=A9
 0001:000485F8 000000E4 C=CODE     S=.text    G=(none)   M=ca_temp  ACBP=A9
 0001:000486DC 00000E6C C=CODE     S=.text    G=(none)   M=ca_block ACBP=A9
 0001:00049548 00000C08 C=CODE     S=.text    G=(none)   M=ca_analyze ACBP=A9
 0001:0004A150 000001CC C=CODE     S=.text    G=(none)   M=c32_def  ACBP=A9
 0001:0004A31C 00000104 C=CODE     S=.text    G=(none)   M=c32_uniop ACBP=A9
 0001:0004A420 00000198 C=CODE     S=.text    G=(none)   M=cc_debug ACBP=A9
 0001:0004A5B8 00000054 C=CODE     S=.text    G=(none)   M=ci_instr ACBP=A9
 0001:0004A60C 00000038 C=CODE     S=.text    G=(none)   M=ci_struct ACBP=A9
 0001:0004A644 000000BC C=CODE     S=.text    G=(none)   M=ci_def   ACBP=A9
 0001:0004A700 000010C0 C=CODE     S=.text    G=(none)   M=ci_reg   ACBP=A9
 0001:0004B7C0 000034D4 C=CODE     S=.text    G=(none)   M=ci_code  ACBP=A9
 0001:0004EC94 0000029C C=CODE     S=.text    G=(none)   M=ci_util  ACBP=A9
 0001:0004EF30 000011A8 C=CODE     S=.text    G=(none)   M=c32_cpu  ACBP=A9
 0001:000500D8 00000110 C=CODE     S=.text    G=(none)   M=cl_def   ACBP=A9
 0001:000501E8 000003B4 C=CODE     S=.text    G=(none)   M=cl_util  ACBP=A9
 0001:0005059C 000004DC C=CODE     S=.text    G=(none)   M=cl_map   ACBP=A9
 0001:00050A78 00003520 C=CODE     S=.text    G=(none)   M=cl_codeview_type ACBP=A9
 0001:00053F98 00003BDC C=CODE     S=.text    G=(none)   M=cl_codeview ACBP=A9
 0001:00057B74 00001478 C=CODE     S=.text    G=(none)   M=ci_link  ACBP=A9
 0001:00058FEC 000001E4 C=CODE     S=.text    G=(none)   M=c32_Linux ACBP=A9
 0001:000591D0 00000C58 C=CODE     S=.text    G=(none)   M=cl_dwarf ACBP=A9
 0001:00059E28 00001D78 C=CODE     S=.text    G=(none)   M=cl_elf   ACBP=A9
 0001:0005BBA0 000003C4 C=CODE     S=.text    G=(none)   M=c32_Win32 ACBP=A9
 0001:0005BF64 000016B4 C=CODE     S=.text    G=(none)   M=cl_pe    ACBP=A9
 0001:0005D618 000001A0 C=CODE     S=.text    G=(none)   M=g_util   ACBP=A9
 0001:0005D7B8 00000090 C=CODE     S=.text    G=(none)   M=c32_util ACBP=A9
 0001:0005D848 000002F8 C=CODE     S=.text    G=(none)   M=ci_context ACBP=A9
 0001:0005DB40 000004B8 C=CODE     S=.text    G=(none)   M=ci_rtl   ACBP=A9
 0001:0005DFF8 00002D04 C=CODE     S=.text    G=(none)   M=ci_fragment ACBP=A9
 0001:00060CFC 000093FC C=CODE     S=.text    G=(none)   M=ci_expr  ACBP=A9
 0001:0006A0F8 00002A98 C=CODE     S=.text    G=(none)   M=ci_block ACBP=A9
 0001:0006CB90 00000568 C=CODE     S=.text    G=(none)   M=ci_gen   ACBP=A9
 0001:0006D0F8 00000F48 C=CODE     S=.text    G=(none)   M=ci_asm   ACBP=A9
 0001:0006E040 000003DC C=CODE     S=.text    G=(none)   M=cl_link  ACBP=A9
 0001:0006E41C 000007A4 C=CODE     S=.text    G=(none)   M=cc_comp  ACBP=A9
 0001:0006EBC0 00000388 C=CODE     S=.text    G=(none)   M=f_comp   ACBP=A9
 0001:0006EF48 00001698 C=CODE     S=.text    G=(none)   M=f_param  ACBP=A9
 0001:000705E0 00000378 C=CODE     S=.text    G=(none)   M=f_main   ACBP=A9
 0001:00070958 00000542 C=CODE     S=.text    G=(none)   M=fcc32    ACBP=A9
 0002:00000000 00000096 C=DATA     S=.data    G=DGROUP   M=System   ACBP=A9
 0002:00000098 00000010 C=DATA     S=.data    G=DGROUP   M=SysInit  ACBP=A9
 0002:000000A8 00000065 C=DATA     S=.data    G=DGROUP   M=def1     ACBP=A9
 0002:00000110 00000100 C=DATA     S=.data    G=DGROUP   M=os       ACBP=A9
 0002:00000210 00000024 C=DATA     S=.data    G=DGROUP   M=nconv0   ACBP=A9
 0002:00000234 000001BC C=DATA     S=.data    G=DGROUP   M=SysUtils ACBP=A9
 0002:000003F0 00000800 C=DATA     S=.data    G=DGROUP   M=des      ACBP=A9
 0002:00000BF0 00000010 C=DATA     S=.data    G=DGROUP   M=filedef  ACBP=A9
 0002:00000C00 00000005 C=DATA     S=.data    G=DGROUP   M=file1    ACBP=A9
 0002:00000C08 00000204 C=DATA     S=.data    G=DGROUP   M=err1     ACBP=A9
 0002:00000E0C 00000046 C=DATA     S=.data    G=DGROUP   M=nconv1   ACBP=A9
 0002:00000E54 00000008 C=DATA     S=.data    G=DGROUP   M=uint64   ACBP=A9
 0002:00000E5C 00000010 C=DATA     S=.data    G=DGROUP   M=service  ACBP=A9
 0002:00000E6C 00000024 C=DATA     S=.data    G=DGROUP   M=multi    ACBP=A9
 0002:00000E90 00000014 C=DATA     S=.data    G=DGROUP   M=mem0     ACBP=A9
 0002:00000EA4 00000020 C=DATA     S=.data    G=DGROUP   M=memmgr   ACBP=A9
 0002:00000EC4 00000014 C=DATA     S=.data    G=DGROUP   M=err0     ACBP=A9
 0002:00000ED8 00000100 C=DATA     S=.data    G=DGROUP   M=work0    ACBP=A9
 0002:00000FD8 0000000E C=DATA     S=.data    G=DGROUP   M=kbd0     ACBP=A9
 0002:00000FE8 00000029 C=DATA     S=.data    G=DGROUP   M=kbd1     ACBP=A9
 0002:00001014 00000001 C=DATA     S=.data    G=DGROUP   M=f_def    ACBP=A9
 0002:00001018 00000055 C=DATA     S=.data    G=DGROUP   M=cc_warn  ACBP=A9
 0002:00001070 000002FB C=DATA     S=.data    G=DGROUP   M=cc_desc  ACBP=A9
 0002:0000136C 00000084 C=DATA     S=.data    G=DGROUP   M=cc_uniop ACBP=A9
 0002:000013F0 0000006C C=DATA     S=.data    G=DGROUP   M=cc_sym   ACBP=A9
 0002:0000145C 00000555 C=DATA     S=.data    G=DGROUP   M=cc_rtl   ACBP=A9
 0002:000019B4 0000075D C=DATA     S=.data    G=DGROUP   M=cc_env   ACBP=A9
 0002:00002114 00000005 C=DATA     S=.data    G=DGROUP   M=cc_type  ACBP=A9
 0002:0000211C 00000671 C=DATA     S=.data    G=DGROUP   M=cc_attr  ACBP=A9
 0002:00002790 00000224 C=DATA     S=.data    G=DGROUP   M=cx_def   ACBP=A9
 0002:000029B4 00000064 C=DATA     S=.data    G=DGROUP   M=cb_def   ACBP=A9
 0002:00002A18 0000000F C=DATA     S=.data    G=DGROUP   M=cd_unit  ACBP=A9
 0002:00002A28 00000024 C=DATA     S=.data    G=DGROUP   M=cd_eval  ACBP=A9
 0002:00002A4C 0000006C C=DATA     S=.data    G=DGROUP   M=cd_decl  ACBP=A9
 0002:00002AB8 0000045C C=DATA     S=.data    G=DGROUP   M=cc_pre   ACBP=A9
 0002:00002F14 00000008 C=DATA     S=.data    G=DGROUP   M=cc_err   ACBP=A9
 0002:00002F1C 00001164 C=DATA     S=.data    G=DGROUP   M=cc_def   ACBP=A9
 0002:00004080 00000110 C=DATA     S=.data    G=DGROUP   M=c32_def  ACBP=A9
 0002:00004190 00000024 C=DATA     S=.data    G=DGROUP   M=c32_uniop ACBP=A9
 0002:000041B4 0000006C C=DATA     S=.data    G=DGROUP   M=cc_debug ACBP=A9
 0002:00004220 000025FA C=DATA     S=.data    G=DGROUP   M=ci_instr ACBP=A9
 0002:0000681C 00000078 C=DATA     S=.data    G=DGROUP   M=ci_struct ACBP=A9
 0002:00006894 00000580 C=DATA     S=.data    G=DGROUP   M=ci_def   ACBP=A9
 0002:00006E14 00000009 C=DATA     S=.data    G=DGROUP   M=ci_code  ACBP=A9
 0002:00006E20 00000100 C=DATA     S=.data    G=DGROUP   M=cl_util  ACBP=A9
 0002:00006F20 00000059 C=DATA     S=.data    G=DGROUP   M=cl_codeview_type ACBP=A9
 0002:00006F7C 0000017C C=DATA     S=.data    G=DGROUP   M=cl_codeview ACBP=A9
 0002:000070F8 00000100 C=DATA     S=.data    G=DGROUP   M=ci_link  ACBP=A9
 0002:000071F8 00000104 C=DATA     S=.data    G=DGROUP   M=cl_pe    ACBP=A9
 0002:000072FC 0000000C C=DATA     S=.data    G=DGROUP   M=ci_expr  ACBP=A9
 0002:00008000 000004A8 C=BSS      S=.bss     G=DGROUP   M=System   ACBP=A9
 0002:000084A8 00000018 C=BSS      S=.bss     G=DGROUP   M=SysInit  ACBP=A9
 0002:000084C0 00000004 C=BSS      S=.bss     G=DGROUP   M=def0     ACBP=A9
 0002:000084C4 00000004 C=BSS      S=.bss     G=DGROUP   M=def1     ACBP=A9
 0002:000084C8 00000004 C=BSS      S=.bss     G=DGROUP   M=param0   ACBP=A9
 0002:000084CC 00000004 C=BSS      S=.bss     G=DGROUP   M=inl32    ACBP=A9
 0002:000084D0 00000004 C=BSS      S=.bss     G=DGROUP   M=Windows  ACBP=A9
 0002:000084D4 00000004 C=BSS      S=.bss     G=DGROUP   M=Messages ACBP=A9
 0002:000084D8 00000008 C=BSS      S=.bss     G=DGROUP   M=os       ACBP=A9
 0002:000084E0 00000004 C=BSS      S=.bss     G=DGROUP   M=nconv0   ACBP=A9
 0002:000084E4 00000110 C=BSS      S=.bss     G=DGROUP   M=SysUtils ACBP=A9
 0002:000085F4 00000008 C=BSS      S=.bss     G=DGROUP   M=larit032 ACBP=A9
 0002:000085FC 00000518 C=BSS      S=.bss     G=DGROUP   M=bg       ACBP=A9
 0002:00008B14 00000004 C=BSS      S=.bss     G=DGROUP   M=datim    ACBP=A9
 0002:00008B18 00000004 C=BSS      S=.bss     G=DGROUP   M=dtconv   ACBP=A9
 0002:00008B1C 00000004 C=BSS      S=.bss     G=DGROUP   M=objref   ACBP=A9
 0002:00008B20 00000004 C=BSS      S=.bss     G=DGROUP   M=dir0     ACBP=A9
 0002:00008B24 00000004 C=BSS      S=.bss     G=DGROUP   M=perfdef  ACBP=A9
 0002:00008B28 00000004 C=BSS      S=.bss     G=DGROUP   M=perfmon0 ACBP=A9
 0002:00008B2C 00000004 C=BSS      S=.bss     G=DGROUP   M=des      ACBP=A9
 0002:00008B30 00000054 C=BSS      S=.bss     G=DGROUP   M=filedef  ACBP=A9
 0002:00008B84 00000004 C=BSS      S=.bss     G=DGROUP   M=crc0     ACBP=A9
 0002:00008B88 00000004 C=BSS      S=.bss     G=DGROUP   M=md5      ACBP=A9
 0002:00008B8C 00000004 C=BSS      S=.bss     G=DGROUP   M=kbd0def  ACBP=A9
 0002:00008B90 00000004 C=BSS      S=.bss     G=DGROUP   M=rng      ACBP=A9
 0002:00008B94 00000004 C=BSS      S=.bss     G=DGROUP   M=lbit32   ACBP=A9
 0002:00008B98 00000004 C=BSS      S=.bss     G=DGROUP   M=gost     ACBP=A9
 0002:00008B9C 00000004 C=BSS      S=.bss     G=DGROUP   M=gost_2   ACBP=A9
 0002:00008BA0 00000004 C=BSS      S=.bss     G=DGROUP   M=gosthash ACBP=A9
 0002:00008BA4 00000004 C=BSS      S=.bss     G=DGROUP   M=sifra    ACBP=A9
 0002:00008BA8 00000008 C=BSS      S=.bss     G=DGROUP   M=global   ACBP=A9
 0002:00008BB0 00000004 C=BSS      S=.bss     G=DGROUP   M=file1    ACBP=A9
 0002:00008BB4 00000054 C=BSS      S=.bss     G=DGROUP   M=logr     ACBP=A9
 0002:00008C08 00000008 C=BSS      S=.bss     G=DGROUP   M=err1     ACBP=A9
 0002:00008C10 00000004 C=BSS      S=.bss     G=DGROUP   M=nconv1   ACBP=A9
 0002:00008C14 00000004 C=BSS      S=.bss     G=DGROUP   M=uint64   ACBP=A9
 0002:00008C18 00000008 C=BSS      S=.bss     G=DGROUP   M=timer0   ACBP=A9
 0002:00008C20 00000004 C=BSS      S=.bss     G=DGROUP   M=util     ACBP=A9
 0002:00008C24 00000004 C=BSS      S=.bss     G=DGROUP   M=mem1     ACBP=A9
 0002:00008C28 00000004 C=BSS      S=.bss     G=DGROUP   M=WinSvc   ACBP=A9
 0002:00008C2C 00000014 C=BSS      S=.bss     G=DGROUP   M=service  ACBP=A9
 0002:00008C40 00000154 C=BSS      S=.bss     G=DGROUP   M=multi    ACBP=A9
 0002:00008D94 0000002C C=BSS      S=.bss     G=DGROUP   M=sync     ACBP=A9
 0002:00008DC0 00000004 C=BSS      S=.bss     G=DGROUP   M=mem0     ACBP=A9
 0002:00008DC4 000001D0 C=BSS      S=.bss     G=DGROUP   M=m2       ACBP=A9
 0002:00008F94 00008050 C=BSS      S=.bss     G=DGROUP   M=memvm    ACBP=A9
 0002:00010FE4 0000604E C=BSS      S=.bss     G=DGROUP   M=memmgr   ACBP=A9
 0002:00017034 00000004 C=BSS      S=.bss     G=DGROUP   M=mbl32    ACBP=A9
 0002:00017038 00000004 C=BSS      S=.bss     G=DGROUP   M=strg     ACBP=A9
 0002:0001703C 00000004 C=BSS      S=.bss     G=DGROUP   M=err0     ACBP=A9
 0002:00017040 0000000C C=BSS      S=.bss     G=DGROUP   M=con0     ACBP=A9
 0002:0001704C 00000054 C=BSS      S=.bss     G=DGROUP   M=work0    ACBP=A9
 0002:000170A0 00000020 C=BSS      S=.bss     G=DGROUP   M=code0    ACBP=A9
 0002:000170C0 00000004 C=BSS      S=.bss     G=DGROUP   M=kbd0     ACBP=A9
 0002:000170C4 00000404 C=BSS      S=.bss     G=DGROUP   M=kbd1     ACBP=A9
 0002:000174C8 00000004 C=BSS      S=.bss     G=DGROUP   M=f_def    ACBP=A9
 0002:000174CC 00000004 C=BSS      S=.bss     G=DGROUP   M=dirdef   ACBP=A9
 0002:000174D0 00000004 C=BSS      S=.bss     G=DGROUP   M=dir4     ACBP=A9
 0002:000174D4 00000004 C=BSS      S=.bss     G=DGROUP   M=cc_warn  ACBP=A9
 0002:000174D8 00000004 C=BSS      S=.bss     G=DGROUP   M=mem2     ACBP=A9
 0002:000174DC 00000004 C=BSS      S=.bss     G=DGROUP   M=cc_desc  ACBP=A9
 0002:000174E0 00000004 C=BSS      S=.bss     G=DGROUP   M=Math     ACBP=A9
 0002:000174E4 00000004 C=BSS      S=.bss     G=DGROUP   M=cc_mem   ACBP=A9
 0002:000174E8 00000004 C=BSS      S=.bss     G=DGROUP   M=cc_list  ACBP=A9
 0002:000174EC 00000C24 C=BSS      S=.bss     G=DGROUP   M=cc_var   ACBP=A9
 0002:00018110 00000004 C=BSS      S=.bss     G=DGROUP   M=kbdkey   ACBP=A9
 0002:00018114 00000004 C=BSS      S=.bss     G=DGROUP   M=cc_uniop ACBP=A9
 0002:00018118 00000004 C=BSS      S=.bss     G=DGROUP   M=filetxt  ACBP=A9
 0002:0001811C 00000004 C=BSS      S=.bss     G=DGROUP   M=cc_lst0  ACBP=A9
 0002:00018120 00000004 C=BSS      S=.bss     G=DGROUP   M=cc_dump  ACBP=A9
 0002:00018124 00000004 C=BSS      S=.bss     G=DGROUP   M=edstr    ACBP=A9
 0002:00018128 00000004 C=BSS      S=.bss     G=DGROUP   M=cc_msg   ACBP=A9
 0002:0001812C 00000004 C=BSS      S=.bss     G=DGROUP   M=cc_text  ACBP=A9
 0002:00018130 00000004 C=BSS      S=.bss     G=DGROUP   M=cc_lex0  ACBP=A9
 0002:00018134 00000004 C=BSS      S=.bss     G=DGROUP   M=cc_sym   ACBP=A9
 0002:00018138 00000058 C=BSS      S=.bss     G=DGROUP   M=cc_rtl   ACBP=A9
 0002:00018190 000007A2 C=BSS      S=.bss     G=DGROUP   M=cc_env   ACBP=A9
 0002:00018934 0000D265 C=BSS      S=.bss     G=DGROUP   M=cc_util  ACBP=A9
 0002:00025B9C 00000004 C=BSS      S=.bss     G=DGROUP   M=strgs    ACBP=A9
 0002:00025BA0 0000913F C=BSS      S=.bss     G=DGROUP   M=cc_type  ACBP=A9
 0002:0002ECE0 00000004 C=BSS      S=.bss     G=DGROUP   M=conv     ACBP=A9
 0002:0002ECE4 00000004 C=BSS      S=.bss     G=DGROUP   M=cc_attr  ACBP=A9
 0002:0002ECE8 00000004 C=BSS      S=.bss     G=DGROUP   M=cx_array ACBP=A9
 0002:0002ECEC 00000004 C=BSS      S=.bss     G=DGROUP   M=cx_set   ACBP=A9
 0002:0002ECF0 00000004 C=BSS      S=.bss     G=DGROUP   M=cx_imm   ACBP=A9
 0002:0002ECF4 000000A4 C=BSS      S=.bss     G=DGROUP   M=cx_def   ACBP=A9
 0002:0002ED98 00000004 C=BSS      S=.bss     G=DGROUP   M=cx_parse ACBP=A9
 0002:0002ED9C 00000004 C=BSS      S=.bss     G=DGROUP   M=cx_util  ACBP=A9
 0002:0002EDA0 00000004 C=BSS      S=.bss     G=DGROUP   M=cx_resolve ACBP=A9
 0002:0002EDA4 00000004 C=BSS      S=.bss     G=DGROUP   M=cx_rta   ACBP=A9
 0002:0002EDA8 00000004 C=BSS      S=.bss     G=DGROUP   M=cx_type  ACBP=A9
 0002:0002EDAC 000010E4 C=BSS      S=.bss     G=DGROUP   M=cx_opt   ACBP=A9
 0002:0002FE90 00000004 C=BSS      S=.bss     G=DGROUP   M=cx_final ACBP=A9
 0002:0002FE94 00000004 C=BSS      S=.bss     G=DGROUP   M=cb_choice ACBP=A9
 0002:0002FE98 000000BC C=BSS      S=.bss     G=DGROUP   M=cb_def   ACBP=A9
 0002:0002FF54 00000004 C=BSS      S=.bss     G=DGROUP   M=cb_parse ACBP=A9
 0002:0002FF58 00000004 C=BSS      S=.bss     G=DGROUP   M=cb_opt   ACBP=A9
 0002:0002FF5C 00000004 C=BSS      S=.bss     G=DGROUP   M=cb_form  ACBP=A9
 0002:0002FF60 00000004 C=BSS      S=.bss     G=DGROUP   M=cb_block ACBP=A9
 0002:0002FF64 00000004 C=BSS      S=.bss     G=DGROUP   M=cd_idl   ACBP=A9
 0002:0002FF68 00000004 C=BSS      S=.bss     G=DGROUP   M=cd_util  ACBP=A9
 0002:0002FF6C 00000004 C=BSS      S=.bss     G=DGROUP   M=cd_attr  ACBP=A9
 0002:0002FF70 00000004 C=BSS      S=.bss     G=DGROUP   M=cd_type  ACBP=A9
 0002:0002FF74 00000004 C=BSS      S=.bss     G=DGROUP   M=ca_def   ACBP=A9
 0002:0002FF78 00000004 C=BSS      S=.bss     G=DGROUP   M=cd_unit  ACBP=A9
 0002:0002FF7C 00000004 C=BSS      S=.bss     G=DGROUP   M=cx_phase ACBP=A9
 0002:0002FF80 000000F7 C=BSS      S=.bss     G=DGROUP   M=cx_form  ACBP=A9
 0002:00030078 00000004 C=BSS      S=.bss     G=DGROUP   M=cx_expr  ACBP=A9
 0002:0003007C 00000070 C=BSS      S=.bss     G=DGROUP   M=cd_eval  ACBP=A9
 0002:000300EC 00000004 C=BSS      S=.bss     G=DGROUP   M=cd_decl  ACBP=A9
 0002:000300F0 0000004C C=BSS      S=.bss     G=DGROUP   M=cc_pre   ACBP=A9
 0002:0003013C 00000004 C=BSS      S=.bss     G=DGROUP   M=cc_lex1  ACBP=A9
 0002:00030140 00000004 C=BSS      S=.bss     G=DGROUP   M=cc_err   ACBP=A9
 0002:00030144 0000002C C=BSS      S=.bss     G=DGROUP   M=cc_def   ACBP=A9
 0002:00030170 00000004 C=BSS      S=.bss     G=DGROUP   M=cb_make  ACBP=A9
 0002:00030174 00000004 C=BSS      S=.bss     G=DGROUP   M=cx_make  ACBP=A9
 0002:00030178 00000004 C=BSS      S=.bss     G=DGROUP   M=ca_util  ACBP=A9
 0002:0003017C 00000004 C=BSS      S=.bss     G=DGROUP   M=ca_type  ACBP=A9
 0002:00030180 00000004 C=BSS      S=.bss     G=DGROUP   M=ca_var   ACBP=A9
 0002:00030184 00000004 C=BSS      S=.bss     G=DGROUP   M=ca_temp  ACBP=A9
 0002:00030188 00000004 C=BSS      S=.bss     G=DGROUP   M=ca_block ACBP=A9
 0002:0003018C 00000004 C=BSS      S=.bss     G=DGROUP   M=ca_analyze ACBP=A9
 0002:00030190 00000170 C=BSS      S=.bss     G=DGROUP   M=c32_def  ACBP=A9
 0002:00030300 00000004 C=BSS      S=.bss     G=DGROUP   M=c32_uniop ACBP=A9
 0002:00030304 00000004 C=BSS      S=.bss     G=DGROUP   M=cc_debug ACBP=A9
 0002:00030308 0000075C C=BSS      S=.bss     G=DGROUP   M=ci_instr ACBP=A9
 0002:00030A64 00000004 C=BSS      S=.bss     G=DGROUP   M=ci_struct ACBP=A9
 0002:00030A68 00000004 C=BSS      S=.bss     G=DGROUP   M=ci_def   ACBP=A9
 0002:00030A6C 00000004 C=BSS      S=.bss     G=DGROUP   M=ci_reg   ACBP=A9
 0002:00030A70 00000004 C=BSS      S=.bss     G=DGROUP   M=ci_code  ACBP=A9
 0002:00030A74 00000004 C=BSS      S=.bss     G=DGROUP   M=ci_util  ACBP=A9
 0002:00030A78 00000004 C=BSS      S=.bss     G=DGROUP   M=c32_cpu  ACBP=A9
 0002:00030A7C 00000004 C=BSS      S=.bss     G=DGROUP   M=cl_def   ACBP=A9
 0002:00030A80 00000004 C=BSS      S=.bss     G=DGROUP   M=cl_util  ACBP=A9
 0002:00030A84 00000004 C=BSS      S=.bss     G=DGROUP   M=cl_map   ACBP=A9
 0002:00030A88 00000004 C=BSS      S=.bss     G=DGROUP   M=cl_codeview_type ACBP=A9
 0002:00030A8C 00000004 C=BSS      S=.bss     G=DGROUP   M=cl_codeview ACBP=A9
 0002:00030A90 00000004 C=BSS      S=.bss     G=DGROUP   M=ci_link  ACBP=A9
 0002:00030A94 00000004 C=BSS      S=.bss     G=DGROUP   M=c32_Linux ACBP=A9
 0002:00030A98 00000004 C=BSS      S=.bss     G=DGROUP   M=cl_dwarf ACBP=A9
 0002:00030A9C 00000004 C=BSS      S=.bss     G=DGROUP   M=cl_elf   ACBP=A9
 0002:00030AA0 00000004 C=BSS      S=.bss     G=DGROUP   M=c32_Win32 ACBP=A9
 0002:00030AA4 00000004 C=BSS      S=.bss     G=DGROUP   M=cl_pe    ACBP=A9
 0002:00030AA8 00000004 C=BSS      S=.bss     G=DGROUP   M=g_util   ACBP=A9
 0002:00030AAC 00000004 C=BSS      S=.bss     G=DGROUP   M=c32_util ACBP=A9
 0002:00030AB0 00000004 C=BSS      S=.bss     G=DGROUP   M=ci_context ACBP=A9
 0002:00030AB4 00000004 C=BSS      S=.bss     G=DGROUP   M=ci_rtl   ACBP=A9
 0002:00030AB8 00000004 C=BSS      S=.bss     G=DGROUP   M=ci_fragment ACBP=A9
 0002:00030ABC 00000D18 C=BSS      S=.bss     G=DGROUP   M=ci_expr  ACBP=A9
 0002:000317D4 00000004 C=BSS      S=.bss     G=DGROUP   M=ci_block ACBP=A9
 0002:000317D8 00000004 C=BSS      S=.bss     G=DGROUP   M=ci_gen   ACBP=A9
 0002:000317DC 00000004 C=BSS      S=.bss     G=DGROUP   M=ci_asm   ACBP=A9
 0002:000317E0 00000004 C=BSS      S=.bss     G=DGROUP   M=cl_link  ACBP=A9
 0002:000317E4 00000004 C=BSS      S=.bss     G=DGROUP   M=cc_comp  ACBP=A9
 0002:000317E8 000008B8 C=BSS      S=.bss     G=DGROUP   M=f_comp   ACBP=A9
 0002:000320A0 00000004 C=BSS      S=.bss     G=DGROUP   M=f_param  ACBP=A9
 0002:000320A4 00000008 C=BSS      S=.bss     G=DGROUP   M=f_main   ACBP=A9


  Address         Publics by Name

 0002:00008C14       .1
 0002:0002ECE0       .1
 0002:0002ECE4       .1
 0002:0003007C       .1
 0002:00030078       .1
 0002:00017038       .1
 0002:00008C1C       .1
 0002:0002FF58       .1
 0002:000320A4       .1
 0002:0002ECE8       .1
 0002:0002ECEC       .1
 0002:00025BA0       .1
 0002:00025B9C       .1
 0002:0002ECF0       .1
 0002:00008C10       .1
 0002:000320A0       .1
 0002:00008C08       .1
 0002:0003209C       .1
 0002:00017034       .1
 0002:00008C20       .1
 0002:00008C24       .1
 0002:00018934       .1
 0002:00008BB4       .1
 0002:00018190       .1
 0002:0002FF60       .1
 0002:000317E4       .1
 0002:0001703C       .1
 0002:00008C2C       .1
 0002:00018138       .1
 0002:000317E0       .1
 0002:00008F94       .1
 0002:00017048       .1
 0002:0001704C       .1
 0002:0002FF54       .1
 0002:000170BC       .1
 0002:00008BB0       .1
 0002:000170C0       .1
 0002:000300EC       .1
 0002:00008BAC       .1
 0002:00008BA4       .1
 0002:00008BA0       .1
 0002:00008B9C       .1
 0002:000317DC       .1
 0002:000170C4       .1
 0002:000317D8       .1
 0002:00008B98       .1
 0002:000300F0       .1
 0002:00008B94       .1
 0002:00008B90       .1
 0002:0003013C       .1
 0002:00008B8C       .1
 0002:00008B88       .1
 0002:00008B84       .1
 0002:00030140       .1
 0002:0002FF5C       .1
 0002:00008B2C       .1
 0002:00030170       .1
 0002:00008B28       .1
 0002:00008B24       .1
 0002:00008C44       .1
 0002:00030174       .1
 0002:000174C8       .1
 0002:00030178       .1
 0002:000174CC       .1
 0002:0003017C       .1
 0002:0002FE98       .1
 0002:000317D4       .1
 0002:000174D0       .1
 0002:000174D4       .1
 0002:00008B20       .1
 0002:00008B1C       .1
 0002:000174D8       .1
 0002:00018134       .1
 0002:00008B18       .1
 0002:00030180       .1
 0002:00008B14       .1
 0002:00030184       .1
 0002:00008B10       .1
 0002:00030188       .1
 0002:000085F8       .1
 0002:000174DC       .1
 0002:0002FF80       .1
 0002:0003018C       .1
 0002:000174E4       .1
 0002:0002FF7C       .1
 0002:0002FE90       .1
 0002:0001810C       .1
 0002:00018110       .1
 0002:000302FC       .1
 0002:00008D94       .1
 0002:00030300       .1
 0002:0002FF78       .1
 0002:00030304       .1
 0002:0002FF74       .1
 0002:00030A64       .1
 0002:000084E0       .1
 0002:00030A6C       .1
 0002:00010FE4       .1
 0002:000084DC       .1
 0002:00030A70       .1
 0002:0002FF70       .1
 0002:00018114       .1
 0002:00030A74       .1
 0002:00030A78       .1
 0002:0002FF6C       .1
 0002:00030A7C       .1
 0002:00030A80       .1
 0002:00030A84       .1
 0002:0002EDAC       .1
 0002:0002EDA8       .1
 0002:0002EDA4       .1
 0002:0002EDA0       .1
 0002:0002ED9C       .1
 0002:00030A94       .1
 0002:00008DC0       .1
 0002:00030A98       .1
 0002:00030ABC       .1
 0002:000084CC       .1
 0002:000084C8       .1
 0002:00018118       .1
 0002:0002ED98       .1
 0002:0001811C       .1
 0002:00030A9C       .1
 0002:00018120       .1
 0002:00018130       .1
 0002:00030AA0       .1
 0002:00030AB8       .1
 0002:0001812C       .1
 0002:00030AB4       .1
 0002:00008F90       .1
 0002:000084C0       .1
 0002:0002FF68       .1
 0002:00030AA4       .1
 0002:00018124       .1
 0002:00030AA8       .1
 0002:00018128       .1
 0002:00030AAC       .1
 0002:0002FF64       .1
 0002:00030AB0       .1
 0002:0002ECF4       .2
 0002:0003016C       .2
 0002:000174E8       .2
 0002:00008B80       .2
 0002:00030A60       .2
 0002:000084C4       .2
 0002:00030A90       .2
 0002:0002FE94       .2
 0002:00030A8C       .3
 0002:00030A68       .3
 0002:00030A88       .4
 0001:00003799       @Append
 0001:00003672       @Assign
 0001:00001A98       @AStrCmp
 0001:00001F54       @ClassCreate
 0001:00001F90       @ClassDestroy
 0001:00003714       @Close
 0001:000015EC       @Copy
 0001:00001630       @Delete
 0001:00002338       @DoneExcept
 0001:00001B08       @FillChar
 0001:00002D44       @Finalize
 0001:00002C84       @FinalizeArray
 0001:00002C58       @FinalizeRecord
 0001:000036ED       @Flush
 0001:00001510       @FreeMem
 0001:000014F8       @GetMem
 0001:00004128       @GetTls
 0001:00002798       @Halt
 0001:00002680       @Halt0
 0001:00002094       @HandleAnyException
 0001:00002290       @HandleFinally
 0001:00002158       @HandleOnException
 0001:000041B8       @InitExe
 0001:000025E0       @InitResStrings
 0001:0000174C       @Insert
 0001:00003458       @IntfClear
 0001:00001F30       @IsClass
 0001:00001660       @LGetDir
 0001:00002850       @LStrArrayClr
 0001:00002880       @LStrAsg
 0001:00002AB0       @LStrCat
 0001:00002AF4       @LStrCatN
 0001:0000282C       @LStrClr
 0001:00002B50       @LStrCopy
 0001:00002A58       @LStrFromArray
 0001:000029D0       @LStrFromChar
 0001:000029E0       @LStrFromPChar
 0001:00002910       @LStrFromPCharLen
 0001:00002A10       @LStrFromPWChar
 0001:00002940       @LStrFromPWCharLen
 0001:00002A4C       @LStrFromString
 0001:00002A70       @LStrFromWStr
 0001:000028C4       @LStrLAsg
 0001:00002AA8       @LStrLen
 0001:00002B90       @LStrSetLength
 0001:00002B44       @LStrToPChar
 0001:00002A84       @LStrToString
 0001:000028EC       @NewAnsiString
 0001:00001D24       @ObjSetup
 0001:00001918       @Pos
 0001:00003CC0       @Pow10
 0001:00001970       @PStrCat
 0001:00001A14       @PStrCmp
 0001:000019C8       @PStrCpy
 0001:00001998       @PStrNCat
 0001:000019E4       @PStrNCpy
 0001:000022E4       @RaiseAgain
 0001:000022C8       @RaiseExcept
 0001:00001528       @ReallocMem
 0001:0000378B       @ResetText
 0001:00003792       @RewritText
 0001:00001968       @ROUND
 0001:000027A4       @RunError
 0001:00001CA8       @SetElem
 0001:00001CCC       @SetRange
 0001:000016D8       @SGetDir
 0001:000025B0       @StartExe
 0001:00003938       @Str0Ext
 0001:00001B88       @Str0Long
 0001:00003944       @Str1Ext
 0001:0000394B       @Str2Ext
 0001:00001B28       @StrLong
 0001:00002368       @TryFinallyExit
 0001:00003BBC       @ValExt
 0001:00001B94       @ValLong
 0001:00002FFC       @VarCast
 0001:00002E94       @VarClear
 0001:0000312C       @VarClr
 0001:00002EC8       @VarCopy
 0001:000030F0       @VarToLStr
 0001:0000387F       @Write0Char
 0001:000038E8       @Write0CString
 0001:00001C64       @Write0Long
 0001:00002BF4       @Write0LString
 0001:00003844       @Write0String
 0001:000038D1       @WriteChar
 0001:000038EC       @WriteCString
 0001:0000386B       @WriteLn
 0001:00001C3C       @WriteLong
 0001:00002BFC       @WriteLString
 0001:0000384E       @WriteString
 0001:00002C34       @WStrArrayClr
 0001:00002C1C       @WStrClr
 0001:00001C84       @_CLenToPasStr
 0001:00001C6C       @_CToPasStr
 0001:000036C8       @_Flush
 0001:000015BC       @_IOTest
 0002:00008018       AbstractErrorProc
 0002:000172C8       act
 0002:0000100C       actnum
 0001:0000CED4       add
 0001:0004BF08       addaddimm
 0001:00019AD8       addalign
 0001:000167A4       addbuf
 0001:0004BCBC       addcall
 0001:0004BD08       addcallrtl
 0001:00011EB8       addchar
 0001:0004C030       addcmov
 0001:0004A4EC       adddebuginfo
 0001:00019E48       addfile
 0001:00017710       addident
 0001:0004D1BC       addii
 0001:0004BAA8       addip
 0001:0004BC04       addjump
 0001:0004BC68       addloop
 0001:0004BDF4       addmovaddr
 0001:000178A4       addnewsym
 0001:00017530       addnode
 0001:00023470       addoper
 0001:0004BE70       addopimm
 0001:0004BF58       addopreg
 0001:0004BD70       addpushofs
 0001:0004E548       addrelo
 0001:0004BFAC       addset
 0001:00011ECC       addstr
 0001:0004BEB8       addsubimm
 0001:000177C8       addsym
 0001:0000B9D8       addtolist
 0001:0006D40C       adduitoimm32
 0001:000234B0       addunary
 0001:0004E60C       addunres
 0001:000178F0       addwith
 0001:00004CA4       addx
 0001:00057384       add_dir_item
 0001:00019DBC       add_search_path
 0001:00061B7C       adjust
 0001:0006BC44       adjustasmop
 0001:0004BB3C       adjustoprel
 0001:0003B578       adjustvtable
 0001:0000D964       aitoa
 0001:0000F6BC       alloc
 0002:000083FC       AllocMemCount
 0002:00008400       AllocMemSize
 0001:0004E9DC       allocstack
 0001:0004EBE8       alloctemp
 0001:0000F720       allocz
 0001:0000FE0C       alloc_free0
 0001:00010024       alloc_large
 0001:0000FEC0       alloc_large0
 0001:0000FE60       alloc_new
 0001:00010130       alloc_small
 0001:0000739C       AnsiStrRScan
 0001:000073C4       AnsiStrScan
 0002:00000D0C       appdatum
 0001:000645B8       appendall
 0002:00008C0C       apprevize
 0001:0004E0D8       areavailregs
 0001:00004CE8       ascxtoint
 0001:0006D4BC       asmltooper
 0002:00008014       AssertErrorProc
 0001:0003E644       assignvaraddr
 0001:000236E8       a_agregat
 0001:0004A104       a_analyze
 0001:0002391C       a_atribut
 0001:0001DE4C       a_attrid
 0001:000494CC       a_block
 0001:00049018       a_block_accept
 0001:00049100       a_block_asm
 0001:00049044       a_block_block
 0001:0004871C       a_block_break
 0001:00048FEC       a_block_case
 0001:00048708       a_block_cmd
 0001:00048F04       a_block_delay
 0001:00048D00       a_block_discard
 0001:00048F7C       a_block_for
 0001:000487D8       a_block_goto
 0001:00048F18       a_block_if
 0001:00049180       a_block_if_cond
 0001:00049114       a_block_label
 0001:00048F44       a_block_loop
 0001:000491AC       a_block_loop1
 0001:000487EC       a_block_new
 0001:00048764       a_block_raise
 0001:00048748       a_block_return
 0001:00048778       a_block_send
 0001:000491E4       a_block_sequence
 0001:00049154       a_block_when_c
 0001:00049128       a_block_when_m
 0001:00048FB4       a_block_while
 0001:00024260       a_cinitel
 0001:000243F0       a_clen
 0001:0002437C       a_clen_chain
 0001:000485F8       a_create_temp_var
 0001:00023E1C       a_current
 0001:000236A4       a_deref
 0001:0002CEE0       a_final
 0001:0002CD68       a_final_aggregate
 0001:0002CC14       a_final_attrib
 0001:0002C89C       a_final_call
 0001:0002C334       a_final_component
 0001:0002CB18       a_final_deref
 0001:0002C6E4       a_final_imm
 0001:0002CA28       a_final_index
 0001:0002CDCC       a_final_message
 0001:0002C05C       a_final_operator
 0001:0002C9B0       a_final_range
 0001:0002CAD0       a_final_ref
 0001:0002CEC0       a_final_this
 0001:0002CCE4       a_final_typecast
 0001:0002C2C0       a_final_unary
 0001:0003A108       a_form
 0001:00039D48       a_form_aggregate
 0001:000392EC       a_form_attrib
 0001:00037190       a_form_call
 0001:00039F30       a_form_callspec
 0001:00037DFC       a_form_component
 0001:0003777C       a_form_component_finalize
 0001:0003A06C       a_form_current
 0001:0003757C       a_form_deref
 0001:00038190       a_form_imm
 0001:000389C8       a_form_index
 0001:000385B4       a_form_list
 0001:000374B8       a_form_message_accept
 0001:000373F4       a_form_message_send
 0001:000366DC       a_form_operator
 0001:00036F34       a_form_param
 0001:00038838       a_form_range
 0001:00038BA0       a_form_ref
 0001:000376B0       a_form_this
 0001:00038298       a_form_typecast
 0001:00036C2C       a_form_unary
 0001:0001DDB0       a_getlangattr
 0001:00023ED8       a_jmeno
 0001:00024520       a_jvyraz
 0001:000244A8       a_jvyraz_chain
 0001:000234F0       a_komponenta
 0001:00023980       a_list
 0001:00047104       a_list_append
 0001:0004773C       a_make_action_on_prefix
 0001:00047A3C       a_make_prefix_array
 0001:0004786C       a_make_prefix_record
 0001:0004717C       a_make_subprogram
 0001:0002BBBC       a_opt
 0001:0002B3E0       a_opt_aggregate
 0001:0002AD54       a_opt_attrib
 0001:0002AA54       a_opt_call
 0001:0002A77C       a_opt_component
 0001:0002AD04       a_opt_deref
 0001:000283E8       a_opt_finalize_sequence
 0001:0002A98C       a_opt_imm
 0001:0002AC04       a_opt_index
 0001:0002A9A8       a_opt_list
 0001:0002BB7C       a_opt_message
 0001:0002A2C8       a_opt_operator
 0001:00029724       a_opt_oper_assign
 0001:0002A22C       a_opt_oper_compare_partial
 0001:00028E88       a_opt_oper_iaritm
 0001:0002A180       a_opt_oper_in_set
 0001:000296A4       a_opt_oper_logical
 0001:0002944C       a_opt_oper_logical_xor
 0001:00029320       a_opt_oper_ordinal_rel
 0001:000298E8       a_opt_oper_pointer_rel
 0001:00029B38       a_opt_oper_record_rel
 0001:00029DDC       a_opt_oper_set
 0001:0002A0D4       a_opt_oper_set_rel
 0001:00029890       a_opt_oper_string_concat
 0001:00029790       a_opt_oper_string_rel
 0001:00029A10       a_opt_oper_tag_rel
 0001:0002AA78       a_opt_range
 0001:0002ACB4       a_opt_ref
 0001:00028454       a_opt_reoptimize
 0001:000285CC       a_opt_reorder
 0001:00028640       a_opt_reorder_imm
 0001:000284A4       a_opt_reorder_sts
 0001:00028480       a_opt_reorder_type
 0001:0002834C       a_opt_sequence
 0001:0002BBA0       a_opt_this
 0001:0002B1D4       a_opt_typecast
 0001:0002A6C4       a_opt_unary
 0001:0002A408       a_opt_unary_iaritm
 0001:0002A544       a_opt_unary_logical
 0001:00023600       a_pole
 0001:000470CC       a_prepare_info
 0001:00049E34       a_pre_class
 0001:00049C4C       a_pre_module
 0001:000249F0       a_prikaz
 0001:000499EC       a_procedure
 0001:0004980C       a_program
 0001:00024438       a_qclen
 0001:00024698       a_relace
 0001:00025EF0       a_resolve
 0001:00025D08       a_resolve_find
 0001:00025E78       a_resolve_propagate
 0001:00024624       a_rozsah
 0001:00049548       a_scan_variables
 0001:00023D2C       a_selektor
 0001:00049A0C       a_special
 0001:00049924       a_subprogram
 0001:00049F84       a_symbol
 0001:00027ED8       a_type
 0001:00047BD8       a_type
 0001:000278B8       a_type_aggregate
 0001:00047A88       a_type_array
 0001:00027710       a_type_attrib
 0001:00027258       a_type_call
 0001:000476EC       a_type_class_adjust
 0001:00047444       a_type_class_entry
 0001:000475D4       a_type_class_exit
 0001:000270E0       a_type_component
 0001:0002765C       a_type_deref
 0001:00027184       a_type_imm
 0001:000274C0       a_type_index
 0001:00047E20       a_type_make_call
 0001:00047E6C       a_type_make_call_ancestor
 0001:00047D24       a_type_make_call_qualified
 0001:00027DA4       a_type_message
 0001:00026ED8       a_type_operator
 0001:00026C24       a_type_operator_lang
 0001:00026A88       a_type_overloaded
 0001:000271F4       a_type_param
 0001:00047250       a_type_prepare
 0001:000273B8       a_type_range
 0001:000478AC       a_type_record
 0001:000275A8       a_type_ref
 0001:00027E68       a_type_this
 0001:000277CC       a_type_typecast
 0001:00027078       a_type_unary
 0001:00026F40       a_type_unary_lang
 0001:00048584       a_var_adjust
 0001:0004850C       a_var_entry
 0001:00048548       a_var_exit
 0001:000484CC       a_var_init
 0001:000245BC       a_vyber
 0001:000249B0       a_vyraz
 0001:000247AC       a_vyraz_chain
 0001:000027E8       BeginThread
 0001:000086E0       bg
 0002:00008B0E       bgcount
 0002:00008B0C       bgcurr
 0001:00008528       bgkeyloop
 0002:000085FC       bglist
 0001:00008520       bgloop
 0001:00008504       bg_init
 0002:00001004       biosbufbeg
 0002:000171C8       biosbuffer
 0002:00001008       biosbuflen
 0001:0000B5CC       bitcount
 0001:0000B5C8       bitset
 0001:0000B618       bitsf
 0001:0000B608       bitsfl
 0001:0002E2A0       blaccept.dump
 0001:0002E2FC       blasm.dump
 0001:0002E2CC       blblock.dump
 0001:0002E09C       blbreak.dump
 0001:0002E278       blcase.dump
 0001:0002E074       blcmd.dump
 0001:0002E1B4       bldelay.dump
 0001:0002E18C       bldiscard.dump
 0001:0002E230       blfor.dump
 0001:0002E148       blgoto.dump
 0001:0002E1E0       blif.dump
 0001:0002E3B0       blif_cond.dump
 0001:0002DFC8       blinfo.init
 0001:0002E324       bllabel.dump
 0001:0002E208       blloop.dump
 0001:0002E3D8       blloop1.dump
 0001:0002E170       blnew.dump
 0001:0002E048       blnode.errpos
 0001:0002DFF0       blnode.init
 0001:0002E00C       blnode.setpos
 0002:00014474       blocksizenames
 0002:000110C0       blocksizestat
 0002:00013090       blocksizestattxt
 0002:0002FE9C       blpool
 0001:0002E0F4       blraise.dump
 0001:0002E0C8       blreturn.dump
 0001:0002E120       blsend.dump
 0002:000029BC       blsize
 0001:0002E380       blwhen_c.dump
 0001:0002E350       blwhen_m.dump
 0001:0002E24C       blwhile.dump
 0002:00000EBC       booltxt
 0001:0005BFA4       buildimport
 0001:00004EC8       bytetohex
 0001:00007360       ByteType
 0001:0002EDEC       b_accept
 0001:0002F628       b_asm
 0001:0002EFBC       b_begin
 0001:000316FC       b_block
 0001:0002FB34       b_body
 0001:0002F420       b_break
 0001:0002EC38       b_case
 0001:0002FA24       b_catch
 0001:0002E6C8       b_cmd
 0001:0002F5CC       b_delay
 0001:0002F3C4       b_discard
 0001:0003180C       b_evaluate
 0001:0002E988       b_for
 0001:00031690       b_form
 0001:00031270       b_form_accept
 0001:0003143C       b_form_asm
 0001:00031394       b_form_block
 0001:00030770       b_form_break
 0001:0003112C       b_form_case
 0001:00031290       b_form_catch
 0001:00030720       b_form_cmd
 0001:00030D98       b_form_delay
 0001:00030D48       b_form_discard
 0001:00030EFC       b_form_for
 0001:0003095C       b_form_goto
 0001:00030DB8       b_form_if
 0001:0003141C       b_form_label
 0001:00030E70       b_form_loop
 0001:00030A98       b_form_new
 0001:0003145C       b_form_node
 0001:00030848       b_form_raise
 0001:00030828       b_form_return
 0001:0003093C       b_form_send
 0001:00030660       b_form_sequence
 0001:000310AC       b_form_while
 0001:0002F498       b_goto
 0001:0002E724       b_if
 0001:0002E5C4       b_label
 0001:0002E888       b_loop
 0001:00046900       b_make_block
 0001:00046860       b_make_cmd
 0001:00046920       b_make_for
 0001:0004688C       b_make_if
 0001:000468C0       b_make_if_cond
 0001:00046814       b_make_list
 0001:0002F328       b_new
 0001:00030444       b_opt
 0001:000302E8       b_opt_accept
 0001:00030428       b_opt_asm
 0001:0003039C       b_opt_block
 0001:0002FD50       b_opt_break
 0001:00030010       b_opt_case
 0001:00030304       b_opt_catch
 0001:0002FD20       b_opt_cmd
 0001:0002FE14       b_opt_delay
 0001:0002FDF8       b_opt_discard
 0001:0002FF60       b_opt_for
 0001:0002FDC0       b_opt_goto
 0001:0002FE30       b_opt_if
 0001:0003040C       b_opt_label
 0001:0002FEE4       b_opt_loop
 0001:0002FDDC       b_opt_new
 0001:0002FD88       b_opt_raise
 0001:0002FD6C       b_opt_return
 0001:0002FDA4       b_opt_send
 0001:0002FC34       b_opt_sequence
 0001:0002FF9C       b_opt_while
 0001:0002F008       b_raise
 0001:0002F45C       b_return
 0001:0002F0B4       b_send
 0001:0002F6B0       b_sequence
 0001:0002EB50       b_while
 0001:000500D0       c32_cpu
 0001:0004A314       c32_def
 0001:0004A150       c32_def_init
 0001:000591C8       c32_Linux
 0001:0004A418       c32_uniop
 0001:0005D840       c32_util
 0001:0005BF5C       c32_Win32
 0001:000498B0       calcnesting
 0001:0004AFC8       card
 0001:0004DF48       card
 0001:0004A148       ca_analyze
 0001:00049540       ca_block
 0001:0003341C       ca_def
 0001:000486D4       ca_temp
 0001:00047F40       ca_type
 0001:00047174       ca_util
 0001:000485F0       ca_var
 0001:000319E8       cb_block
 0001:0002DB58       cb_choice
 0001:0002E5BC       cb_def
 0001:000316F4       cb_form
 0001:00046990       cb_make
 0001:00030658       cb_opt
 0001:0002FC2C       cb_parse
 0001:00039030       cc
 0001:0001DF3C       cc_attr
 0001:0006EBB8       cc_comp
 0001:0004A5B0       cc_debug
 0001:0004680C       cc_def
 0001:000463A8       cc_def_init
 0001:000140F4       cc_desc
 0001:00015568       cc_dump
 0001:000192E8       cc_env
 0001:00046084       cc_err
 0001:000173B8       cc_lex0
 0001:0004224C       cc_lex1
 0001:00014630       cc_list
 0001:000154E0       cc_lst0
 0001:00014474       cc_mem
 0001:00015640       cc_msg
 0001:00041B34       cc_pre
 0001:00041A40       cc_pre_init
 0001:00018DCC       cc_rtl
 0001:00018C50       cc_sym
 0001:00016100       cc_text
 0001:0001DA14       cc_type
 0001:0001D9DC       cc_type_init
 0001:00014E0C       cc_uniop
 0001:0001A1B4       cc_util
 0001:00014668       cc_var
 0001:00013C68       cc_warn
 0002:00001018       cc_warning_desc
 0001:00038F0C       cd
 0002:00001094       cdbase_flex
 0001:00038F70       cdt
 0001:000323BC       cd_attr
 0001:0003FB88       cd_decl
 0001:0003F3E4       cd_eval
 0001:0003F2F8       cd_eval_init
 0001:00031B84       cd_idl
 0001:000333E4       cd_type
 0001:0003602C       cd_unit
 0001:00031ED4       cd_util
 0002:000174EC       ce
 0001:00039268       cent
 0001:000423F0       cerrortxt
 0002:00002A20       ce_dup
 0002:00002A1C       ce_i
 0002:00002F18       ce_meta_noend
 0002:00002A24       ce_x_end
 0002:000180E5       cfg_extformat
 0002:00002F14       cfg_maxerrors
 0002:000180E3       cfg_noruntime
 0002:000180E4       cfg_syntaxcheckonly
 0001:00011FE0       chartostrb
 0001:0003626C       checkclass
 0001:00018848       checkcontainer
 0001:000361F4       checkeval
 0001:0004DD64       checkii
 0001:00041F88       checklex
 0001:00015C78       checkmeta
 0001:00036634       checkparam
 0001:00036374       checkresolve
 0001:000182C8       checkspecial
 0001:000362BC       checksts
 0001:00036314       checkview
 0001:00025CEC       check_all
 0001:00025C90       check_compatible
 0001:00025C68       check_equal
 0001:00019B60       check_module
 0001:0001E8EC       choice_add_range
 0001:0002D5D8       choice_add_range
 0001:0001E274       choice_add_range
 0001:0001E4A8       choice_add_single
 0001:0002D198       choice_add_single
 0001:0001DF90       choice_add_single
 0001:0001DF44       choice_extend
 0001:0002D14C       choice_extend
 0001:0001E45C       choice_extend
 0001:0001F054       choice_remove_range
 0001:0001EE4C       choice_remove_single
 0001:0006E038       ci_asm
 0001:0006CB88       ci_block
 0001:0004EC8C       ci_code
 0001:0005DB38       ci_context
 0001:0004A6F8       ci_def
 0001:0004A644       ci_def_init
 0001:0006A0F0       ci_expr
 0001:0006A0B8       ci_expr_init
 0001:00060CF4       ci_fragment
 0001:0006D0F0       ci_gen
 0001:0004A604       ci_instr
 0001:00058FE4       ci_link
 0001:0004B7B8       ci_reg
 0001:0005DFF0       ci_rtl
 0001:0004A63C       ci_struct
 0001:0004EF28       ci_util
 0001:0004E36C       cloneop
 0001:00004998       CloseDesktop
 0001:000047C0       CloseHandle
 0001:000049A0       CloseWindowStation
 0001:00057B6C       cl_codeview
 0001:00053F90       cl_codeview_type
 0001:000501E0       cl_def
 0001:00059E20       cl_dwarf
 0001:0005BB98       cl_elf
 0001:0006E414       cl_link
 0001:00050A70       cl_map
 0001:0005D610       cl_pe
 0001:00050594       cl_util
 0002:00008028       CmdLine
 0002:00008024       CmdShow
 0001:000421C8       cmplexposa
 0001:00042174       cmplexposb
 0001:00020A2C       cmpnil
 0001:00063C38       cmpnil
 0001:000636CC       cmpnil
 0001:000046BC       cmpsbe
 0001:000046D4       cmpsbne
 0001:000155A8       cmsgcompiled
 0001:00038FDC       cn
 0001:0001288C       code0
 0001:000127F8       code0_done
 0001:00012648       code0_init
 0002:00006F7C       codeview_debug
 0002:00007080       codeview_dir_item_type_code
 0002:000070F4       codeview_disable_debugtagtype
 0002:000070A8       codeview_symbol_type_code
 0002:00006F6C       codeview_type_proc_call
 0002:00006F20       codeview_type_type_code
 0002:00006F80       codeview_version
 0001:00054A54       code_flags
 0001:00050C14       code_member_attribute
 0001:00016B7C       comment
 0002:00031F50       compdesc
 0002:00017F9C       compdesc
 0001:0006E41C       compile
 0001:0006ECA8       compiler
 0001:0006EB58       compiler_init
 0001:0004E214       composeop
 0001:0004FE6C       compute_hval
 0001:00012550       con0
 0001:00012504       con0_init
 0001:0001DD78       conv
 0001:0005FCF0       copyblock
 0001:0005FBA0       copysubblock
 0001:0005FC8C       copywords
 0001:00011B44       count
 0002:00017F7C       cpu
 0002:00004088       cpu32_classisize
 0002:00004094       cpu32_class_status
 0002:00004090       cpu32_class_tag
 0002:00004170       cpu32_defaultalign
 0002:000302B4       cpu32_fpparams
 0002:00004178       cpu32_fpsize
 0002:00030190       cpu32_fpsparams
 0002:000040C0       cpu32_intrange
 0002:000040A8       cpu32_logical_hval
 0002:000040A0       cpu32_logical_lval
 0002:00004168       cpu32_maxtypesize
 0002:00004160       cpu32_ptrsize0
 0002:00004140       cpu32_rtattribsize
 0002:0000409C       cpu32_status_inited
 0002:00004098       cpu32_status_none
 0002:000040B0       cpu32_string_hval
 0002:000040B8       cpu32_string_isize
 0001:0000B518       crc0
 0001:000047C8       CreateDirectory
 0001:000047D0       CreateEvent
 0001:000047D8       CreateFile
 0001:000047E0       CreateMutex
 0001:00037740       createthis
 0001:0001A0E8       create_filelist
 0001:00051950       create_recorditem
 0001:00051D10       create_recorditem
 0001:0000BDDC       cropen
 0001:0000F618       csfree
 0001:0000F5EC       csinit
 0001:0000F630       cslock
 0001:0000F664       csunlock
 0001:00038E24       ct
 0001:00038EB0       ctg
 0001:00039098       ctv
 0001:0003913C       ctvx
 0002:000084EC       CurrencyDecimals
 0002:000084E8       CurrencyFormat
 0002:000084E4       CurrencyString
 0002:000027A0       currentityinfo
 0001:0000A2D8       currentpath
 0002:00000110       currusername
 0001:000391CC       cv
 0001:0001387C       cwarntxt
 0001:0001E454       cx_array
 0001:00023454       cx_def
 0001:0003B520       cx_expr
 0001:0002D144       cx_final
 0001:0003A2CC       cx_form
 0001:0003A294       cx_form_init
 0001:00020E1C       cx_imm
 0001:000470C4       cx_make
 0001:0002BFC0       cx_opt
 0001:0002BF84       cx_opt_init
 0001:00024D74       cx_parse
 0001:000361EC       cx_phase
 0001:0002601C       cx_resolve
 0001:00026A24       cx_rta
 0001:0001F318       cx_set
 0001:000281CC       cx_type
 0001:00025C60       cx_util
 0001:000141BC       c_alloc
 0001:0002BFEC       c_final
 0001:00014434       c_free
 0001:00014158       c_initmem
 0001:0001425C       c_realloc
 0001:00014364       c_realloc_plain
 0001:0001420C       c_store
 0001:00026BA0       c_type
 0002:00003EC8       datatypename
 0002:00003F34       datatypetxt
 0002:000084ED       DateSeparator
 0001:000091A4       datetostr
 0001:000088C4       datetoymd
 0001:00008D7C       datim
 0001:00008C64       datimtodate
 0001:000097B0       datimtostr
 0001:00008CA4       datimtotime
 0002:00017358       debugfile
 0002:00000004       DebugHook
 0002:00001014       debugmode
 0002:000084EB       DecimalSeparator
 0002:00002A4C       declinfo
 0001:0000B8E8       decryptfblock
 0001:00004244       def0
 0001:0000427C       def1
 0002:00000000       Default8087CW
 0001:0000F20C       deflocvar
 0001:00010F88       defragmentation_process
 0001:00010B04       defragmentation_round
 0001:00011028       defragment_all
 0002:00011034       defrag_process
 0002:000180F4       def_unichar
 0002:000180E8       def_uniint
 0002:000180F0       def_unilogical
 0002:000180F8       def_uninil
 0002:000180EC       def_unireal
 0002:000180FC       def_unistr
 0001:0003455C       deklarace
 0002:00008C18       delaycnt
 0001:000047E8       DeleteCriticalSection
 0001:000047F0       DeleteFile
 0001:0005D73C       deletevoltmetr
 0001:0001E894       delint
 0001:0002D580       delint
 0001:00021428       derivenode
 0001:0000B4A8       des
 0002:000000B8       dform
 0001:0000AA50       dir0
 0001:00013710       dir4
 0001:00013430       dirdef
 0001:000047F8       DisconnectNamedPipe
 0001:00004C78       divx
 0001:00036034       dophase
 0001:0000A004       drivetype
 0001:0000985C       dtconv
 0001:00008C14       dttodatim
 0001:0002E404       dump
 0001:00023038       dump
 0001:000154E8       dump
 0001:0004A700       dumpreg
 0001:0002E540       dumptree
 0001:000233D8       dumptree
 0001:00056684       dump_alignsym
 0001:00053EB4       dump_codeview_type
 0001:000550A8       dump_fileindex
 0001:00053148       dump_lf_array
 0001:000535C0       dump_lf_enum
 0001:00053364       dump_lf_pointer
 0001:00053988       dump_lf_procedure
 0001:000529E4       dump_lf_structure
 0001:00054F78       dump_module
 0001:00052998       dump_primitive
 0001:00054B00       dump_segment_map
 0001:00054C80       dump_src_module
 0001:00056CC8       dump_symbol_table
 0001:00004800       DuplicateHandle
 0001:00059AE0       dw_at_highpc
 0001:00059C10       dw_at_identifier_case
 0001:00059B50       dw_at_language
 0001:00059AA8       dw_at_lowpc
 0001:00059B18       dw_at_name
 0001:00059BC0       dw_at_producer
 0001:00059B88       dw_at_stmt_list
 0001:00059A24       dw_end_compunit
 0001:00059CAC       dw_line_advance_line
 0001:00059CD4       dw_line_info
 0001:00059C48       dw_line_setaddress
 0001:00059C84       dw_line_setfile
 0001:000597FC       dw_tag_compunit
 0001:0003F3EC       d_create
 0001:0003F874       d_create_empty
 0001:0003F814       d_create_internal
 0001:0003F7BC       d_create_special
 0001:0003F9B4       d_end
 0001:0003FAB0       d_end_internal
 0001:0003F8EC       d_next
 0001:0003F958       d_next_internal
 0001:0003F99C       d_rollback
 0001:000155A0       edstr
 0001:0000A194       efilename
 0002:00002A18       ek_context
 0002:00002A48       elevel
 0001:0000950C       emptydate
 0002:00000234       EmptyStr
 0001:00009724       emptytime
 0001:0000B0F4       encrypt
 0001:0000B7A8       encryptfblock
 0001:00004808       EnterCriticalSection
 0002:00017F84       entrylist
 0001:00004810       EnumCalendarInfoA
 0002:00018194       envtab
 0002:000019B4       envvartab
 0001:00006BE8       EOutOfMemory.Destroy
 0001:00006BF4       EOutOfMemory.FreeInstance
 0002:000085B0       EraNames
 0002:000085CC       EraYearOffsets
 0001:000124FC       err0
 0001:0000D940       err1
 0001:0000D8C8       err1_init
 0002:00008034       ErrorAddr
 0002:00008004       ErrorProc
 0002:00000EC4       errors
 0001:0006F734       errpar
 0002:00008008       ExceptClsProc
 0001:00006B38       Exception.Create
 0001:00006B6C       Exception.CreateFmt
 0002:00008010       ExceptionClass
 0001:000068E8       ExceptionErrorMessage
 0002:0000800C       ExceptObjProc
 0002:00008000       ExceptProc
 0001:00009FA8       exist
 0001:0000A3B0       existdir
 0002:0000802C       ExitCode
 0002:000000A8       exitflg
 0001:000705E0       exithandler
 0002:00000C08       exitonfatal
 0002:00008030       ExitProc
 0001:00004818       ExitProcess
 0001:00022BEC       expaggregate.dump
 0001:00021B64       expambiguous.addtype
 0001:00021C68       expambiguous.checktype
 0001:00021CE0       expambiguous.gettype
 0001:00021F08       expambiguous.gettypecount
 0001:00021D44       expambiguous.gettypeinfo
 0001:00021E7C       expambiguous.gettypeorigin
 0001:00021E18       expambiguous.gettypesym
 0001:00021B08       expambiguous.init
 0001:00021FE4       expambiguous.isresolved
 0001:00021F24       expambiguous.resolve
 0001:00009F58       expand
 0001:000098F8       expandi
 0001:00022B18       expattrib.dump
 0001:00022AFC       expattrib.getsymbol
 0001:00022ADC       expattrib.setid
 0001:00022C48       expcallspec.dump
 0001:000222A4       expcomponent.dump
 0001:00022288       expcomponent.getsymbol
 0001:00022268       expcomponent.setid
 0001:00022CD8       expcurrent.dump
 0001:00022AA8       expderef.dump
 0001:00022A84       expderef.join
 0001:00022A60       expderef.split
 0001:00022334       expimm.dump
 0001:00022964       expindex.dump
 0001:00022938       expindex.get
 0001:00022910       expindex.join
 0001:000228D0       expindex.split
 0001:00021684       expinfo.init
 0001:000227C0       expitem.dump
 0001:00022794       expitem.get
 0001:00022710       expitem.getsymbol
 0001:0002276C       expitem.join
 0001:000226F0       expitem.setid
 0001:0002272C       expitem.split
 0001:000226A4       explist.dump
 0001:00022658       explist.get
 0001:0002257C       explist.init
 0001:0002260C       explist.join
 0001:000225A8       explist.split
 0001:0002193C       expnode.dump
 0001:00021914       expnode.errpos
 0001:00021858       expnode.getpos
 0001:000217D8       expnode.getsymbol
 0001:00021790       expnode.gettype
 0001:000217C0       expnode.gettypecount
 0001:000216C4       expnode.init
 0001:000217F0       expnode.loadpos
 0001:000216E0       expnode.newtype
 0001:00021830       expnode.setpos
 0001:00021718       expnode.settype
 0001:0002173C       expnode.settypeunchecked
 0001:00021760       expnode.setunchecked
 0001:000220E8       expoper.dump
 0001:000220BC       expoper.get
 0001:00022000       expoper.init
 0001:00022094       expoper.join
 0001:0002202C       expoper.setoper
 0001:00022054       expoper.split
 0002:00002858       expoperinfo
 0002:000027B8       expopertxt
 0001:00022550       exprange.dump
 0001:00022524       exprange.get
 0001:000224FC       exprange.join
 0001:000224BC       exprange.split
 0001:00022A0C       expref.dump
 0001:000229F0       expref.get
 0001:000229CC       expref.join
 0001:000229A8       expref.split
 0001:00022CB0       expthis.dump
 0001:00022204       expunary.dump
 0001:000221E8       expunary.get
 0001:0002214C       expunary.init
 0001:000221C4       expunary.join
 0001:00022178       expunary.setoper
 0001:000221A0       expunary.split
 0002:00002950       expunaryinfo
 0002:00002834       expunarytxt
 0002:00000FF4       extcheck
 0002:00031F4C       extformat
 0002:00000FF0       extinput
 0001:00005A84       ExtractFileName
 0001:0003CCF0       e_alias
 0001:0003F288       e_all
 0001:0003ECE4       e_attribute
 0001:0003B8DC       e_check
 0001:0003E6CC       e_class
 0001:0003DC74       e_code_body
 0001:0003E8D8       e_compile
 0001:0003DA34       e_const
 0001:0003DBB8       e_enum
 0001:0003EC90       e_label
 0001:0003EB84       e_message
 0001:0003E544       e_module
 0001:0003E130       e_operator
 0001:0003E0A4       e_overload
 0001:0003DF28       e_override
 0001:0003E9BC       e_param
 0001:0003B8A4       e_part
 0001:0003E934       e_program
 0001:0003B9F4       e_refblock
 0001:0003B9A4       e_refexpr
 0001:0003BBDC       e_refimm
 0001:0003BC38       e_refsymbol
 0001:0003BCC8       e_refsymbol_from_typename
 0001:0003BAF8       e_reftype
 0001:0003BA38       e_reftype_check
 0001:0003DCDC       e_special
 0001:0003C19C       e_spec_array
 0001:0003BE4C       e_spec_enum
 0001:0003BF58       e_spec_float
 0001:0003BD8C       e_spec_ordinal
 0001:0003C788       e_spec_pointer
 0001:0003C15C       e_spec_procedure
 0001:0003C558       e_spec_record
 0001:0003C6B0       e_spec_set
 0001:0003C348       e_spec_string
 0002:00030080       e_spec_tab
 0001:0003CB28       e_spec_tag
 0001:0003DDBC       e_subprogram
 0001:0003ED1C       e_symbol
 0001:0003ECAC       e_template
 0001:0003ECC8       e_tparam
 0001:0003D724       e_type
 0001:0003CD10       e_type_derived
 0001:0003ED00       e_undef
 0001:0003CB70       e_var
 0001:000501E8       falign
 0001:0005025C       falignmod
 0001:00070E78       fcc32
 0001:0000BC98       fclose
 0001:0000C020       fcreate
 0001:0000CAE4       ferase
 0001:0000B9C4       ferror
 0001:0000C138       fexist
 0001:000502D4       ffillz
 0001:0000CCF4       file1
 0001:0000CC98       file1_init
 0001:0000B4E0       filedef
 0001:000198E4       filelist_additem
 0001:000198A8       filelist_discard
 0001:00019888       filelist_init
 0001:000198AC       filelist_newitem
 0002:0000803E       FileMode
 0002:00000BF4       filemon
 0001:00004820       FileTimeToLocalFileTime
 0001:00004828       FileTimeToSystemTime
 0001:00015200       filetxt
 0001:000119D8       fill
 0001:0000470C       fillbyte
 0001:0004F890       fillrange
 0001:00011C24       fillstr
 0001:00004718       fillstruct
 0001:000119FC       fillz
 0001:00060760       fillzsmall
 0002:000070F8       fill_nops
 0002:00006E20       fill_zeros
 0001:000705A8       Finalization
 0001:000084CC       Finalization
 0001:00057B3C       Finalization
 0001:0000424C       Finalization
 0001:0006E3E4       Finalization
 0001:00046054       Finalization
 0001:0006EF10       Finalization
 0001:0005DFC0       Finalization
 0001:00007E70       Finalization
 0001:000500A0       Finalization
 0001:0006D0C0       Finalization
 0001:0000B4B0       Finalization
 0001:00004770       Finalization
 0001:0000B4E8       Finalization
 0001:0001D9E4       Finalization
 0001:0004221C       Finalization
 0001:0000B520       Finalization
 0001:0001DD48       Finalization
 0001:00059DF0       Finalization
 0001:0006EB88       Finalization
 0001:0000B558       Finalization
 0001:00049510       Finalization
 0001:0006CB58       Finalization
 0001:00025C30       Finalization
 0001:0004EEF8       Finalization
 0001:0000B590       Finalization
 0001:0001DF0C       Finalization
 0001:00041B04       Finalization
 0001:00025FEC       Finalization
 0001:000269F4       Finalization
 0001:0001E424       Finalization
 0001:0006A0C0       Finalization
 0001:0002819C       Finalization
 0001:0004EC5C       Finalization
 0001:00014DDC       Finalization
 0001:0004A118       Finalization
 0001:0005D5E0       Finalization
 0001:0001A2C4       Finalization
 0001:0004A2E4       Finalization
 0001:0001F2E8       Finalization
 0001:0000B6C8       Finalization
 0001:0001A17C       Finalization
 0001:0003FB58       Finalization
 0001:00053F60       Finalization
 0001:0000B700       Finalization
 0001:0000B738       Finalization
 0001:0000B770       Finalization
 0001:0000B914       Finalization
 0001:0003F3B4       Finalization
 0001:0000B98C       Finalization
 0001:00014670       Finalization
 0001:00014638       Finalization
 0001:00014600       Finalization
 0001:000151D0       Finalization
 0001:00023424       Finalization
 0001:0000CCC4       Finalization
 0001:0000CE9C       Finalization
 0001:0000D910       Finalization
 0001:00004684       Finalization
 0001:0000E4C0       Finalization
 0001:0003B4F0       Finalization
 0001:0002BF90       Finalization
 0001:0005BB68       Finalization
 0001:00014444       Finalization
 0001:0000E538       Finalization
 0001:0003A29C       Finalization
 0001:00020DEC       Finalization
 0001:0000E640       Finalization
 0001:0000E6F4       Finalization
 0001:0000E794       Finalization
 0001:0000E7CC       Finalization
 0001:0004A3E8       Finalization
 0001:00004FE4       Finalization
 0001:0004A580       Finalization
 0001:00014120       Finalization
 0001:000140C4       Finalization
 0001:0000EC4C       Finalization
 0001:00060CC4       Finalization
 0001:000361BC       Finalization
 0001:0000F3C4       Finalization
 0001:00035FFC       Finalization
 0001:000192B8       Finalization
 0001:0004A5D4       Finalization
 0001:0004A60C       Finalization
 0001:0000F684       Finalization
 0001:000333EC       Finalization
 0001:000333B4       Finalization
 0001:0004A6C8       Finalization
 0001:00018D9C       Finalization
 0001:00004C1C       Finalization
 0001:000041DC       Finalization
 0001:0003238C       Finalization
 0001:00031EA4       Finalization
 0001:0004B788       Finalization
 0001:0000F7BC       Finalization
 0001:00018C20       Finalization
 0001:00031B54       Finalization
 0001:000319B8       Finalization
 0001:0000F7F4       Finalization
 0001:000316C4       Finalization
 0001:00004A30       Finalization
 0001:0005BF2C       Finalization
 0001:0000FB9C       Finalization
 0001:000049F8       Finalization
 0001:00030628       Finalization
 0001:00011918       Finalization
 0001:00004214       Finalization
 0001:0001403C       Finalization
 0001:0002D114       Finalization
 0001:000154B0       Finalization
 0001:00011A70       Finalization
 0001:00015538       Finalization
 0001:00015570       Finalization
 0001:00015610       Finalization
 0001:00013C38       Finalization
 0001:000136E0       Finalization
 0001:0002DB28       Finalization
 0001:0002FBFC       Finalization
 0001:00013400       Finalization
 0001:00050A40       Finalization
 0001:000133C8       Finalization
 0001:00013390       Finalization
 0001:000160D0       Finalization
 0001:0001241C       Finalization
 0001:00017388       Finalization
 0001:000124CC       Finalization
 0001:00012520       Finalization
 0001:00012610       Finalization
 0001:0002E58C       Finalization
 0001:0001285C       Finalization
 0001:00012C20       Finalization
 0001:000486A4       Finalization
 0001:000086B0       Finalization
 0001:000485C0       Finalization
 0001:000501B0       Finalization
 0001:0005D780       Finalization
 0001:0000B478       Finalization
 0001:00047F10       Finalization
 0001:00008D4C       Finalization
 0001:00070920       Finalization
 0001:0000982C       Finalization
 0001:00009864       Finalization
 0001:00047144       Finalization
 0001:00047094       Finalization
 0001:000467DC       Finalization
 0001:0005D810       Finalization
 0001:0000AA90       Finalization
 0001:00003F94       Finalization
 0001:00058FB4       Finalization
 0001:0000AA58       Finalization
 0001:0000AA20       Finalization
 0001:00046960       Finalization
 0001:00050564       Finalization
 0001:00059198       Finalization
 0001:0006E008       Finalization
 0001:00070958       Finalization
 0001:0005DB08       Finalization
 0001:00024D44       Finalization
 0001:0002B2D0       finalize_items
 0001:00004830       FindClose
 0001:0000A804       findclose
 0001:00013524       findfilename
 0001:0000A744       findfirst
 0001:00004838       FindFirstFile
 0001:00018080       findfirstsym
 0001:00003134       FindHInstance
 0001:00017B10       findident
 0001:00037C80       findinclass
 0001:00037D18       findinsymbol
 0001:00017BAC       findlink
 0001:00017D48       findlocal
 0001:00017DB0       findlocal0
 0001:0000A7C0       findnext
 0001:00004840       FindNextFile
 0001:000180CC       findnextsym
 0001:0000315C       FindResourceHInstance
 0001:00017CA4       findsym
 0001:00017FC4       findtfirst
 0001:00018034       findtnext
 0001:00017C2C       findwith
 0001:0000BC24       finit
 0002:00000C00       finited
 0001:000673B8       firstarg
 0002:00000BF0       firstfile
 0001:0005FAC0       firstreg
 0001:000706E8       flex_main
 0001:00007B82       FloatToDecimal
 0001:0001DA1C       floattostr
 0001:000075E6       FloatToText
 0001:000078AF       FloatToTextFmt
 0002:00008B30       flsem
 0002:00000C04       fmondisabled
 0001:00005FD0       FmtStr
 0001:00041DEC       followendid
 0001:00041D84       followendkw
 0001:00041CE4       followlex
 0001:0000C0B4       fopen
 0001:00005FBC       Format
 0001:00005C38       FormatBuf
 0001:00012070       formats
 0001:000120F0       formats2
 0001:000121B8       formats3
 0001:000122C8       formats4
 0001:0000C9C8       fpos
 0001:0000C7A8       fpossetget
 0001:00003CC0       FPower10
 0001:0000C340       fread
 0001:0000F75C       free
 0001:0004E088       freeavailregs
 0001:0004EC14       freetemp
 0001:000101F0       free_block
 0001:0000C938       fseek
 0001:0000CA58       fseekend
 0001:0000CB8C       fsize
 0001:0000A838       fsplit
 0001:0000A974       fsplitd
 0001:0000C564       fwrite
 0001:0006EF40       f_comp
 0001:0006EBC0       f_comp_init
 0001:000133F8       f_def
 0001:00070950       f_main
 0001:000705D8       f_param
 0001:00013CC4       galloc
 0001:00013C88       gcreate
 0002:000318E8       gendi
 0001:00056850       generate_alignsym
 0001:000571FC       generate_code
 0001:00053C34       generate_codeview_type
 0001:00051730       generate_st_array
 0001:00050E8C       generate_st_char
 0001:00051E40       generate_st_class
 0001:000520D8       generate_st_enum
 0001:00050DDC       generate_st_float
 0001:00050F84       generate_st_logical
 0001:000526A0       generate_st_message
 0001:000525AC       generate_st_pointer
 0001:000526B8       generate_st_procedure
 0001:00051A80       generate_st_record
 0001:00052338       generate_st_set
 0001:00050CE4       generate_st_signed
 0001:00051000       generate_st_string
 0001:00050F08       generate_st_tag
 0001:00051844       generate_st_uarray
 0001:00050D60       generate_st_unsigned
 0001:00051398       generate_st_ustring
 0001:00057140       generate_symbol_table
 0001:00055CEC       generate_type
 0001:0000AAC8       genkey
 0001:0004CDE4       genop
 0001:00062104       genop
 0001:000623BC       genops
 0001:0004DE7C       getaddr
 0001:0004DF20       getavailregs
 0001:00015EC8       getchar
 0001:00016704       getcharencoding
 0001:00004860       GetComputerName
 0001:00018810       getcontainer
 0001:00004858       GetCPInfo
 0001:00004868       GetCurrentProcess
 0001:00004870       GetCurrentThread
 0001:00004878       GetCurrentThreadId
 0001:0000F2D4       getcurrid
 0001:00008BC0       getdate
 0001:00008BEC       getdatim
 0001:000049A8       GetDesktopWindow
 0001:000134F0       getdirlist
 0001:00013438       getdirlistx
 0001:00004880       GetDriveType
 0001:00018E70       getenvvar
 0001:0004DE98       getfieldaddr
 0001:00004888       GetFileSize
 0001:00006594       GetFormatSettings
 0001:00008B94       getGMTdate
 0001:00008B68       getGMTtime
 0001:000173C0       gethash
 0001:0001332C       getkey
 0001:00004890       GetLastError
 0001:00041B3C       getlex
 0001:00041E8C       getlexid
 0001:00041FE4       getlexpos
 0001:0004208C       getlexposall
 0001:00016C58       getlexsym
 0001:00041ED8       getlextxt
 0001:00041EFC       getlexval
 0001:000060E4       GetLocaleChar
 0001:000048A0       GetLocaleInfo
 0001:00006098       GetLocaleStr
 0001:00004898       GetLocalTime
 0001:000048A8       GetModuleFileName
 0001:0001626C       getnum
 0001:0004E180       getopregs
 0001:000049B0       GetProcessWindowStation
 0001:0005D7B8       getrtattribsize
 0001:00018D68       getrtlproc
 0001:00018D10       getrtlprocid
 0001:00004A68       getstation
 0001:000048B0       GetStdHandle
 0001:000168B8       getstr
 0001:000049B8       GetSystemMetrics
 0001:000048B8       GetSystemTime
 0001:0004E808       gettarget
 0001:000049C0       GetThreadDesktop
 0001:000048C0       GetThreadLocale
 0001:000048C8       GetThreadTimes
 0001:000048D0       GetTickCount
 0001:00008B3C       gettime
 0001:0000E580       gettimer
 0001:00022D00       gettypedesc
 0001:000047A8       GetUserName
 0001:0004EB10       getvaraddr
 0001:000048D8       GetVersionEx
 0001:0001888C       getvisibility
 0001:00050B34       get_codeview_type_container
 0001:00019BC0       get_source_file_name
 0001:00013C70       ginit
 0001:0000B9BC       global
 0002:00008BA8       globalevent
 0001:000048E0       GlobalMemoryStatus
 0001:0000B94C       globalsignal
 0001:0000B958       globaltest
 0001:0000B978       global_init
 0001:0000B730       gost
 0001:0000B7A0       gosthash
 0001:0000B768       gost_2
 0002:00031D48       gpath
 0001:00013E98       grealloc
 0001:0005D7B0       g_util
 0002:00018938       hashlist
 0002:00000210       hextab
 0002:00017044       hinput
 0002:000084B4       HInstance
 0001:00004EC0       hiword
 0001:000091FC       hmstostr
 0001:00008A6C       hmstotime
 0002:00000FE8       hotkeyenable1
 0002:00000FEC       hotkeyenable2
 0002:00017040       houtput
 0002:00006C84       icallclasstxt
 0002:00004CD4       icondinstr
 0002:00004CB0       icondneg
 0002:00006828       idatatype
 0002:00006D50       iframereg
 0002:00006D44       iframesize
 0002:00006D54       iframetxt
 0001:00041FBC       ignorelex
 0002:00006644       iinstrinfo
 0002:00004220       iinstrtxt
 0001:0004A338       imm32a
 0001:0004A358       imm32add
 0001:0004A340       imm32ae
 0001:0004A368       imm32and
 0001:0004A330       imm32b
 0001:0004A374       imm32cmp2n
 0001:0004A348       imm32eq
 0001:0004A320       imm32ge
 0001:0004A328       imm32le
 0001:0004A31C       imm32load
 0001:0004A36C       imm32mul
 0001:0004A350       imm32nz
 0001:0004A360       imm32shr
 0001:0004A35C       imm32sub
 0001:0004A3CC       imm32toud
 0001:0004A3D8       imm32toui
 0001:0004A3E4       imm32touint
 0002:00004190       imm32_0
 0002:00004194       imm32_1
 0002:00004198       imm32_2
 0002:000041A8       imm32_31
 0002:0000419C       imm32_4
 0002:000041A0       imm32_5
 0002:000041A4       imm32_8
 0002:000041AC       imm32_lpointer32
 0002:000041B0       imm32_lstrisize32
 0001:00020354       imm_check
 0001:00020B14       imm_cmp
 0001:0001FF4C       imm_convarray
 0001:0001F320       imm_convord
 0001:0002096C       imm_diff
 0001:00020698       imm_get_length
 0001:00020814       imm_isfullset
 0001:00020720       imm_isnil
 0001:00020118       imm_settype
 0001:000208AC       imm_union
 0001:00011A1C       imovef
 0001:000047B0       ImpersonateNamedPipeClient
 0001:0000E5D4       initdelay
 0001:00018FD4       initenvvar
 0001:000048E8       InitializeCriticalSection
 0001:0004EC28       initinfo
 0001:00069DE0       initopertab
 0001:0002BD6C       initopertab
 0001:00018D8C       initrtl
 0001:00015DE4       initsrc
 0001:000364EC       initunarytab
 0001:0002BF08       initunarytab
 0001:0005D618       initvoltmetr
 0001:000047A0       inl32
 0002:00008044       Input
 0001:00012C58       inputkey
 0001:00004848       InterlockedDecrement
 0001:00004850       InterlockedIncrement
 0001:00004E14       inttoasc
 0002:00018108       inttype_machine_pointer
 0002:00018104       inttype_status
 0002:00018100       inttype_tag
 0002:00004F84       iopcodemap
 0002:00030308       iopcodemapindex
 0002:00004DC0       iopmodetxt
 0002:00004DB0       iprefixcode
 0002:00004D38       iprefixtxt
 0002:00006820       ircframe_action
 0002:00006824       ircframe_dest
 0002:00004C84       iregcode
 0002:00004B50       iregsize
 0002:00004B7C       iregtouni
 0002:00004BE0       iregtxt
 0001:000187D4       isancestor
 0001:000048F0       IsBadReadPtr
 0002:0000803C       IsConsole
 0001:00018798       isdescendant
 0001:0001862C       isfullvisible
 0001:000186B0       isincluded
 0001:000186E4       isincluded_or_ancestor
 0001:0001DEE8       islangattr
 0002:00008020       IsLibrary
 0002:0000803D       IsMultiThread
 0002:000000B0       isservice
 0001:0000989C       isUNC
 0001:00018720       isused
 0001:0003A4B4       is_procedure
 0001:0003A54C       is_var
 0001:0003A500       is_virtual_procedure
 0001:0000D948       itoa
 0001:00050668       itoax
 0002:00004BC4       iuniregtxt
 0002:00004BA8       iunitoreg
 0002:0000681C       ixframe_handler
 0001:0006B6A4       i_accept
 0001:0004AE0C       i_alloc
 0001:0006C430       i_allocpar
 0001:0006BD5C       i_asm
 0001:0006B708       i_block
 0001:0006A1B4       i_break
 0001:0006B25C       i_case
 0001:0006A188       i_cmd
 0001:0006D074       i_codegen
 0001:0005DAC0       i_compose_outtyp
 0001:0006C5DC       i_copypar
 0001:0005D91C       i_createcontext
 0001:0005DC64       i_create_rcframe
 0001:0005DB40       i_create_xframe
 0001:0006A808       i_delay
 0001:0006A7B8       i_discard
 0001:0005DBF4       i_dispatch_special
 0001:0006D024       i_estimate
 0001:0004AB9C       i_finduni
 0001:0006AA58       i_for
 0001:0004AF3C       i_free
 0001:0004AD44       i_freeuni
 0001:0006CF00       i_gen
 0001:00069100       i_gen
 0001:00060C3C       i_gen_adjust_rta_position
 0001:00067314       i_gen_aggregate
 0001:00068AD8       i_gen_attrib
 0001:0006CAA0       i_gen_block
 0001:00067ED4       i_gen_call
 0001:00068F4C       i_gen_callspec
 0001:00067470       i_gen_call_subprogram
 0001:0006CD14       i_gen_compile
 0001:00066B7C       i_gen_component
 0001:0005E83C       i_gen_compose_pointer
 0001:0005E3C8       i_gen_compute_rtattrib
 0001:00069490       i_gen_cond
 0001:00068840       i_gen_deref
 0001:0005F97C       i_gen_div_reg
 0001:0006C668       i_gen_entry
 0001:0006C960       i_gen_exit
 0001:00069330       i_gen_expr
 0001:000609DC       i_gen_fillz_dynamic
 0001:00060848       i_gen_fillz_static
 0001:00067104       i_gen_imm
 0001:00067F34       i_gen_index
 0001:0005E9A4       i_gen_lea
 0001:0005ED70       i_gen_loadeax
 0001:0005EE70       i_gen_loadimm8cl
 0001:0005E510       i_gen_loadpointer
 0001:0005DFF8       i_gen_loadreg
 0001:0005EFFC       i_gen_loadtemp
 0001:0005F19C       i_gen_load_rtattrib_addr
 0001:0005F23C       i_gen_load_rtattrib_value
 0001:00064398       i_gen_load_string_and_last
 0001:00062740       i_gen_logical_chain
 0001:0005F69C       i_gen_logical_jump
 0001:00068EBC       i_gen_message_send
 0001:00060130       i_gen_move_array
 0001:0005FD50       i_gen_move_static
 0001:00060590       i_gen_movsd_array
 0001:0006040C       i_gen_movsd_static
 0001:0005F7D8       i_gen_mul_reg
 0001:00066588       i_gen_operator
 0001:00065EDC       i_gen_op_assign
 0001:00062BA8       i_gen_op_assign_logical
 0001:00065C2C       i_gen_op_assign_pointer
 0001:000652B4       i_gen_op_assign_string
 0001:00064314       i_gen_op_compare_array
 0001:00063F6C       i_gen_op_compare_binary
 0001:00062CC8       i_gen_op_compare_ordinal
 0001:00062DD0       i_gen_op_compare_pointer
 0001:00064340       i_gen_op_compare_record
 0001:0006436C       i_gen_op_compare_set
 0001:000637A4       i_gen_op_compare_string
 0001:00064D4C       i_gen_op_concat_string
 0001:00062490       i_gen_op_integer
 0001:00061C7C       i_gen_op_integer_div_mod
 0001:00061450       i_gen_op_integer_mul
 0001:000656A0       i_gen_op_in_set
 0001:00062C6C       i_gen_op_logical_and_or
 0001:00062C9C       i_gen_op_logical_xor
 0001:00063168       i_gen_op_order_string
 0001:00065600       i_gen_op_set
 0001:00060088       i_gen_pop_static
 0001:0005F628       i_gen_pushnil
 0001:0005F330       i_gen_pushstack
 0001:0005FA38       i_gen_reduceop
 0001:00068418       i_gen_ref
 0001:000668AC       i_gen_rtattrib
 0001:00060BD4       i_gen_subprogram_address
 0001:000690C0       i_gen_this
 0001:0005F280       i_gen_this_addr
 0001:00068D14       i_gen_typecast
 0001:00066670       i_gen_unary
 0001:0004EE18       i_getconvention
 0001:0004EEC4       i_getstackframe
 0001:0006A308       i_goto
 0001:0004EC94       i_idtoconvention
 0001:0004EE4C       i_idtostackframe
 0001:0006A828       i_if
 0001:0006CB90       i_instance
 0001:0006BBEC       i_label
 0001:00060E3C       i_load
 0001:00061224       i_load_binary
 0001:00061334       i_load_binary_pointer
 0001:000697EC       i_load_expr
 0001:00069C48       i_load_length
 0001:000696F8       i_load_message_code
 0001:00069AAC       i_load_rtattrib
 0001:0006994C       i_load_subexpr
 0001:0006A950       i_loop
 0001:0006A43C       i_new
 0001:0005D974       i_newcontext
 0001:0004A958       i_newmapping
 0001:0006C1B0       i_node
 0001:0004ECE4       i_prepare
 0001:0005DE64       i_process_rcframe
 0001:0006A274       i_raise
 0001:0004B6BC       i_refresh
 0001:0004B37C       i_retrieve
 0001:0006A228       i_return
 0001:0006A2E8       i_send
 0001:0006A138       i_sequence
 0001:0004ED14       i_setconvention
 0001:0004A9D8       i_setmapping
 0001:0005DAA4       i_setoutpref
 0001:0005DA7C       i_setrpref
 0001:0004EE9C       i_setstackframe
 0001:0005DBCC       i_set_handler
 0001:0005DCF8       i_set_rcframe_action
 0001:0006BED4       i_simple
 0001:0004AEC4       i_use
 0001:0004A9FC       i_useuni
 0001:0006B17C       i_while
 0002:00008C40       i_win32handle
 0001:00012C50       kbd0
 0001:0000B588       kbd0def
 0001:00012894       kbd0_init
 0001:000133C0       kbd1
 0001:0001336C       kbd1_init
 0001:000146A0       kbdkey
 0002:00001010       kbd_debug
 0002:00000FD8       keyboardAT
 0002:00000FDC       keybuf
 0002:00000FFC       keybufbeg
 0002:000170C8       keybuffer
 0002:00001000       keybuflen
 0002:00000FE0       keyin
 0001:0001289C       keypressed
 0002:00000FE4       keystate
 0001:0000A5DC       korekce
 0001:00008160       la
 0001:00008140       lae
 0001:000084FC       larit032
 0001:00005A34       LastDelimiter
 0002:00000EC8       lasterror
 0002:00000FF8       lastkeytime
 0001:0000B6F8       lbit32
 0001:00008298       ldiv
 0002:0000024C       LeadBytes
 0001:000048F8       LeaveCriticalSection
 0001:00011C6C       lenstr
 0001:00011CDC       lenstrc
 0001:00011D50       lenstrL
 0002:00000E0C       lentab
 0001:00045E18       lexposblocktostr
 0002:00002F48       lexsimilar
 0001:00021494       lextobinaryoper
 0001:00021628       lextounaryoper
 0002:00002F0C       lextxt
 0002:00030158       lex_keywords
 0002:00030144       lex_operator
 0002:00000008       LibModuleList
 0001:000084B0       lineg
 0001:0005A124       linkimageelf.create
 0001:0005BB5C       linkimageelf.info
 0001:0005A0F8       linkimageelf.init
 0001:0005C250       linkimagepe.create
 0001:0005D5D4       linkimagepe.info
 0001:0005BF78       linkimagepe.init
 0001:00057DA0       linkresIA32.assignvaraddr
 0001:00057EB8       linkresIA32.buildtypedesc
 0001:00058B10       linkresIA32.checkseg
 0001:00058AC0       linkresIA32.getaddrbase
 0001:00058AE4       linkresIA32.getentrypoint
 0001:00058B38       linkresIA32.getsegbase
 0001:00058B64       linkresIA32.getsegtotal
 0001:00058AB4       linkresIA32.info
 0001:00057B74       linkresIA32.init
 0001:00058504       linkresIA32.link
 0001:00058260       linkresIA32.resolvereloc
 0001:00057C1C       linkresIA32.trace
 0001:00058D48       linkresIA32.writesegment
 0001:00059170       linkresIA32_Linux.getindirect
 0001:0005914C       linkresIA32_Linux.linkimport
 0001:0005BF04       linkresIA32_Win32.getindirect
 0001:0005BD00       linkresIA32_Win32.linkimport
 0001:000500D8       linkresolver.init
 0001:0000DC64       linttostr
 0001:000173FC       LL
 0001:00008180       llen
 0001:000083B4       lmod
 0001:000081A8       lmul
 0001:000084A0       lneg
 0001:0000DB74       lnumtostr
 0001:000140FC       LnXP1
 0001:0000EEA4       loader
 0001:00003178       LoadResourceModule
 0001:00003414       LoadResString
 0001:00068A4C       loadrtattrib
 0001:000049C8       LoadString
 0001:0001FDB4       load_image
 0001:0001FD00       load_sysstr
 0001:0001FBEC       load_uniint
 0001:0001FCB8       load_unilogical
 0001:0001FC40       load_unireal
 0001:0004E850       localresolve
 0002:00000E88       locvarcount
 0002:00000E8C       locvarinit
 0002:000085F4       loflw
 0002:00000C0C       log
 0001:0000CECC       logr
 0001:0000CCFC       lograrray
 0002:00008BB8       logrsem
 0002:000084F4       LongDateFormat
 0002:00008588       LongDayNames
 0002:0000853C       LongMonthNames
 0002:00008508       LongTimeFormat
 0001:00004F8C       longtohex
 0001:00041F68       looklex
 0001:00011BEC       lowcasestr
 0001:00004EC4       loword
 0001:00017448       LR
 0001:00008070       lshl1
 0001:000080A4       lshlb
 0001:000080F8       lshr
 0001:00008088       lshr1
 0001:000080D0       lshrb
 0001:000153D8       lstbegi
 0002:00031F48       lstcfg
 0001:000152EC       lstclose
 0002:00031F49       lstdm
 0001:000153E4       lstendi
 0001:00015208       lstopen
 0001:00015334       lstset
 0001:0001534C       lstwrite
 0001:000153F0       lstwritei
 0001:00008014       lsub
 0001:0006E310       l_link
 0001:0000F824       m2
 0002:00001080       machine_architecture
 0002:00000E6C       mainhandle
 0002:0000801C       MainInstance
 0001:00049D70       make_special
 0001:0005070C       map_automatic_variable
 0001:000505DC       map_end_segment
 0001:00050984       map_end_subprogram
 0001:00050A38       map_import_end_library
 0001:000509CC       map_import_procedure
 0001:0005098C       map_import_start_library
 0001:00055374       map_source_file_to_code
 0001:00055774       map_source_file_to_module
 0001:0005059C       map_start_segment
 0001:00050794       map_start_subprogram
 0001:000505E4       map_static_variable
 0001:000507F8       map_subprogram_lineinfo
 0001:0006E11C       mark
 0001:0006E040       marktype
 0001:00014150       Math
 0001:00004758       maxi
 0001:00004768       maxl
 0001:00004748       maxw
 0001:00011AA0       mbl32
 0001:0000B550       md5
 0001:0000F7EC       mem0
 0001:0000E7C4       mem1
 0001:0001406C       mem2
 0002:00000EA0       memblcount
 0002:00010FE8       memcs
 0002:00000EA8       memdelta
 0002:00000E90       memerr
 0002:00000E94       memerrcount
 0002:00000EA4       meminit
 0002:00000EAC       memlock
 0001:00011948       memmgr
 0001:000102D0       memmgr_alloc
 0001:00010594       memmgr_free
 0001:00010A10       memmgr_init
 0001:000110F4       memmgr_snapshot
 0001:000110BC       memmgr_start_defragmentation
 0002:00000E98       memproc
 0002:00011038       memstat
 0001:0000F79C       memtotal
 0001:0000FBD8       memvm
 0001:000049D0       MessageBox
 0001:00004A60       Messages
 0002:00002AB8       metacmdtab
 0002:000300F4       metatab
 0001:00004750       mini
 0001:00004760       minl
 0001:00004740       minw
 0001:0000A4CC       mkxdir
 0002:000318EC       modimpl
 0002:000319EC       modlist
 0002:000084A8       ModuleIsLib
 0002:0000000C       ModuleUnloadList
 0001:000017B4       Move
 0001:00004700       movebyte
 0001:00011968       movef
 0001:00011990       mover
 0001:000119B4       movex
 0001:0005E91C       movreg
 0002:00000E9C       mpactive
 0002:00031E48       mpath
 0001:0000E570       msectoclk
 0001:0000F3F4       multi
 0001:0000F2F4       multi_init
 0001:00004C54       mulx
 0001:00005014       nconv0
 0001:0000E4F0       nconv1
 0002:000084E9       NegCurrFormat
 0001:00035CA8       newdefaultord
 0001:00035D64       newdefaultptr
 0001:00035D28       newdefaulttag
 0001:00015810       newfile
 0001:00021128       newnode
 0001:0002DCC0       newnode
 0001:000213C8       newnodex
 0001:0004B7E8       newopreg
 0001:0004B998       newopstack
 0001:0004B944       newoptemp
 0001:0004B8FC       newopuse
 0001:00017860       newsym
 0001:0004E6E4       newtarget
 0001:000179C4       newtmp
 0001:000213F4       newtree
 0001:00035C48       newunitype
 0001:00067404       nextarg
 0001:0005FB2C       nextreg
 0001:0000A148       nfilename
 0002:00002790       nodeconcatkindtxt
 0002:0002ECF8       nodepool
 0002:00002964       nodesize
 0002:00032097       noruntime
 0001:00011AA8       npos
 0001:0001A1E0       nptostr
 0002:000000B4       null
 0002:000083EC       Null
 0002:000029B4       nulllist
 0001:0004B7C0       nullop
 0002:00002F34       nullpos
 0002:00002114       nulltype
 0001:0000DB4C       numlength
 0001:00042394       numtofilename
 0001:00019B04       numtofilename
 0001:00009894       objref
 0001:00002DDC       OleStrToStrVar
 0002:00003590       ooperinfo
 0002:00006894       op0
 0002:000072FC       op2cc
 0001:000049D8       OpenDesktop
 0001:00015648       opengen
 0001:000049E0       OpenWindowStation
 0002:0002EDB0       opertab
 0002:00030AC0       opertab
 0001:0004E318       opregtomem
 0001:00029C60       opt
 0001:0002877C       opt
 0001:0004C7FC       optostr
 0002:000068C4       op_0
 0002:00006AA4       op_0000FFFF
 0002:000068F4       op_0_16bit
 0002:00006924       op_0_32bit
 0002:00006954       op_1
 0002:00006A44       op_16
 0002:00006984       op_2
 0002:000069B4       op_3
 0002:00006A74       op_31
 0002:000069E4       op_7
 0002:00006A14       op_8
 0002:00006B34       op_ah
 0002:00006B64       op_ax_
 0002:00006B94       op_eax_
 0002:00006C24       op_ebp
 0002:00006BC4       op_ecx
 0002:00006BF4       op_edx
 0002:00006C54       op_esp
 0002:00006AD4       op_FFFFFFFF
 0002:00006B04       op_lstrisize32
 0001:00004C4C       os
 0002:00017F78       os
 0001:00060CFC       oset11
 0001:00060D30       oset1s
 0001:000281D4       oset1s
 0001:00028290       osets1
 0001:00060D80       osets1
 0001:00060DD0       osetss
 0001:00028224       osetss
 0002:000084D8       osver
 0002:00001070       os_family
 0001:00004B00       os_init
 0002:00008210       Output
 0001:000046B4       param0
 0001:00001860       ParamCount
 0001:000018C0       ParamStr
 0001:0006EF48       param_help
 0001:0006F790       param_parse
 0001:00004284       parbegin
 0001:00004404       parget
 0001:0000A1E0       pathfile
 0002:00019130       pathlist
 0001:00004900       PeekConsoleInput
 0001:0000AA88       perfdef
 0001:0000AAC0       perfmon0
 0002:000071F8       pesign
 0001:00015D28       popfile
 0002:00031C48       ppath
 0001:000480F4       prefix_var
 0001:000486DC       prepare_loop_context
 0001:0006A0F8       prepare_loop_context
 0001:0000E678       procenta
 0002:000000AC       progmode
 0002:00003D4C       prvtypename
 0002:00003DB8       prvtypetxt
 0001:00033DD0       p_alias
 0001:0006D310       p_asml
 0001:00031EDC       p_attribute
 0001:000347A8       p_body
 0001:00035AD8       p_compfile
 0001:00035DE8       p_compinit
 0001:00035ED0       p_compunit
 0001:00033698       p_const
 0001:000357C8       p_declare
 0001:00032744       p_def_array
 0001:000324A0       p_def_enum
 0001:00032580       p_def_float
 0001:00032E4C       p_def_message
 0001:000323F8       p_def_modular
 0001:000323C4       p_def_ordinal
 0001:000325BC       p_def_pointer
 0001:00032D58       p_def_procedure
 0001:00032470       p_def_range
 0001:000329D0       p_def_record
 0001:000326EC       p_def_set
 0001:0003286C       p_def_string
 0001:00032EAC       p_def_tag
 0001:00032E7C       p_def_task
 0001:0003483C       p_end_ident
 0001:00034358       p_extend
 0001:00031DD4       p_genlocvar
 0001:00031E34       p_genlocvar_override
 0001:00031CF8       p_gensinglelocvar
 0001:0006DB18       p_instr
 0001:00033F84       p_label
 0001:00035B60       p_loadmodule
 0001:0003539C       p_message
 0001:00041920       p_metacmd
 0001:00040B64       p_meta_and_then
 0001:0004157C       p_meta_declared
 0001:000414EC       p_meta_display
 0001:00041214       p_meta_else
 0001:00041200       p_meta_elsif
 0001:00041318       p_meta_end
 0001:00041228       p_meta_end_syntax
 0001:0004089C       p_meta_environment
 0001:000413A8       p_meta_error
 0001:000411EC       p_meta_if
 0001:00040CC8       p_meta_if_cont
 0001:00040290       p_meta_include
 0001:00040C54       p_meta_metaerr
 0001:000405A0       p_meta_option
 0001:00040BDC       p_meta_or_else
 0001:00040788       p_meta_pragma
 0001:0004039C       p_meta_separate
 0001:00040994       p_meta_syntax
 0001:0004162C       p_meta_template
 0001:000418EC       p_meta_unknown
 0001:00041450       p_meta_warning
 0001:00035150       p_module
 0001:0006D53C       p_operand
 0001:00034EEC       p_overload
 0001:00034CE4       p_override
 0001:00032A20       p_paramlist
 0001:00040150       p_pragma_assign
 0001:0003FEB8       p_pragma_convention
 0001:0003FC88       p_pragma_import
 0001:00040004       p_pragma_stackframe
 0001:000419FC       p_preprocessor
 0001:000355C0       p_private
 0001:00033294       p_private_extension
 0001:0003553C       p_program
 0001:000356DC       p_protected
 0001:0003FC2C       p_skipunknown
 0001:000328F0       p_slozky
 0001:00034728       p_special
 0001:000348B0       p_subprogram
 0001:00033424       p_type
 0001:00032EC8       p_typedef
 0001:000330B8       p_typeedef
 0001:000332C0       p_typeidef
 0001:00033384       p_typename
 0001:000339BC       p_var
 0001:00031B8C       p_varaccess
 0001:00034058       p_with_module
 0002:00031F4A       quiet
 0002:00008038       RandSeed
 0001:0000C264       read0
 0001:00004908       ReadConsoleInput
 0001:00004910       ReadFile
 0001:00012BE8       readkey
 0001:0000E72C       realloc
 0001:0000DDF8       realtostr
 0001:00046500       ref1.setexpr
 0001:00046614       refblock.isset
 0001:000464D4       refexpr.errpos
 0001:00046488       refexpr.getcexpr
 0001:0004646C       refexpr.isset
 0001:000464B8       refexpr.setexpr
 0001:0004671C       refimm.getimm
 0001:0004674C       refimm.isset
 0001:0004B5B0       refreshreg
 0001:000466CC       refsymbol.errpos
 0001:00046668       refsymbol.getcsym
 0001:0004664C       refsymbol.getusym
 0001:00046698       refsymbol.isset
 0001:00046630       refsymbol.setsym
 0001:000465C4       reftype.errpos
 0001:0004653C       reftype.getctype
 0001:00046520       reftype.getutype
 0001:00046590       reftype.isset
 0001:0004656C       reftype.settype
 0001:0004E130       regcount
 0001:00003394       RegisterModule
 0001:00050A78       register_codeview_dump
 0001:00004918       ReleaseMutex
 0001:000284CC       reorder
 0001:0000D028       report
 0001:0000EC84       report
 0001:000455D0       report
 0002:00008C48       reportcs
 0001:0000D784       reportexception
 0001:0000D758       reportfatal
 0002:00008C94       reportname
 0001:0000EDC8       report_start
 0001:0000EE38       report_stop
 0001:0003B81C       report_unused
 0001:0004DF84       reserveavailregs
 0001:0004E4C4       resizereg
 0001:000420BC       resumelex
 0001:000047B8       RevertToSelf
 0001:0000DA24       ritoa
 0001:000174E0       RL
 0001:0000BB00       rmfromlist
 0001:0000B5C0       rng
 0001:00017494       RR
 0002:00002124       rtattribtxt
 0002:0000145C       rtlproctab
 0002:0001813C       rtltab
 0001:00012454       runerr
 0002:000320A8       saveexit
 0001:0004E4FC       saveregs
 0002:000003F0       sbox
 0002:00006E14       scale
 0001:000161AC       scanlex
 0001:00014C80       sctouc
 0002:00000EB8       scurr
 0002:000012A4       sdbase_host
 0002:000011DC       sdbase_linux
 0002:00001114       sdbase_win32
 0001:0006D14C       searchasm
 0001:0006D280       searchasmlabel
 0001:00018DD4       searchenv
 0001:00016108       searchlex
 0001:0003FB90       searchmeta
 0001:00017E10       searcht
 0001:00019F24       search_path
 0001:0001006C       search_small_block
 0002:00008DC4       sec
 0001:0002BFC8       selectusage
 0001:0000F43C       seminitex
 0001:0000F4AC       semlock
 0001:0000F558       semunlock
 0001:0004E420       separateopreg
 0001:0000EC7C       service
 0001:0001A2FC       set111
 0001:0001A45C       set11s
 0001:0001A398       set1s1
 0001:0001A520       set1ss
 0001:0001A89C       setcopy
 0001:000160B8       setdoeoln
 0001:00004920       SetErrorMode
 0001:0001860C       setevaluated
 0001:00004928       SetEvent
 0001:0004DEFC       setfield
 0001:00004930       SetFilePointer
 0001:000210F4       setid
 0001:00018EBC       setint
 0001:00041E6C       setlex
 0001:00041EB4       setlexid
 0001:00041F28       setlexval
 0001:00018EF8       setlogical
 0001:000189BC       setoption
 0001:0005D8BC       setouttyp
 0001:0004DD30       setpos
 0001:000049E8       SetProcessWindowStation
 0001:0004B000       setresult
 0001:0005D848       setrparams
 0001:00018C58       setrtlproc
 0001:0001A608       sets11
 0001:0001A7B4       sets1s
 0001:0001A6CC       setss1
 0001:00018F34       setstr
 0001:0004E750       settarget
 0001:000451AC       settext
 0001:000049F0       SetThreadDesktop
 0001:00004938       SetThreadPriority
 0001:0001A8DC       settypecomptab
 0001:0004EAC8       setvaraddr
 0001:0000F82C       setvmtype
 0001:00018ABC       setwarning
 0001:00012558       setworkdir
 0001:00050B04       set_codeview_dump
 0001:0006B6E0       set_end_target
 0001:0000A0D8       sfilename
 0002:00000EB0       sfirst
 0001:00011F24       sform
 0001:00011F8C       sformstr
 0001:0000DB24       sgnx
 0002:0000010C       sharemode
 0001:0004B9C0       shiftop
 0001:0004BA00       shiftopindex
 0001:0004C0EC       shoda
 0002:000084F0       ShortDateFormat
 0002:0000856C       ShortDayNames
 0002:0000850C       ShortMonthNames
 0002:00008504       ShortTimeFormat
 0001:00006A74       ShowException
 0001:0005D67C       showvoltmetr
 0001:0000B944       sifra
 0001:00029574       simplify
 0001:0000DAAC       sitoa
 0002:00000EB4       slast
 0001:00004940       Sleep
 0002:000317E8       sname
 0001:0000FD14       space_discard
 0001:0000FC34       space_new
 0001:0000A28C       spathname
 0002:000174FC       src
 0001:0000F114       startthread
 0002:00017F80       stg
 0001:0006A35C       storertattrib
 0001:0001F880       store_array
 0001:0001F8D0       store_array_item
 0001:0001F918       store_array_items_range
 0001:0001F964       store_array_others
 0001:0001F4A4       store_imm
 0001:0001F3DC       store_nil
 0001:0001F384       store_ordinal
 0001:0001F3AC       store_real
 0001:0001F9A8       store_record
 0001:0001F9DC       store_record_item
 0001:0001FAF8       store_record_others
 0001:0001FB3C       store_set
 0001:0001FB64       store_set_item
 0001:0001FBA4       store_set_items_range
 0001:0001F3EC       store_string
 0001:0001F424       store_sysstr
 0001:00007384       StrByteType
 0001:0001244C       strg
 0001:0001A2F4       strgs
 0001:00002E00       StringToOleStr
 0001:00005B10       StrLCopy
 0001:00005ABC       StrLen
 0001:00005F88       StrLFmt
 0001:00005B44       StrLIComp
 0001:00005AD4       StrMove
 0001:00005BAC       StrPas
 0001:0001A1C4       StrPas
 0001:00005B8C       StrScan
 0001:00005A1C       StrToIntDef
 0002:000071FC       stub
 0001:0000E804       svc_connectuser
 0001:0000EC04       svc_disconnectuser
 0002:00000E60       svc_error
 0002:00000E5C       svc_mode
 0002:00000E64       svc_pipe
 0002:00000E68       svc_pipemsg
 0002:00008C34       svc_sdesktop
 0002:00008C30       svc_swinsta
 0002:00008C3C       svc_udesktop
 0002:00008C38       svc_uwinsta
 0001:00046780       symbol.setpos
 0002:00002A28       symdeclaredtxt
 0002:00002A38       symevaltxt
 0001:0001831C       symqident
 0002:000013F0       symsize
 0002:00002F50       symtab1
 0002:00003094       symtab2
 0001:0000F6B4       sync
 0001:0000F3FC       syncinit
 0002:00008D98       syncstats
 0002:00032098       syntaxcheckonly
 0002:00031FD0       sysdesc
 0002:0001801C       sysdesc
 0001:000010C0       SysFreeMem
 0001:00000F38       SysGetMem
 0001:0000420C       SysInit
 0002:000085A4       SysLocale
 0002:000000C8       syspath
 0001:00001434       SysReallocMem
 0001:00003FF4       System
 0001:00008CE4       systimetodate
 0001:00008D18       systimetotime
 0001:00007FB0       SysUtils
 0002:0000211C       tattrclasstxt
 0002:00002134       tattrtab
 0001:0006DDFC       tcpuintel32.p_asm
 0001:0004F864       tcpuspec32.bytestobits
 0001:0004F760       tcpuspec32.forcelayoutrecitem
 0001:0004F550       tcpuspec32.getdefaultord
 0001:0004F6A8       tcpuspec32.getdefaultreal
 0001:0004FEF8       tcpuspec32.getimmstoragesize
 0001:0004EFE8       tcpuspec32.getordparams1
 0001:0004F128       tcpuspec32.getordparams2
 0001:0004F7D8       tcpuspec32.getptrsize
 0001:0004F1E0       tcpuspec32.getrealparams
 0001:0004F834       tcpuspec32.getrtattribsize
 0001:0004F470       tcpuspec32.getsetparams
 0001:0004F428       tcpuspec32.getstrmaxhval
 0001:0004F338       tcpuspec32.getstrparams
 0001:0004F958       tcpuspec32.immtobinary
 0001:0004EF30       tcpuspec32.init
 0001:0004F6EC       tcpuspec32.layoutrecitem
 0001:0004FFCC       tcpuspec32.setstackframe
 0001:0005006C       tcpuspec32.unidatatohexstr
 0002:000041B4       tdebugtagtypetxt
 0001:00031A28       tdecllist.add
 0001:00031A0C       tdecllist.empty
 0001:00031A94       tdecllist.get
 0001:000319F0       tdecllist.init
 0001:00031AD8       tdecllist.parse
 0001:000592CC       tdwarfobject.add_byte
 0001:0005939C       tdwarfobject.add_long
 0001:000594A8       tdwarfobject.add_sleb128
 0001:00059550       tdwarfobject.add_string
 0001:00059434       tdwarfobject.add_uleb128
 0001:0005932C       tdwarfobject.add_word
 0001:00059210       tdwarfobject.fwrite
 0001:000591F4       tdwarfobject.getlen
 0001:000591D0       tdwarfobject.init
 0001:00059234       tdwarfobject.insert_data
 0001:00059408       tdwarfobject.set_long
 0001:000595E0       td_info.init
 0001:00059678       td_line.addfilename
 0001:000595FC       td_line.init
 0001:000597D0       td_line.lne_endsequence
 0002:00017F98       temp_counter
 0001:00004948       TerminateThread
 0001:00045210       terror.init
 0001:000453D4       terror.loadpos
 0001:0004540C       terror.loadpos2
 0001:00045458       terror.loadtextpos
 0001:0004522C       terror.newmsg
 0001:00045608       terror.printerrors
 0001:0004555C       terror.raiseerror
 0001:0004557C       terror.resumeerror
 0001:000452B0       terror.seterror
 0001:0004538C       terror.sethint
 0001:00045318       terror.setmsg
 0001:0004534C       terror.setparam
 0001:00045514       terror.setpos
 0001:000452EC       terror.setwarning
 0001:000455B4       terror.testerror
 0002:0000803F       Test8086
 0002:00008040       Test8087
 0001:0001BFB4       test_aggregate
 0001:0001BEF0       test_partial
 0001:0001BD04       test_string_component
 0001:0001BD90       test_string_string
 0001:0001BF34       test_unchecked
 0001:0001BE04       test_uniarray
 0001:00007D6F       TextToFloat
 0001:000192FC       tfileitem.init
 0001:00019384       tfileitem.split_filename
 0002:000000BC       tform
 0002:000084EA       ThousandSeparator
 0002:00000E84       threaddebug
 0002:000084FC       TimeAMString
 0002:00008500       TimePMString
 0001:0000E670       timer0
 0001:0000E638       timer0_init
 0002:000084F8       TimeSeparator
 0001:00008AC0       timetohms
 0001:000094B4       timetostr
 0001:00014588       timmlist.add
 0001:00014540       timmlist.init
 0002:000084AC       TlsIndex
 0002:FFF7E039       TlsLast
 0001:00001E74       TObject.ClassName
 0001:00001F50       TObject.DefaultHandler
 0001:00001EC4       TObject.Destroy
 0001:00001ED0       TObject.Free
 0001:00001E9C       TObject.FreeInstance
 0001:00001EDC       TObject.InitInstance
 0001:00001E88       TObject.NewInstance
 0001:00001F48       TObject.SafeCallException
 0002:00003C04       toptiontab
 0001:00046450       tosspecific.init
 0001:00059038       tosspecLinux.importproc
 0001:000590AC       tosspecLinux.setconvention
 0001:0005BBEC       tosspecWin32.importproc
 0001:0005BC60       tosspecWin32.setconvention
 0001:00048374       trace
 0001:00048344       tracecheck_adjust
 0001:00048278       tracecheck_entry
 0001:000482E4       tracecheck_exit
 0001:000480C4       tracecheck_init
 0001:00048314       traceop_adjust
 0001:00048120       traceop_call_special
 0001:00048248       traceop_entry
 0001:000482A8       traceop_exit
 0001:00047F48       traceop_init
 0001:00011E14       trimstrD
 0002:00004070       tspectypeid
 0002:00004060       tspectypetxt
 0001:00059F9C       tstab.add
 0001:0005A054       tstab.entrysize
 0001:0005A06C       tstab.fwrite
 0001:00059F78       tstab.init
 0001:00050460       tstrtab.add
 0001:00050540       tstrtab.fwrite
 0001:00050524       tstrtab.getlen
 0001:000503F4       tstrtab.getstr
 0001:00050318       tstrtab.init
 0001:0005035C       tstrtab.search
 0001:000144DC       tsymlist.add
 0001:00014494       tsymlist.init
 0001:00059E70       tsymtab.add
 0001:00059F38       tsymtab.entrysize
 0001:00059F50       tsymtab.fwrite
 0001:00059E3C       tsymtab.init
 0001:00014EC4       txtclose
 0001:00015188       txtflush
 0001:00014E14       txtopen
 0001:00015050       txtwrite
 0001:00014F14       txtwritetxt
 0002:00025BA4       typecheck
 0001:0001B504       typeview.compat
 0001:0001B544       typeview.evaluated
 0001:0001B5F8       typeview.getancestor
 0001:0001B67C       typeview.getbase
 0001:0001B754       typeview.getbits
 0001:0001B5C8       typeview.getctype
 0001:0001B9B8       typeview.gethval
 0001:0001B7BC       typeview.getintaritm
 0001:0001BA20       typeview.getlength
 0001:0001B950       typeview.getlval
 0001:0001B900       typeview.getpaccess
 0001:0001B8B0       typeview.getpattrib
 0001:0001B860       typeview.getpbase
 0001:0001B810       typeview.getpclass
 0001:0001B6F0       typeview.getrange
 0001:0001BABC       typeview.getsize
 0001:0001B5AC       typeview.getutype
 0001:0001BA8C       typeview.hassize
 0001:0001B3D4       typeview.init
 0001:0001B448       typeview.initaggregate
 0001:0001B420       typeview.initfull
 0001:0001B400       typeview.initunchecked
 0001:0001B4C4       typeview.isclass
 0001:0001BB00       typeview.setunchecked
 0001:0001B478       typeview.stype
 0001:0001B574       typeview.tagged
 0001:0001B460       typeview.tview
 0001:0003B774       type_setalign
 0001:0003B688       type_setsize
 0001:0001D530       t_ancestor
 0001:0001D47C       t_binaryidentical
 0001:0001D5E0       t_checktype
 0001:00054208       t_codeview.add_code
 0001:00054524       t_codeview.add_local_variable
 0001:000540D8       t_codeview.add_module
 0001:000543EC       t_codeview.add_type
 0001:00054638       t_codeview.add_variable
 0001:00057454       t_codeview.dump
 0001:00057264       t_codeview.generate
 0001:00053FA4       t_codeview.init
 0001:00057AA8       t_codeview.optimize
 0001:00054064       t_codeview.prepare
 0001:000579D0       t_codeview.register_segment
 0001:000547A0       t_codeview.remove_code
 0001:00054198       t_codeview.remove_module
 0001:0005480C       t_codeview.trace_module
 0001:0001D3FC       t_compatible
 0001:0001BBB8       t_composite
 0001:0001D8A4       t_contains_class
 0001:0001D59C       t_derived
 0001:0001D6A0       t_derive_string_range
 0001:0001D4C4       t_descendant
 0001:0001BC60       t_detcomp
 0001:0001BBF8       t_equal
 0001:0001BC1C       t_equalview
 0001:0001D440       t_getcomplevel
 0001:0001D634       t_getptrattrib
 0001:0001BB88       t_gettypefullview
 0001:0001BB10       t_gettypeview
 0001:0001D7D4       t_is_pointer_to_object
 0001:0001D75C       t_is_string_of_char
 0001:0001D814       t_is_sts
 0001:0001D860       t_is_stype
 0001:0001BFF8       t_typecheck
 0001:00014C98       ucord
 0001:00014C88       uctosc
 0001:00014C8C       uctoui
 0001:00014AE4       udadd
 0001:00014BDC       udalign
 0001:00014AFC       udarray
 0001:00014C60       udcmpe
 0001:00014C3C       udcmpg
 0001:00014C1C       udcmpl
 0001:00014B9C       uddiv
 0001:0000E598       udelay
 0001:00014ADC       udload
 0001:00014AD4       udload0
 0001:00014B58       udmul
 0001:00014AF0       udsub
 0001:0004A3C4       udtoimm32
 0001:00014D8C       udtolong
 0001:00014D9C       udtoui
 0001:00014ABC       udtouint
 0002:000013C8       ud_0
 0002:000013D0       ud_1
 0002:000013D8       ud_2
 0002:000013E0       ud_4
 0002:000013E8       ud_bits_per_byte
 0002:00004080       ud_lstrisize32
 0002:00001374       ud_lunichar
 0002:0000136C       ud_luniint
 0002:0000137C       ud_lunilogical
 0002:00001384       ud_luninil
 0002:0000138C       ud_lunireal
 0001:000148A8       uiabs
 0001:00014740       uiadd
 0001:00014864       uiand
 0001:00014958       uicmp2n
 0001:00014914       uicmpe
 0001:000149FC       uicmpg
 0001:00014A20       uicmpge
 0001:000149A0       uicmpl
 0001:000149C0       uicmple
 0001:0001492C       uicmpne
 0001:0001494C       uicmpz
 0001:00014794       uidiv
 0001:000148D8       uilength
 0001:000146C0       uiload
 0001:000146F8       uiload0
 0001:000146CC       uiloadp2
 0001:00014700       uiloadx
 0001:000147CC       uimod
 0001:00014758       uimul
 0001:00014888       uineg
 0001:000148C8       uinot
 0001:0000E568       uint64
 0001:0000E500       uint64_add32
 0001:0000E510       uint64_cmpb
 0001:0000E4F8       uint64_inc
 0002:00000E54       uint64_maxlongint
 0001:0000E508       uint64_sub32
 0001:00014870       uior
 0001:000147F4       uishl
 0001:00014828       uishr
 0001:00014A5C       uishrink
 0001:00014944       uisign
 0001:00014730       uistorex
 0001:0001474C       uisub
 0001:0004A3BC       uitoimm32
 0001:000146BC       uitolong
 0001:0006D48C       uitooper
 0001:00014D68       uitouc
 0001:00014D90       uitoud
 0001:000146A8       uitouint
 0001:00014D70       uitour
 0001:00014DA8       uiudcmpge
 0001:0001487C       uixor
 0002:0000139C       ui_0
 0002:000013A4       ui_1
 0002:00001394       ui_luniint_bits
 0002:000013AC       ui_minus_1
 0002:00002F1C       ui_nil
 0001:00014CA0       ulcmpeb
 0001:00011A44       ulongcmp
 0001:00014D78       ultoui
 0001:00014CA8       ultrue
 0001:00014C9C       ulxor
 0002:000013C0       ul_false
 0002:00002F24       ul_nil
 0002:000013C4       ul_true
 0001:00014DD8       umsucc
 0001:00014DD4       umtouint
 0002:0002FF84       unarytab
 0002:0002FAC4       unarytab
 0002:000083DC       Unassigned
 0001:000160A4       ungetchar
 0001:00041F54       ungetlex
 0001:0000D7B4       unhandled
 0001:00045D68       unimplemented
 0001:00045DBC       unimplementedx
 0001:0005A098       unixifyqident
 0001:000033A4       UnregisterModule
 0001:0004BA68       unshiftop
 0001:00001958       UpCase
 0001:00011BB4       upcasestr
 0001:00004ABC       updateuser
 0001:00014C78       upload
 0001:00014D88       uptolong
 0001:00014CC0       urcmpe
 0001:00014CF8       urcmpl
 0001:00014D30       urcmple
 0001:00014CAC       urload
 0001:00014CB8       urtox
 0002:000013B4       ur_0
 0002:00002F28       ur_nil
 0001:000363AC       uset11
 0001:0003644C       uset1s
 0001:0003649C       usets1
 0001:000282E0       usetss
 0001:000363E0       usetss
 0001:0000E724       util
 0001:000086E8       validdate
 0001:00008A34       validtime
 0001:00045CB0       verify
 0001:00045D04       verifyx
 0001:00004950       VirtualAlloc
 0001:00004958       VirtualFree
 0001:00004960       VirtualLock
 0001:00004968       VirtualQuery
 0001:00004970       VirtualUnlock
 0002:00008FE4       vm_map
 0001:0000F970       vm_registerregion
 0001:0000F9D4       vm_registerthisstack
 0002:00008F98       vm_sync
 0001:0000F9A4       vm_unregisterregion
 0001:0000F9F0       vm_unregisterthisstack
 0001:0000F8BC       vm_virtualalloc
 0001:0000F91C       vm_virtualfree
 0001:0000FA0C       vm_virtuallock
 0001:0000FAD4       vm_virtualunlock
 0001:00004978       WaitForSingleObject
 0001:00004980       WaitForSingleObjectEx
 0002:00031F4B       waitkey
 0001:00002D50       WideCharLenToStrVar
 0002:00000244       Win32BuildNumber
 0002:00000248       Win32CSDVersion
 0002:0000023C       Win32MajorVersion
 0002:00000240       Win32MinorVersion
 0002:00000238       Win32Platform
 0002:00000E70       win32priority
 0001:00004A28       Windows
 0001:0000E7FC       WinSvc
 0001:00004F34       wordtohex
 0001:00012640       work0
 0001:000125F8       work0_init
 0002:00000ED8       workdir
 0001:0000C188       write0
 0001:00004988       WriteConsoleInput
 0001:00004990       WriteFile
 0001:00058B90       writeimm
 0002:00017050       wsem
 0001:00011950       xchg
 0002:000000C4       xdatim
 0001:000046EC       xlat
 0002:00000BFC       xlat_in
 0002:00000BF8       xlat_out
 0001:00011A5C       xorarray
 0002:000170A0       xtab_0
 0002:000170B8       xtab_in
 0002:000170B0       xtab_key
 0002:000170A8       xtab_lower
 0002:000170B4       xtab_out
 0002:000170AC       xtab_strip
 0002:000170A4       xtab_upper
 0002:000000C0       xtime
 0001:0002559C       x_addop
 0001:00025610       x_addsysstr
 0001:000254FC       x_addui
 0001:0002553C       x_addul
 0001:000254A0       x_addunary
 0001:00025570       x_add_imm
 0001:00026A2C       x_check_assign
 0001:00025A28       x_classinstance
 0001:0003B2E8       x_const_imm
 0001:0003B32C       x_const_int
 0001:0003B36C       x_const_logical
 0001:0003B38C       x_const_range
 0001:0003B34C       x_const_real
 0001:0003B43C       x_const_sysstr
 0001:0003A598       x_evaluate
 0001:000258CC       x_getconcatkind
 0001:00025A64       x_get_deref_nclass
 0001:0003B4BC       x_get_symbol
 0001:0003B460       x_get_type
 0001:00025B4C       x_has_dynamic_size
 0001:00025AF4       x_has_static_size
 0001:00025AD8       x_is_constant
 0001:00025AA8       x_is_nil
 0001:00046E60       x_make_attribute
 0001:00046DF0       x_make_call_spec
 0001:00046C9C       x_make_component_index
 0001:00046C18       x_make_component_selector
 0001:00046B9C       x_make_component_type
 0001:00046B10       x_make_component_var
 0001:00046D20       x_make_deref
 0001:00046EF4       x_make_imm
 0001:00046F60       x_make_imm_nil
 0001:00046FBC       x_make_imm_uniint
 0001:00046AD8       x_make_op_and_then
 0001:00046998       x_make_op_assign
 0001:00046A78       x_make_op_eq
 0001:00046A08       x_make_op_logical
 0001:00046AA8       x_make_op_ne
 0001:00047020       x_make_param
 0001:00046D9C       x_make_this
 0001:000360B8       x_phase_next
 0001:00036138       x_phase_prev
 0001:00025650       x_rangetotype
 0001:00024D7C       x_refine_binary
 0001:00024E50       x_refine_unary
 0001:00024ECC       x_resolve
 0001:000251A8       x_resolve_by_result
 0001:00025398       x_resolve_opstype
 0001:00026454       x_rta_check_attributes
 0001:0002697C       x_rta_is_available
 0001:00026024       x_rta_provided_attributes
 0001:0002630C       x_rta_require_attribute
 0001:0003B264       x_select
 0001:00025BA8       x_set_param_type
 0001:00025B7C       x_swap
 0001:0003A2D4       x_vyraz
 0001:000087D0       ymdtodate
 0001:00008D84       ymdtostr
 0001:00004CCC       zero
 0001:0000D99C       zitoa
 0001:00055E40       _count_block_size_procedures
 0001:00055D24       _count_block_size_variables
 0001:00055FC4       _dump_symbol


  Address         Publics by Value

 0002:FFF7E039       TlsLast
 0001:00000F38       SysGetMem
 0001:000010C0       SysFreeMem
 0001:00001434       SysReallocMem
 0001:000014F8       @GetMem
 0001:00001510       @FreeMem
 0001:00001528       @ReallocMem
 0001:000015BC       @_IOTest
 0001:000015EC       @Copy
 0001:00001630       @Delete
 0001:00001660       @LGetDir
 0001:000016D8       @SGetDir
 0001:0000174C       @Insert
 0001:000017B4       Move
 0001:00001860       ParamCount
 0001:000018C0       ParamStr
 0001:00001918       @Pos
 0001:00001958       UpCase
 0001:00001968       @ROUND
 0001:00001970       @PStrCat
 0001:00001998       @PStrNCat
 0001:000019C8       @PStrCpy
 0001:000019E4       @PStrNCpy
 0001:00001A14       @PStrCmp
 0001:00001A98       @AStrCmp
 0001:00001B08       @FillChar
 0001:00001B28       @StrLong
 0001:00001B88       @Str0Long
 0001:00001B94       @ValLong
 0001:00001C3C       @WriteLong
 0001:00001C64       @Write0Long
 0001:00001C6C       @_CToPasStr
 0001:00001C84       @_CLenToPasStr
 0001:00001CA8       @SetElem
 0001:00001CCC       @SetRange
 0001:00001D24       @ObjSetup
 0001:00001E74       TObject.ClassName
 0001:00001E88       TObject.NewInstance
 0001:00001E9C       TObject.FreeInstance
 0001:00001EC4       TObject.Destroy
 0001:00001ED0       TObject.Free
 0001:00001EDC       TObject.InitInstance
 0001:00001F30       @IsClass
 0001:00001F48       TObject.SafeCallException
 0001:00001F50       TObject.DefaultHandler
 0001:00001F54       @ClassCreate
 0001:00001F90       @ClassDestroy
 0001:00002094       @HandleAnyException
 0001:00002158       @HandleOnException
 0001:00002290       @HandleFinally
 0001:000022C8       @RaiseExcept
 0001:000022E4       @RaiseAgain
 0001:00002338       @DoneExcept
 0001:00002368       @TryFinallyExit
 0001:000025B0       @StartExe
 0001:000025E0       @InitResStrings
 0001:00002680       @Halt0
 0001:00002798       @Halt
 0001:000027A4       @RunError
 0001:000027E8       BeginThread
 0001:0000282C       @LStrClr
 0001:00002850       @LStrArrayClr
 0001:00002880       @LStrAsg
 0001:000028C4       @LStrLAsg
 0001:000028EC       @NewAnsiString
 0001:00002910       @LStrFromPCharLen
 0001:00002940       @LStrFromPWCharLen
 0001:000029D0       @LStrFromChar
 0001:000029E0       @LStrFromPChar
 0001:00002A10       @LStrFromPWChar
 0001:00002A4C       @LStrFromString
 0001:00002A58       @LStrFromArray
 0001:00002A70       @LStrFromWStr
 0001:00002A84       @LStrToString
 0001:00002AA8       @LStrLen
 0001:00002AB0       @LStrCat
 0001:00002AF4       @LStrCatN
 0001:00002B44       @LStrToPChar
 0001:00002B50       @LStrCopy
 0001:00002B90       @LStrSetLength
 0001:00002BF4       @Write0LString
 0001:00002BFC       @WriteLString
 0001:00002C1C       @WStrClr
 0001:00002C34       @WStrArrayClr
 0001:00002C58       @FinalizeRecord
 0001:00002C84       @FinalizeArray
 0001:00002D44       @Finalize
 0001:00002D50       WideCharLenToStrVar
 0001:00002DDC       OleStrToStrVar
 0001:00002E00       StringToOleStr
 0001:00002E94       @VarClear
 0001:00002EC8       @VarCopy
 0001:00002FFC       @VarCast
 0001:000030F0       @VarToLStr
 0001:0000312C       @VarClr
 0001:00003134       FindHInstance
 0001:0000315C       FindResourceHInstance
 0001:00003178       LoadResourceModule
 0001:00003394       RegisterModule
 0001:000033A4       UnregisterModule
 0001:00003414       LoadResString
 0001:00003458       @IntfClear
 0001:00003672       @Assign
 0001:000036C8       @_Flush
 0001:000036ED       @Flush
 0001:00003714       @Close
 0001:0000378B       @ResetText
 0001:00003792       @RewritText
 0001:00003799       @Append
 0001:00003844       @Write0String
 0001:0000384E       @WriteString
 0001:0000386B       @WriteLn
 0001:0000387F       @Write0Char
 0001:000038D1       @WriteChar
 0001:000038E8       @Write0CString
 0001:000038EC       @WriteCString
 0001:00003938       @Str0Ext
 0001:00003944       @Str1Ext
 0001:0000394B       @Str2Ext
 0001:00003BBC       @ValExt
 0001:00003CC0       FPower10
 0001:00003CC0       @Pow10
 0001:00003F94       Finalization
 0001:00003FF4       System
 0001:00004128       @GetTls
 0001:000041B8       @InitExe
 0001:000041DC       Finalization
 0001:0000420C       SysInit
 0001:00004214       Finalization
 0001:00004244       def0
 0001:0000424C       Finalization
 0001:0000427C       def1
 0001:00004284       parbegin
 0001:00004404       parget
 0001:00004684       Finalization
 0001:000046B4       param0
 0001:000046BC       cmpsbe
 0001:000046D4       cmpsbne
 0001:000046EC       xlat
 0001:00004700       movebyte
 0001:0000470C       fillbyte
 0001:00004718       fillstruct
 0001:00004740       minw
 0001:00004748       maxw
 0001:00004750       mini
 0001:00004758       maxi
 0001:00004760       minl
 0001:00004768       maxl
 0001:00004770       Finalization
 0001:000047A0       inl32
 0001:000047A8       GetUserName
 0001:000047B0       ImpersonateNamedPipeClient
 0001:000047B8       RevertToSelf
 0001:000047C0       CloseHandle
 0001:000047C8       CreateDirectory
 0001:000047D0       CreateEvent
 0001:000047D8       CreateFile
 0001:000047E0       CreateMutex
 0001:000047E8       DeleteCriticalSection
 0001:000047F0       DeleteFile
 0001:000047F8       DisconnectNamedPipe
 0001:00004800       DuplicateHandle
 0001:00004808       EnterCriticalSection
 0001:00004810       EnumCalendarInfoA
 0001:00004818       ExitProcess
 0001:00004820       FileTimeToLocalFileTime
 0001:00004828       FileTimeToSystemTime
 0001:00004830       FindClose
 0001:00004838       FindFirstFile
 0001:00004840       FindNextFile
 0001:00004848       InterlockedDecrement
 0001:00004850       InterlockedIncrement
 0001:00004858       GetCPInfo
 0001:00004860       GetComputerName
 0001:00004868       GetCurrentProcess
 0001:00004870       GetCurrentThread
 0001:00004878       GetCurrentThreadId
 0001:00004880       GetDriveType
 0001:00004888       GetFileSize
 0001:00004890       GetLastError
 0001:00004898       GetLocalTime
 0001:000048A0       GetLocaleInfo
 0001:000048A8       GetModuleFileName
 0001:000048B0       GetStdHandle
 0001:000048B8       GetSystemTime
 0001:000048C0       GetThreadLocale
 0001:000048C8       GetThreadTimes
 0001:000048D0       GetTickCount
 0001:000048D8       GetVersionEx
 0001:000048E0       GlobalMemoryStatus
 0001:000048E8       InitializeCriticalSection
 0001:000048F0       IsBadReadPtr
 0001:000048F8       LeaveCriticalSection
 0001:00004900       PeekConsoleInput
 0001:00004908       ReadConsoleInput
 0001:00004910       ReadFile
 0001:00004918       ReleaseMutex
 0001:00004920       SetErrorMode
 0001:00004928       SetEvent
 0001:00004930       SetFilePointer
 0001:00004938       SetThreadPriority
 0001:00004940       Sleep
 0001:00004948       TerminateThread
 0001:00004950       VirtualAlloc
 0001:00004958       VirtualFree
 0001:00004960       VirtualLock
 0001:00004968       VirtualQuery
 0001:00004970       VirtualUnlock
 0001:00004978       WaitForSingleObject
 0001:00004980       WaitForSingleObjectEx
 0001:00004988       WriteConsoleInput
 0001:00004990       WriteFile
 0001:00004998       CloseDesktop
 0001:000049A0       CloseWindowStation
 0001:000049A8       GetDesktopWindow
 0001:000049B0       GetProcessWindowStation
 0001:000049B8       GetSystemMetrics
 0001:000049C0       GetThreadDesktop
 0001:000049C8       LoadString
 0001:000049D0       MessageBox
 0001:000049D8       OpenDesktop
 0001:000049E0       OpenWindowStation
 0001:000049E8       SetProcessWindowStation
 0001:000049F0       SetThreadDesktop
 0001:000049F8       Finalization
 0001:00004A28       Windows
 0001:00004A30       Finalization
 0001:00004A60       Messages
 0001:00004A68       getstation
 0001:00004ABC       updateuser
 0001:00004B00       os_init
 0001:00004C1C       Finalization
 0001:00004C4C       os
 0001:00004C54       mulx
 0001:00004C78       divx
 0001:00004CA4       addx
 0001:00004CCC       zero
 0001:00004CE8       ascxtoint
 0001:00004E14       inttoasc
 0001:00004EC0       hiword
 0001:00004EC4       loword
 0001:00004EC8       bytetohex
 0001:00004F34       wordtohex
 0001:00004F8C       longtohex
 0001:00004FE4       Finalization
 0001:00005014       nconv0
 0001:00005A1C       StrToIntDef
 0001:00005A34       LastDelimiter
 0001:00005A84       ExtractFileName
 0001:00005ABC       StrLen
 0001:00005AD4       StrMove
 0001:00005B10       StrLCopy
 0001:00005B44       StrLIComp
 0001:00005B8C       StrScan
 0001:00005BAC       StrPas
 0001:00005C38       FormatBuf
 0001:00005F88       StrLFmt
 0001:00005FBC       Format
 0001:00005FD0       FmtStr
 0001:00006098       GetLocaleStr
 0001:000060E4       GetLocaleChar
 0001:00006594       GetFormatSettings
 0001:000068E8       ExceptionErrorMessage
 0001:00006A74       ShowException
 0001:00006B38       Exception.Create
 0001:00006B6C       Exception.CreateFmt
 0001:00006BE8       EOutOfMemory.Destroy
 0001:00006BF4       EOutOfMemory.FreeInstance
 0001:00007360       ByteType
 0001:00007384       StrByteType
 0001:0000739C       AnsiStrRScan
 0001:000073C4       AnsiStrScan
 0001:000075E6       FloatToText
 0001:000078AF       FloatToTextFmt
 0001:00007B82       FloatToDecimal
 0001:00007D6F       TextToFloat
 0001:00007E70       Finalization
 0001:00007FB0       SysUtils
 0001:00008014       lsub
 0001:00008070       lshl1
 0001:00008088       lshr1
 0001:000080A4       lshlb
 0001:000080D0       lshrb
 0001:000080F8       lshr
 0001:00008140       lae
 0001:00008160       la
 0001:00008180       llen
 0001:000081A8       lmul
 0001:00008298       ldiv
 0001:000083B4       lmod
 0001:000084A0       lneg
 0001:000084B0       lineg
 0001:000084CC       Finalization
 0001:000084FC       larit032
 0001:00008504       bg_init
 0001:00008520       bgloop
 0001:00008528       bgkeyloop
 0001:000086B0       Finalization
 0001:000086E0       bg
 0001:000086E8       validdate
 0001:000087D0       ymdtodate
 0001:000088C4       datetoymd
 0001:00008A34       validtime
 0001:00008A6C       hmstotime
 0001:00008AC0       timetohms
 0001:00008B3C       gettime
 0001:00008B68       getGMTtime
 0001:00008B94       getGMTdate
 0001:00008BC0       getdate
 0001:00008BEC       getdatim
 0001:00008C14       dttodatim
 0001:00008C64       datimtodate
 0001:00008CA4       datimtotime
 0001:00008CE4       systimetodate
 0001:00008D18       systimetotime
 0001:00008D4C       Finalization
 0001:00008D7C       datim
 0001:00008D84       ymdtostr
 0001:000091A4       datetostr
 0001:000091FC       hmstostr
 0001:000094B4       timetostr
 0001:0000950C       emptydate
 0001:00009724       emptytime
 0001:000097B0       datimtostr
 0001:0000982C       Finalization
 0001:0000985C       dtconv
 0001:00009864       Finalization
 0001:00009894       objref
 0001:0000989C       isUNC
 0001:000098F8       expandi
 0001:00009F58       expand
 0001:00009FA8       exist
 0001:0000A004       drivetype
 0001:0000A0D8       sfilename
 0001:0000A148       nfilename
 0001:0000A194       efilename
 0001:0000A1E0       pathfile
 0001:0000A28C       spathname
 0001:0000A2D8       currentpath
 0001:0000A3B0       existdir
 0001:0000A4CC       mkxdir
 0001:0000A5DC       korekce
 0001:0000A744       findfirst
 0001:0000A7C0       findnext
 0001:0000A804       findclose
 0001:0000A838       fsplit
 0001:0000A974       fsplitd
 0001:0000AA20       Finalization
 0001:0000AA50       dir0
 0001:0000AA58       Finalization
 0001:0000AA88       perfdef
 0001:0000AA90       Finalization
 0001:0000AAC0       perfmon0
 0001:0000AAC8       genkey
 0001:0000B0F4       encrypt
 0001:0000B478       Finalization
 0001:0000B4A8       des
 0001:0000B4B0       Finalization
 0001:0000B4E0       filedef
 0001:0000B4E8       Finalization
 0001:0000B518       crc0
 0001:0000B520       Finalization
 0001:0000B550       md5
 0001:0000B558       Finalization
 0001:0000B588       kbd0def
 0001:0000B590       Finalization
 0001:0000B5C0       rng
 0001:0000B5C8       bitset
 0001:0000B5CC       bitcount
 0001:0000B608       bitsfl
 0001:0000B618       bitsf
 0001:0000B6C8       Finalization
 0001:0000B6F8       lbit32
 0001:0000B700       Finalization
 0001:0000B730       gost
 0001:0000B738       Finalization
 0001:0000B768       gost_2
 0001:0000B770       Finalization
 0001:0000B7A0       gosthash
 0001:0000B7A8       encryptfblock
 0001:0000B8E8       decryptfblock
 0001:0000B914       Finalization
 0001:0000B944       sifra
 0001:0000B94C       globalsignal
 0001:0000B958       globaltest
 0001:0000B978       global_init
 0001:0000B98C       Finalization
 0001:0000B9BC       global
 0001:0000B9C4       ferror
 0001:0000B9D8       addtolist
 0001:0000BB00       rmfromlist
 0001:0000BC24       finit
 0001:0000BC98       fclose
 0001:0000BDDC       cropen
 0001:0000C020       fcreate
 0001:0000C0B4       fopen
 0001:0000C138       fexist
 0001:0000C188       write0
 0001:0000C264       read0
 0001:0000C340       fread
 0001:0000C564       fwrite
 0001:0000C7A8       fpossetget
 0001:0000C938       fseek
 0001:0000C9C8       fpos
 0001:0000CA58       fseekend
 0001:0000CAE4       ferase
 0001:0000CB8C       fsize
 0001:0000CC98       file1_init
 0001:0000CCC4       Finalization
 0001:0000CCF4       file1
 0001:0000CCFC       lograrray
 0001:0000CE9C       Finalization
 0001:0000CECC       logr
 0001:0000CED4       add
 0001:0000D028       report
 0001:0000D758       reportfatal
 0001:0000D784       reportexception
 0001:0000D7B4       unhandled
 0001:0000D8C8       err1_init
 0001:0000D910       Finalization
 0001:0000D940       err1
 0001:0000D948       itoa
 0001:0000D964       aitoa
 0001:0000D99C       zitoa
 0001:0000DA24       ritoa
 0001:0000DAAC       sitoa
 0001:0000DB24       sgnx
 0001:0000DB4C       numlength
 0001:0000DB74       lnumtostr
 0001:0000DC64       linttostr
 0001:0000DDF8       realtostr
 0001:0000E4C0       Finalization
 0001:0000E4F0       nconv1
 0001:0000E4F8       uint64_inc
 0001:0000E500       uint64_add32
 0001:0000E508       uint64_sub32
 0001:0000E510       uint64_cmpb
 0001:0000E538       Finalization
 0001:0000E568       uint64
 0001:0000E570       msectoclk
 0001:0000E580       gettimer
 0001:0000E598       udelay
 0001:0000E5D4       initdelay
 0001:0000E638       timer0_init
 0001:0000E640       Finalization
 0001:0000E670       timer0
 0001:0000E678       procenta
 0001:0000E6F4       Finalization
 0001:0000E724       util
 0001:0000E72C       realloc
 0001:0000E794       Finalization
 0001:0000E7C4       mem1
 0001:0000E7CC       Finalization
 0001:0000E7FC       WinSvc
 0001:0000E804       svc_connectuser
 0001:0000EC04       svc_disconnectuser
 0001:0000EC4C       Finalization
 0001:0000EC7C       service
 0001:0000EC84       report
 0001:0000EDC8       report_start
 0001:0000EE38       report_stop
 0001:0000EEA4       loader
 0001:0000F114       startthread
 0001:0000F20C       deflocvar
 0001:0000F2D4       getcurrid
 0001:0000F2F4       multi_init
 0001:0000F3C4       Finalization
 0001:0000F3F4       multi
 0001:0000F3FC       syncinit
 0001:0000F43C       seminitex
 0001:0000F4AC       semlock
 0001:0000F558       semunlock
 0001:0000F5EC       csinit
 0001:0000F618       csfree
 0001:0000F630       cslock
 0001:0000F664       csunlock
 0001:0000F684       Finalization
 0001:0000F6B4       sync
 0001:0000F6BC       alloc
 0001:0000F720       allocz
 0001:0000F75C       free
 0001:0000F79C       memtotal
 0001:0000F7BC       Finalization
 0001:0000F7EC       mem0
 0001:0000F7F4       Finalization
 0001:0000F824       m2
 0001:0000F82C       setvmtype
 0001:0000F8BC       vm_virtualalloc
 0001:0000F91C       vm_virtualfree
 0001:0000F970       vm_registerregion
 0001:0000F9A4       vm_unregisterregion
 0001:0000F9D4       vm_registerthisstack
 0001:0000F9F0       vm_unregisterthisstack
 0001:0000FA0C       vm_virtuallock
 0001:0000FAD4       vm_virtualunlock
 0001:0000FB9C       Finalization
 0001:0000FBD8       memvm
 0001:0000FC34       space_new
 0001:0000FD14       space_discard
 0001:0000FE0C       alloc_free0
 0001:0000FE60       alloc_new
 0001:0000FEC0       alloc_large0
 0001:00010024       alloc_large
 0001:0001006C       search_small_block
 0001:00010130       alloc_small
 0001:000101F0       free_block
 0001:000102D0       memmgr_alloc
 0001:00010594       memmgr_free
 0001:00010A10       memmgr_init
 0001:00010B04       defragmentation_round
 0001:00010F88       defragmentation_process
 0001:00011028       defragment_all
 0001:000110BC       memmgr_start_defragmentation
 0001:000110F4       memmgr_snapshot
 0001:00011918       Finalization
 0001:00011948       memmgr
 0001:00011950       xchg
 0001:00011968       movef
 0001:00011990       mover
 0001:000119B4       movex
 0001:000119D8       fill
 0001:000119FC       fillz
 0001:00011A1C       imovef
 0001:00011A44       ulongcmp
 0001:00011A5C       xorarray
 0001:00011A70       Finalization
 0001:00011AA0       mbl32
 0001:00011AA8       npos
 0001:00011B44       count
 0001:00011BB4       upcasestr
 0001:00011BEC       lowcasestr
 0001:00011C24       fillstr
 0001:00011C6C       lenstr
 0001:00011CDC       lenstrc
 0001:00011D50       lenstrL
 0001:00011E14       trimstrD
 0001:00011EB8       addchar
 0001:00011ECC       addstr
 0001:00011F24       sform
 0001:00011F8C       sformstr
 0001:00011FE0       chartostrb
 0001:00012070       formats
 0001:000120F0       formats2
 0001:000121B8       formats3
 0001:000122C8       formats4
 0001:0001241C       Finalization
 0001:0001244C       strg
 0001:00012454       runerr
 0001:000124CC       Finalization
 0001:000124FC       err0
 0001:00012504       con0_init
 0001:00012520       Finalization
 0001:00012550       con0
 0001:00012558       setworkdir
 0001:000125F8       work0_init
 0001:00012610       Finalization
 0001:00012640       work0
 0001:00012648       code0_init
 0001:000127F8       code0_done
 0001:0001285C       Finalization
 0001:0001288C       code0
 0001:00012894       kbd0_init
 0001:0001289C       keypressed
 0001:00012BE8       readkey
 0001:00012C20       Finalization
 0001:00012C50       kbd0
 0001:00012C58       inputkey
 0001:0001332C       getkey
 0001:0001336C       kbd1_init
 0001:00013390       Finalization
 0001:000133C0       kbd1
 0001:000133C8       Finalization
 0001:000133F8       f_def
 0001:00013400       Finalization
 0001:00013430       dirdef
 0001:00013438       getdirlistx
 0001:000134F0       getdirlist
 0001:00013524       findfilename
 0001:000136E0       Finalization
 0001:00013710       dir4
 0001:0001387C       cwarntxt
 0001:00013C38       Finalization
 0001:00013C68       cc_warn
 0001:00013C70       ginit
 0001:00013C88       gcreate
 0001:00013CC4       galloc
 0001:00013E98       grealloc
 0001:0001403C       Finalization
 0001:0001406C       mem2
 0001:000140C4       Finalization
 0001:000140F4       cc_desc
 0001:000140FC       LnXP1
 0001:00014120       Finalization
 0001:00014150       Math
 0001:00014158       c_initmem
 0001:000141BC       c_alloc
 0001:0001420C       c_store
 0001:0001425C       c_realloc
 0001:00014364       c_realloc_plain
 0001:00014434       c_free
 0001:00014444       Finalization
 0001:00014474       cc_mem
 0001:00014494       tsymlist.init
 0001:000144DC       tsymlist.add
 0001:00014540       timmlist.init
 0001:00014588       timmlist.add
 0001:00014600       Finalization
 0001:00014630       cc_list
 0001:00014638       Finalization
 0001:00014668       cc_var
 0001:00014670       Finalization
 0001:000146A0       kbdkey
 0001:000146A8       uitouint
 0001:000146BC       uitolong
 0001:000146C0       uiload
 0001:000146CC       uiloadp2
 0001:000146F8       uiload0
 0001:00014700       uiloadx
 0001:00014730       uistorex
 0001:00014740       uiadd
 0001:0001474C       uisub
 0001:00014758       uimul
 0001:00014794       uidiv
 0001:000147CC       uimod
 0001:000147F4       uishl
 0001:00014828       uishr
 0001:00014864       uiand
 0001:00014870       uior
 0001:0001487C       uixor
 0001:00014888       uineg
 0001:000148A8       uiabs
 0001:000148C8       uinot
 0001:000148D8       uilength
 0001:00014914       uicmpe
 0001:0001492C       uicmpne
 0001:00014944       uisign
 0001:0001494C       uicmpz
 0001:00014958       uicmp2n
 0001:000149A0       uicmpl
 0001:000149C0       uicmple
 0001:000149FC       uicmpg
 0001:00014A20       uicmpge
 0001:00014A5C       uishrink
 0001:00014ABC       udtouint
 0001:00014AD4       udload0
 0001:00014ADC       udload
 0001:00014AE4       udadd
 0001:00014AF0       udsub
 0001:00014AFC       udarray
 0001:00014B58       udmul
 0001:00014B9C       uddiv
 0001:00014BDC       udalign
 0001:00014C1C       udcmpl
 0001:00014C3C       udcmpg
 0001:00014C60       udcmpe
 0001:00014C78       upload
 0001:00014C80       sctouc
 0001:00014C88       uctosc
 0001:00014C8C       uctoui
 0001:00014C98       ucord
 0001:00014C9C       ulxor
 0001:00014CA0       ulcmpeb
 0001:00014CA8       ultrue
 0001:00014CAC       urload
 0001:00014CB8       urtox
 0001:00014CC0       urcmpe
 0001:00014CF8       urcmpl
 0001:00014D30       urcmple
 0001:00014D68       uitouc
 0001:00014D70       uitour
 0001:00014D78       ultoui
 0001:00014D88       uptolong
 0001:00014D8C       udtolong
 0001:00014D90       uitoud
 0001:00014D9C       udtoui
 0001:00014DA8       uiudcmpge
 0001:00014DD4       umtouint
 0001:00014DD8       umsucc
 0001:00014DDC       Finalization
 0001:00014E0C       cc_uniop
 0001:00014E14       txtopen
 0001:00014EC4       txtclose
 0001:00014F14       txtwritetxt
 0001:00015050       txtwrite
 0001:00015188       txtflush
 0001:000151D0       Finalization
 0001:00015200       filetxt
 0001:00015208       lstopen
 0001:000152EC       lstclose
 0001:00015334       lstset
 0001:0001534C       lstwrite
 0001:000153D8       lstbegi
 0001:000153E4       lstendi
 0001:000153F0       lstwritei
 0001:000154B0       Finalization
 0001:000154E0       cc_lst0
 0001:000154E8       dump
 0001:00015538       Finalization
 0001:00015568       cc_dump
 0001:00015570       Finalization
 0001:000155A0       edstr
 0001:000155A8       cmsgcompiled
 0001:00015610       Finalization
 0001:00015640       cc_msg
 0001:00015648       opengen
 0001:00015810       newfile
 0001:00015C78       checkmeta
 0001:00015D28       popfile
 0001:00015DE4       initsrc
 0001:00015EC8       getchar
 0001:000160A4       ungetchar
 0001:000160B8       setdoeoln
 0001:000160D0       Finalization
 0001:00016100       cc_text
 0001:00016108       searchlex
 0001:000161AC       scanlex
 0001:0001626C       getnum
 0001:00016704       getcharencoding
 0001:000167A4       addbuf
 0001:000168B8       getstr
 0001:00016B7C       comment
 0001:00016C58       getlexsym
 0001:00017388       Finalization
 0001:000173B8       cc_lex0
 0001:000173C0       gethash
 0001:000173FC       LL
 0001:00017448       LR
 0001:00017494       RR
 0001:000174E0       RL
 0001:00017530       addnode
 0001:00017710       addident
 0001:000177C8       addsym
 0001:00017860       newsym
 0001:000178A4       addnewsym
 0001:000178F0       addwith
 0001:000179C4       newtmp
 0001:00017B10       findident
 0001:00017BAC       findlink
 0001:00017C2C       findwith
 0001:00017CA4       findsym
 0001:00017D48       findlocal
 0001:00017DB0       findlocal0
 0001:00017E10       searcht
 0001:00017FC4       findtfirst
 0001:00018034       findtnext
 0001:00018080       findfirstsym
 0001:000180CC       findnextsym
 0001:000182C8       checkspecial
 0001:0001831C       symqident
 0001:0001860C       setevaluated
 0001:0001862C       isfullvisible
 0001:000186B0       isincluded
 0001:000186E4       isincluded_or_ancestor
 0001:00018720       isused
 0001:00018798       isdescendant
 0001:000187D4       isancestor
 0001:00018810       getcontainer
 0001:00018848       checkcontainer
 0001:0001888C       getvisibility
 0001:000189BC       setoption
 0001:00018ABC       setwarning
 0001:00018C20       Finalization
 0001:00018C50       cc_sym
 0001:00018C58       setrtlproc
 0001:00018D10       getrtlprocid
 0001:00018D68       getrtlproc
 0001:00018D8C       initrtl
 0001:00018D9C       Finalization
 0001:00018DCC       cc_rtl
 0001:00018DD4       searchenv
 0001:00018E70       getenvvar
 0001:00018EBC       setint
 0001:00018EF8       setlogical
 0001:00018F34       setstr
 0001:00018FD4       initenvvar
 0001:000192B8       Finalization
 0001:000192E8       cc_env
 0001:000192FC       tfileitem.init
 0001:00019384       tfileitem.split_filename
 0001:00019888       filelist_init
 0001:000198A8       filelist_discard
 0001:000198AC       filelist_newitem
 0001:000198E4       filelist_additem
 0001:00019AD8       addalign
 0001:00019B04       numtofilename
 0001:00019B60       check_module
 0001:00019BC0       get_source_file_name
 0001:00019DBC       add_search_path
 0001:00019E48       addfile
 0001:00019F24       search_path
 0001:0001A0E8       create_filelist
 0001:0001A17C       Finalization
 0001:0001A1B4       cc_util
 0001:0001A1C4       StrPas
 0001:0001A1E0       nptostr
 0001:0001A2C4       Finalization
 0001:0001A2F4       strgs
 0001:0001A2FC       set111
 0001:0001A398       set1s1
 0001:0001A45C       set11s
 0001:0001A520       set1ss
 0001:0001A608       sets11
 0001:0001A6CC       setss1
 0001:0001A7B4       sets1s
 0001:0001A89C       setcopy
 0001:0001A8DC       settypecomptab
 0001:0001B3D4       typeview.init
 0001:0001B400       typeview.initunchecked
 0001:0001B420       typeview.initfull
 0001:0001B448       typeview.initaggregate
 0001:0001B460       typeview.tview
 0001:0001B478       typeview.stype
 0001:0001B4C4       typeview.isclass
 0001:0001B504       typeview.compat
 0001:0001B544       typeview.evaluated
 0001:0001B574       typeview.tagged
 0001:0001B5AC       typeview.getutype
 0001:0001B5C8       typeview.getctype
 0001:0001B5F8       typeview.getancestor
 0001:0001B67C       typeview.getbase
 0001:0001B6F0       typeview.getrange
 0001:0001B754       typeview.getbits
 0001:0001B7BC       typeview.getintaritm
 0001:0001B810       typeview.getpclass
 0001:0001B860       typeview.getpbase
 0001:0001B8B0       typeview.getpattrib
 0001:0001B900       typeview.getpaccess
 0001:0001B950       typeview.getlval
 0001:0001B9B8       typeview.gethval
 0001:0001BA20       typeview.getlength
 0001:0001BA8C       typeview.hassize
 0001:0001BABC       typeview.getsize
 0001:0001BB00       typeview.setunchecked
 0001:0001BB10       t_gettypeview
 0001:0001BB88       t_gettypefullview
 0001:0001BBB8       t_composite
 0001:0001BBF8       t_equal
 0001:0001BC1C       t_equalview
 0001:0001BC60       t_detcomp
 0001:0001BD04       test_string_component
 0001:0001BD90       test_string_string
 0001:0001BE04       test_uniarray
 0001:0001BEF0       test_partial
 0001:0001BF34       test_unchecked
 0001:0001BFB4       test_aggregate
 0001:0001BFF8       t_typecheck
 0001:0001D3FC       t_compatible
 0001:0001D440       t_getcomplevel
 0001:0001D47C       t_binaryidentical
 0001:0001D4C4       t_descendant
 0001:0001D530       t_ancestor
 0001:0001D59C       t_derived
 0001:0001D5E0       t_checktype
 0001:0001D634       t_getptrattrib
 0001:0001D6A0       t_derive_string_range
 0001:0001D75C       t_is_string_of_char
 0001:0001D7D4       t_is_pointer_to_object
 0001:0001D814       t_is_sts
 0001:0001D860       t_is_stype
 0001:0001D8A4       t_contains_class
 0001:0001D9DC       cc_type_init
 0001:0001D9E4       Finalization
 0001:0001DA14       cc_type
 0001:0001DA1C       floattostr
 0001:0001DD48       Finalization
 0001:0001DD78       conv
 0001:0001DDB0       a_getlangattr
 0001:0001DE4C       a_attrid
 0001:0001DEE8       islangattr
 0001:0001DF0C       Finalization
 0001:0001DF3C       cc_attr
 0001:0001DF44       choice_extend
 0001:0001DF90       choice_add_single
 0001:0001E274       choice_add_range
 0001:0001E424       Finalization
 0001:0001E454       cx_array
 0001:0001E45C       choice_extend
 0001:0001E4A8       choice_add_single
 0001:0001E894       delint
 0001:0001E8EC       choice_add_range
 0001:0001EE4C       choice_remove_single
 0001:0001F054       choice_remove_range
 0001:0001F2E8       Finalization
 0001:0001F318       cx_set
 0001:0001F320       imm_convord
 0001:0001F384       store_ordinal
 0001:0001F3AC       store_real
 0001:0001F3DC       store_nil
 0001:0001F3EC       store_string
 0001:0001F424       store_sysstr
 0001:0001F4A4       store_imm
 0001:0001F880       store_array
 0001:0001F8D0       store_array_item
 0001:0001F918       store_array_items_range
 0001:0001F964       store_array_others
 0001:0001F9A8       store_record
 0001:0001F9DC       store_record_item
 0001:0001FAF8       store_record_others
 0001:0001FB3C       store_set
 0001:0001FB64       store_set_item
 0001:0001FBA4       store_set_items_range
 0001:0001FBEC       load_uniint
 0001:0001FC40       load_unireal
 0001:0001FCB8       load_unilogical
 0001:0001FD00       load_sysstr
 0001:0001FDB4       load_image
 0001:0001FF4C       imm_convarray
 0001:00020118       imm_settype
 0001:00020354       imm_check
 0001:00020698       imm_get_length
 0001:00020720       imm_isnil
 0001:00020814       imm_isfullset
 0001:000208AC       imm_union
 0001:0002096C       imm_diff
 0001:00020A2C       cmpnil
 0001:00020B14       imm_cmp
 0001:00020DEC       Finalization
 0001:00020E1C       cx_imm
 0001:000210F4       setid
 0001:00021128       newnode
 0001:000213C8       newnodex
 0001:000213F4       newtree
 0001:00021428       derivenode
 0001:00021494       lextobinaryoper
 0001:00021628       lextounaryoper
 0001:00021684       expinfo.init
 0001:000216C4       expnode.init
 0001:000216E0       expnode.newtype
 0001:00021718       expnode.settype
 0001:0002173C       expnode.settypeunchecked
 0001:00021760       expnode.setunchecked
 0001:00021790       expnode.gettype
 0001:000217C0       expnode.gettypecount
 0001:000217D8       expnode.getsymbol
 0001:000217F0       expnode.loadpos
 0001:00021830       expnode.setpos
 0001:00021858       expnode.getpos
 0001:00021914       expnode.errpos
 0001:0002193C       expnode.dump
 0001:00021B08       expambiguous.init
 0001:00021B64       expambiguous.addtype
 0001:00021C68       expambiguous.checktype
 0001:00021CE0       expambiguous.gettype
 0001:00021D44       expambiguous.gettypeinfo
 0001:00021E18       expambiguous.gettypesym
 0001:00021E7C       expambiguous.gettypeorigin
 0001:00021F08       expambiguous.gettypecount
 0001:00021F24       expambiguous.resolve
 0001:00021FE4       expambiguous.isresolved
 0001:00022000       expoper.init
 0001:0002202C       expoper.setoper
 0001:00022054       expoper.split
 0001:00022094       expoper.join
 0001:000220BC       expoper.get
 0001:000220E8       expoper.dump
 0001:0002214C       expunary.init
 0001:00022178       expunary.setoper
 0001:000221A0       expunary.split
 0001:000221C4       expunary.join
 0001:000221E8       expunary.get
 0001:00022204       expunary.dump
 0001:00022268       expcomponent.setid
 0001:00022288       expcomponent.getsymbol
 0001:000222A4       expcomponent.dump
 0001:00022334       expimm.dump
 0001:000224BC       exprange.split
 0001:000224FC       exprange.join
 0001:00022524       exprange.get
 0001:00022550       exprange.dump
 0001:0002257C       explist.init
 0001:000225A8       explist.split
 0001:0002260C       explist.join
 0001:00022658       explist.get
 0001:000226A4       explist.dump
 0001:000226F0       expitem.setid
 0001:00022710       expitem.getsymbol
 0001:0002272C       expitem.split
 0001:0002276C       expitem.join
 0001:00022794       expitem.get
 0001:000227C0       expitem.dump
 0001:000228D0       expindex.split
 0001:00022910       expindex.join
 0001:00022938       expindex.get
 0001:00022964       expindex.dump
 0001:000229A8       expref.split
 0001:000229CC       expref.join
 0001:000229F0       expref.get
 0001:00022A0C       expref.dump
 0001:00022A60       expderef.split
 0001:00022A84       expderef.join
 0001:00022AA8       expderef.dump
 0001:00022ADC       expattrib.setid
 0001:00022AFC       expattrib.getsymbol
 0001:00022B18       expattrib.dump
 0001:00022BEC       expaggregate.dump
 0001:00022C48       expcallspec.dump
 0001:00022CB0       expthis.dump
 0001:00022CD8       expcurrent.dump
 0001:00022D00       gettypedesc
 0001:00023038       dump
 0001:000233D8       dumptree
 0001:00023424       Finalization
 0001:00023454       cx_def
 0001:00023470       addoper
 0001:000234B0       addunary
 0001:000234F0       a_komponenta
 0001:00023600       a_pole
 0001:000236A4       a_deref
 0001:000236E8       a_agregat
 0001:0002391C       a_atribut
 0001:00023980       a_list
 0001:00023D2C       a_selektor
 0001:00023E1C       a_current
 0001:00023ED8       a_jmeno
 0001:00024260       a_cinitel
 0001:0002437C       a_clen_chain
 0001:000243F0       a_clen
 0001:00024438       a_qclen
 0001:000244A8       a_jvyraz_chain
 0001:00024520       a_jvyraz
 0001:000245BC       a_vyber
 0001:00024624       a_rozsah
 0001:00024698       a_relace
 0001:000247AC       a_vyraz_chain
 0001:000249B0       a_vyraz
 0001:000249F0       a_prikaz
 0001:00024D44       Finalization
 0001:00024D74       cx_parse
 0001:00024D7C       x_refine_binary
 0001:00024E50       x_refine_unary
 0001:00024ECC       x_resolve
 0001:000251A8       x_resolve_by_result
 0001:00025398       x_resolve_opstype
 0001:000254A0       x_addunary
 0001:000254FC       x_addui
 0001:0002553C       x_addul
 0001:00025570       x_add_imm
 0001:0002559C       x_addop
 0001:00025610       x_addsysstr
 0001:00025650       x_rangetotype
 0001:000258CC       x_getconcatkind
 0001:00025A28       x_classinstance
 0001:00025A64       x_get_deref_nclass
 0001:00025AA8       x_is_nil
 0001:00025AD8       x_is_constant
 0001:00025AF4       x_has_static_size
 0001:00025B4C       x_has_dynamic_size
 0001:00025B7C       x_swap
 0001:00025BA8       x_set_param_type
 0001:00025C30       Finalization
 0001:00025C60       cx_util
 0001:00025C68       check_equal
 0001:00025C90       check_compatible
 0001:00025CEC       check_all
 0001:00025D08       a_resolve_find
 0001:00025E78       a_resolve_propagate
 0001:00025EF0       a_resolve
 0001:00025FEC       Finalization
 0001:0002601C       cx_resolve
 0001:00026024       x_rta_provided_attributes
 0001:0002630C       x_rta_require_attribute
 0001:00026454       x_rta_check_attributes
 0001:0002697C       x_rta_is_available
 0001:000269F4       Finalization
 0001:00026A24       cx_rta
 0001:00026A2C       x_check_assign
 0001:00026A88       a_type_overloaded
 0001:00026BA0       c_type
 0001:00026C24       a_type_operator_lang
 0001:00026ED8       a_type_operator
 0001:00026F40       a_type_unary_lang
 0001:00027078       a_type_unary
 0001:000270E0       a_type_component
 0001:00027184       a_type_imm
 0001:000271F4       a_type_param
 0001:00027258       a_type_call
 0001:000273B8       a_type_range
 0001:000274C0       a_type_index
 0001:000275A8       a_type_ref
 0001:0002765C       a_type_deref
 0001:00027710       a_type_attrib
 0001:000277CC       a_type_typecast
 0001:000278B8       a_type_aggregate
 0001:00027DA4       a_type_message
 0001:00027E68       a_type_this
 0001:00027ED8       a_type
 0001:0002819C       Finalization
 0001:000281CC       cx_type
 0001:000281D4       oset1s
 0001:00028224       osetss
 0001:00028290       osets1
 0001:000282E0       usetss
 0001:0002834C       a_opt_sequence
 0001:000283E8       a_opt_finalize_sequence
 0001:00028454       a_opt_reoptimize
 0001:00028480       a_opt_reorder_type
 0001:000284A4       a_opt_reorder_sts
 0001:000284CC       reorder
 0001:000285CC       a_opt_reorder
 0001:00028640       a_opt_reorder_imm
 0001:0002877C       opt
 0001:00028E88       a_opt_oper_iaritm
 0001:00029320       a_opt_oper_ordinal_rel
 0001:0002944C       a_opt_oper_logical_xor
 0001:00029574       simplify
 0001:000296A4       a_opt_oper_logical
 0001:00029724       a_opt_oper_assign
 0001:00029790       a_opt_oper_string_rel
 0001:00029890       a_opt_oper_string_concat
 0001:000298E8       a_opt_oper_pointer_rel
 0001:00029A10       a_opt_oper_tag_rel
 0001:00029B38       a_opt_oper_record_rel
 0001:00029C60       opt
 0001:00029DDC       a_opt_oper_set
 0001:0002A0D4       a_opt_oper_set_rel
 0001:0002A180       a_opt_oper_in_set
 0001:0002A22C       a_opt_oper_compare_partial
 0001:0002A2C8       a_opt_operator
 0001:0002A408       a_opt_unary_iaritm
 0001:0002A544       a_opt_unary_logical
 0001:0002A6C4       a_opt_unary
 0001:0002A77C       a_opt_component
 0001:0002A98C       a_opt_imm
 0001:0002A9A8       a_opt_list
 0001:0002AA54       a_opt_call
 0001:0002AA78       a_opt_range
 0001:0002AC04       a_opt_index
 0001:0002ACB4       a_opt_ref
 0001:0002AD04       a_opt_deref
 0001:0002AD54       a_opt_attrib
 0001:0002B1D4       a_opt_typecast
 0001:0002B2D0       finalize_items
 0001:0002B3E0       a_opt_aggregate
 0001:0002BB7C       a_opt_message
 0001:0002BBA0       a_opt_this
 0001:0002BBBC       a_opt
 0001:0002BD6C       initopertab
 0001:0002BF08       initunarytab
 0001:0002BF84       cx_opt_init
 0001:0002BF90       Finalization
 0001:0002BFC0       cx_opt
 0001:0002BFC8       selectusage
 0001:0002BFEC       c_final
 0001:0002C05C       a_final_operator
 0001:0002C2C0       a_final_unary
 0001:0002C334       a_final_component
 0001:0002C6E4       a_final_imm
 0001:0002C89C       a_final_call
 0001:0002C9B0       a_final_range
 0001:0002CA28       a_final_index
 0001:0002CAD0       a_final_ref
 0001:0002CB18       a_final_deref
 0001:0002CC14       a_final_attrib
 0001:0002CCE4       a_final_typecast
 0001:0002CD68       a_final_aggregate
 0001:0002CDCC       a_final_message
 0001:0002CEC0       a_final_this
 0001:0002CEE0       a_final
 0001:0002D114       Finalization
 0001:0002D144       cx_final
 0001:0002D14C       choice_extend
 0001:0002D198       choice_add_single
 0001:0002D580       delint
 0001:0002D5D8       choice_add_range
 0001:0002DB28       Finalization
 0001:0002DB58       cb_choice
 0001:0002DCC0       newnode
 0001:0002DFC8       blinfo.init
 0001:0002DFF0       blnode.init
 0001:0002E00C       blnode.setpos
 0001:0002E048       blnode.errpos
 0001:0002E074       blcmd.dump
 0001:0002E09C       blbreak.dump
 0001:0002E0C8       blreturn.dump
 0001:0002E0F4       blraise.dump
 0001:0002E120       blsend.dump
 0001:0002E148       blgoto.dump
 0001:0002E170       blnew.dump
 0001:0002E18C       bldiscard.dump
 0001:0002E1B4       bldelay.dump
 0001:0002E1E0       blif.dump
 0001:0002E208       blloop.dump
 0001:0002E230       blfor.dump
 0001:0002E24C       blwhile.dump
 0001:0002E278       blcase.dump
 0001:0002E2A0       blaccept.dump
 0001:0002E2CC       blblock.dump
 0001:0002E2FC       blasm.dump
 0001:0002E324       bllabel.dump
 0001:0002E350       blwhen_m.dump
 0001:0002E380       blwhen_c.dump
 0001:0002E3B0       blif_cond.dump
 0001:0002E3D8       blloop1.dump
 0001:0002E404       dump
 0001:0002E540       dumptree
 0001:0002E58C       Finalization
 0001:0002E5BC       cb_def
 0001:0002E5C4       b_label
 0001:0002E6C8       b_cmd
 0001:0002E724       b_if
 0001:0002E888       b_loop
 0001:0002E988       b_for
 0001:0002EB50       b_while
 0001:0002EC38       b_case
 0001:0002EDEC       b_accept
 0001:0002EFBC       b_begin
 0001:0002F008       b_raise
 0001:0002F0B4       b_send
 0001:0002F328       b_new
 0001:0002F3C4       b_discard
 0001:0002F420       b_break
 0001:0002F45C       b_return
 0001:0002F498       b_goto
 0001:0002F5CC       b_delay
 0001:0002F628       b_asm
 0001:0002F6B0       b_sequence
 0001:0002FA24       b_catch
 0001:0002FB34       b_body
 0001:0002FBFC       Finalization
 0001:0002FC2C       cb_parse
 0001:0002FC34       b_opt_sequence
 0001:0002FD20       b_opt_cmd
 0001:0002FD50       b_opt_break
 0001:0002FD6C       b_opt_return
 0001:0002FD88       b_opt_raise
 0001:0002FDA4       b_opt_send
 0001:0002FDC0       b_opt_goto
 0001:0002FDDC       b_opt_new
 0001:0002FDF8       b_opt_discard
 0001:0002FE14       b_opt_delay
 0001:0002FE30       b_opt_if
 0001:0002FEE4       b_opt_loop
 0001:0002FF60       b_opt_for
 0001:0002FF9C       b_opt_while
 0001:00030010       b_opt_case
 0001:000302E8       b_opt_accept
 0001:00030304       b_opt_catch
 0001:0003039C       b_opt_block
 0001:0003040C       b_opt_label
 0001:00030428       b_opt_asm
 0001:00030444       b_opt
 0001:00030628       Finalization
 0001:00030658       cb_opt
 0001:00030660       b_form_sequence
 0001:00030720       b_form_cmd
 0001:00030770       b_form_break
 0001:00030828       b_form_return
 0001:00030848       b_form_raise
 0001:0003093C       b_form_send
 0001:0003095C       b_form_goto
 0001:00030A98       b_form_new
 0001:00030D48       b_form_discard
 0001:00030D98       b_form_delay
 0001:00030DB8       b_form_if
 0001:00030E70       b_form_loop
 0001:00030EFC       b_form_for
 0001:000310AC       b_form_while
 0001:0003112C       b_form_case
 0001:00031270       b_form_accept
 0001:00031290       b_form_catch
 0001:00031394       b_form_block
 0001:0003141C       b_form_label
 0001:0003143C       b_form_asm
 0001:0003145C       b_form_node
 0001:00031690       b_form
 0001:000316C4       Finalization
 0001:000316F4       cb_form
 0001:000316FC       b_block
 0001:0003180C       b_evaluate
 0001:000319B8       Finalization
 0001:000319E8       cb_block
 0001:000319F0       tdecllist.init
 0001:00031A0C       tdecllist.empty
 0001:00031A28       tdecllist.add
 0001:00031A94       tdecllist.get
 0001:00031AD8       tdecllist.parse
 0001:00031B54       Finalization
 0001:00031B84       cd_idl
 0001:00031B8C       p_varaccess
 0001:00031CF8       p_gensinglelocvar
 0001:00031DD4       p_genlocvar
 0001:00031E34       p_genlocvar_override
 0001:00031EA4       Finalization
 0001:00031ED4       cd_util
 0001:00031EDC       p_attribute
 0001:0003238C       Finalization
 0001:000323BC       cd_attr
 0001:000323C4       p_def_ordinal
 0001:000323F8       p_def_modular
 0001:00032470       p_def_range
 0001:000324A0       p_def_enum
 0001:00032580       p_def_float
 0001:000325BC       p_def_pointer
 0001:000326EC       p_def_set
 0001:00032744       p_def_array
 0001:0003286C       p_def_string
 0001:000328F0       p_slozky
 0001:000329D0       p_def_record
 0001:00032A20       p_paramlist
 0001:00032D58       p_def_procedure
 0001:00032E4C       p_def_message
 0001:00032E7C       p_def_task
 0001:00032EAC       p_def_tag
 0001:00032EC8       p_typedef
 0001:000330B8       p_typeedef
 0001:00033294       p_private_extension
 0001:000332C0       p_typeidef
 0001:00033384       p_typename
 0001:000333B4       Finalization
 0001:000333E4       cd_type
 0001:000333EC       Finalization
 0001:0003341C       ca_def
 0001:00033424       p_type
 0001:00033698       p_const
 0001:000339BC       p_var
 0001:00033DD0       p_alias
 0001:00033F84       p_label
 0001:00034058       p_with_module
 0001:00034358       p_extend
 0001:0003455C       deklarace
 0001:00034728       p_special
 0001:000347A8       p_body
 0001:0003483C       p_end_ident
 0001:000348B0       p_subprogram
 0001:00034CE4       p_override
 0001:00034EEC       p_overload
 0001:00035150       p_module
 0001:0003539C       p_message
 0001:0003553C       p_program
 0001:000355C0       p_private
 0001:000356DC       p_protected
 0001:000357C8       p_declare
 0001:00035AD8       p_compfile
 0001:00035B60       p_loadmodule
 0001:00035C48       newunitype
 0001:00035CA8       newdefaultord
 0001:00035D28       newdefaulttag
 0001:00035D64       newdefaultptr
 0001:00035DE8       p_compinit
 0001:00035ED0       p_compunit
 0001:00035FFC       Finalization
 0001:0003602C       cd_unit
 0001:00036034       dophase
 0001:000360B8       x_phase_next
 0001:00036138       x_phase_prev
 0001:000361BC       Finalization
 0001:000361EC       cx_phase
 0001:000361F4       checkeval
 0001:0003626C       checkclass
 0001:000362BC       checksts
 0001:00036314       checkview
 0001:00036374       checkresolve
 0001:000363AC       uset11
 0001:000363E0       usetss
 0001:0003644C       uset1s
 0001:0003649C       usets1
 0001:000364EC       initunarytab
 0001:00036634       checkparam
 0001:000366DC       a_form_operator
 0001:00036C2C       a_form_unary
 0001:00036F34       a_form_param
 0001:00037190       a_form_call
 0001:000373F4       a_form_message_send
 0001:000374B8       a_form_message_accept
 0001:0003757C       a_form_deref
 0001:000376B0       a_form_this
 0001:00037740       createthis
 0001:0003777C       a_form_component_finalize
 0001:00037C80       findinclass
 0001:00037D18       findinsymbol
 0001:00037DFC       a_form_component
 0001:00038190       a_form_imm
 0001:00038298       a_form_typecast
 0001:000385B4       a_form_list
 0001:00038838       a_form_range
 0001:000389C8       a_form_index
 0001:00038BA0       a_form_ref
 0001:00038E24       ct
 0001:00038EB0       ctg
 0001:00038F0C       cd
 0001:00038F70       cdt
 0001:00038FDC       cn
 0001:00039030       cc
 0001:00039098       ctv
 0001:0003913C       ctvx
 0001:000391CC       cv
 0001:00039268       cent
 0001:000392EC       a_form_attrib
 0001:00039D48       a_form_aggregate
 0001:00039F30       a_form_callspec
 0001:0003A06C       a_form_current
 0001:0003A108       a_form
 0001:0003A294       cx_form_init
 0001:0003A29C       Finalization
 0001:0003A2CC       cx_form
 0001:0003A2D4       x_vyraz
 0001:0003A4B4       is_procedure
 0001:0003A500       is_virtual_procedure
 0001:0003A54C       is_var
 0001:0003A598       x_evaluate
 0001:0003B264       x_select
 0001:0003B2E8       x_const_imm
 0001:0003B32C       x_const_int
 0001:0003B34C       x_const_real
 0001:0003B36C       x_const_logical
 0001:0003B38C       x_const_range
 0001:0003B43C       x_const_sysstr
 0001:0003B460       x_get_type
 0001:0003B4BC       x_get_symbol
 0001:0003B4F0       Finalization
 0001:0003B520       cx_expr
 0001:0003B578       adjustvtable
 0001:0003B688       type_setsize
 0001:0003B774       type_setalign
 0001:0003B81C       report_unused
 0001:0003B8A4       e_part
 0001:0003B8DC       e_check
 0001:0003B9A4       e_refexpr
 0001:0003B9F4       e_refblock
 0001:0003BA38       e_reftype_check
 0001:0003BAF8       e_reftype
 0001:0003BBDC       e_refimm
 0001:0003BC38       e_refsymbol
 0001:0003BCC8       e_refsymbol_from_typename
 0001:0003BD8C       e_spec_ordinal
 0001:0003BE4C       e_spec_enum
 0001:0003BF58       e_spec_float
 0001:0003C15C       e_spec_procedure
 0001:0003C19C       e_spec_array
 0001:0003C348       e_spec_string
 0001:0003C558       e_spec_record
 0001:0003C6B0       e_spec_set
 0001:0003C788       e_spec_pointer
 0001:0003CB28       e_spec_tag
 0001:0003CB70       e_var
 0001:0003CCF0       e_alias
 0001:0003CD10       e_type_derived
 0001:0003D724       e_type
 0001:0003DA34       e_const
 0001:0003DBB8       e_enum
 0001:0003DC74       e_code_body
 0001:0003DCDC       e_special
 0001:0003DDBC       e_subprogram
 0001:0003DF28       e_override
 0001:0003E0A4       e_overload
 0001:0003E130       e_operator
 0001:0003E544       e_module
 0001:0003E644       assignvaraddr
 0001:0003E6CC       e_class
 0001:0003E8D8       e_compile
 0001:0003E934       e_program
 0001:0003E9BC       e_param
 0001:0003EB84       e_message
 0001:0003EC90       e_label
 0001:0003ECAC       e_template
 0001:0003ECC8       e_tparam
 0001:0003ECE4       e_attribute
 0001:0003ED00       e_undef
 0001:0003ED1C       e_symbol
 0001:0003F288       e_all
 0001:0003F2F8       cd_eval_init
 0001:0003F3B4       Finalization
 0001:0003F3E4       cd_eval
 0001:0003F3EC       d_create
 0001:0003F7BC       d_create_special
 0001:0003F814       d_create_internal
 0001:0003F874       d_create_empty
 0001:0003F8EC       d_next
 0001:0003F958       d_next_internal
 0001:0003F99C       d_rollback
 0001:0003F9B4       d_end
 0001:0003FAB0       d_end_internal
 0001:0003FB58       Finalization
 0001:0003FB88       cd_decl
 0001:0003FB90       searchmeta
 0001:0003FC2C       p_skipunknown
 0001:0003FC88       p_pragma_import
 0001:0003FEB8       p_pragma_convention
 0001:00040004       p_pragma_stackframe
 0001:00040150       p_pragma_assign
 0001:00040290       p_meta_include
 0001:0004039C       p_meta_separate
 0001:000405A0       p_meta_option
 0001:00040788       p_meta_pragma
 0001:0004089C       p_meta_environment
 0001:00040994       p_meta_syntax
 0001:00040B64       p_meta_and_then
 0001:00040BDC       p_meta_or_else
 0001:00040C54       p_meta_metaerr
 0001:00040CC8       p_meta_if_cont
 0001:000411EC       p_meta_if
 0001:00041200       p_meta_elsif
 0001:00041214       p_meta_else
 0001:00041228       p_meta_end_syntax
 0001:00041318       p_meta_end
 0001:000413A8       p_meta_error
 0001:00041450       p_meta_warning
 0001:000414EC       p_meta_display
 0001:0004157C       p_meta_declared
 0001:0004162C       p_meta_template
 0001:000418EC       p_meta_unknown
 0001:00041920       p_metacmd
 0001:000419FC       p_preprocessor
 0001:00041A40       cc_pre_init
 0001:00041B04       Finalization
 0001:00041B34       cc_pre
 0001:00041B3C       getlex
 0001:00041CE4       followlex
 0001:00041D84       followendkw
 0001:00041DEC       followendid
 0001:00041E6C       setlex
 0001:00041E8C       getlexid
 0001:00041EB4       setlexid
 0001:00041ED8       getlextxt
 0001:00041EFC       getlexval
 0001:00041F28       setlexval
 0001:00041F54       ungetlex
 0001:00041F68       looklex
 0001:00041F88       checklex
 0001:00041FBC       ignorelex
 0001:00041FE4       getlexpos
 0001:0004208C       getlexposall
 0001:000420BC       resumelex
 0001:00042174       cmplexposb
 0001:000421C8       cmplexposa
 0001:0004221C       Finalization
 0001:0004224C       cc_lex1
 0001:00042394       numtofilename
 0001:000423F0       cerrortxt
 0001:000451AC       settext
 0001:00045210       terror.init
 0001:0004522C       terror.newmsg
 0001:000452B0       terror.seterror
 0001:000452EC       terror.setwarning
 0001:00045318       terror.setmsg
 0001:0004534C       terror.setparam
 0001:0004538C       terror.sethint
 0001:000453D4       terror.loadpos
 0001:0004540C       terror.loadpos2
 0001:00045458       terror.loadtextpos
 0001:00045514       terror.setpos
 0001:0004555C       terror.raiseerror
 0001:0004557C       terror.resumeerror
 0001:000455B4       terror.testerror
 0001:000455D0       report
 0001:00045608       terror.printerrors
 0001:00045CB0       verify
 0001:00045D04       verifyx
 0001:00045D68       unimplemented
 0001:00045DBC       unimplementedx
 0001:00045E18       lexposblocktostr
 0001:00046054       Finalization
 0001:00046084       cc_err
 0001:000463A8       cc_def_init
 0001:00046450       tosspecific.init
 0001:0004646C       refexpr.isset
 0001:00046488       refexpr.getcexpr
 0001:000464B8       refexpr.setexpr
 0001:000464D4       refexpr.errpos
 0001:00046500       ref1.setexpr
 0001:00046520       reftype.getutype
 0001:0004653C       reftype.getctype
 0001:0004656C       reftype.settype
 0001:00046590       reftype.isset
 0001:000465C4       reftype.errpos
 0001:00046614       refblock.isset
 0001:00046630       refsymbol.setsym
 0001:0004664C       refsymbol.getusym
 0001:00046668       refsymbol.getcsym
 0001:00046698       refsymbol.isset
 0001:000466CC       refsymbol.errpos
 0001:0004671C       refimm.getimm
 0001:0004674C       refimm.isset
 0001:00046780       symbol.setpos
 0001:000467DC       Finalization
 0001:0004680C       cc_def
 0001:00046814       b_make_list
 0001:00046860       b_make_cmd
 0001:0004688C       b_make_if
 0001:000468C0       b_make_if_cond
 0001:00046900       b_make_block
 0001:00046920       b_make_for
 0001:00046960       Finalization
 0001:00046990       cb_make
 0001:00046998       x_make_op_assign
 0001:00046A08       x_make_op_logical
 0001:00046A78       x_make_op_eq
 0001:00046AA8       x_make_op_ne
 0001:00046AD8       x_make_op_and_then
 0001:00046B10       x_make_component_var
 0001:00046B9C       x_make_component_type
 0001:00046C18       x_make_component_selector
 0001:00046C9C       x_make_component_index
 0001:00046D20       x_make_deref
 0001:00046D9C       x_make_this
 0001:00046DF0       x_make_call_spec
 0001:00046E60       x_make_attribute
 0001:00046EF4       x_make_imm
 0001:00046F60       x_make_imm_nil
 0001:00046FBC       x_make_imm_uniint
 0001:00047020       x_make_param
 0001:00047094       Finalization
 0001:000470C4       cx_make
 0001:000470CC       a_prepare_info
 0001:00047104       a_list_append
 0001:00047144       Finalization
 0001:00047174       ca_util
 0001:0004717C       a_make_subprogram
 0001:00047250       a_type_prepare
 0001:00047444       a_type_class_entry
 0001:000475D4       a_type_class_exit
 0001:000476EC       a_type_class_adjust
 0001:0004773C       a_make_action_on_prefix
 0001:0004786C       a_make_prefix_record
 0001:000478AC       a_type_record
 0001:00047A3C       a_make_prefix_array
 0001:00047A88       a_type_array
 0001:00047BD8       a_type
 0001:00047D24       a_type_make_call_qualified
 0001:00047E20       a_type_make_call
 0001:00047E6C       a_type_make_call_ancestor
 0001:00047F10       Finalization
 0001:00047F40       ca_type
 0001:00047F48       traceop_init
 0001:000480C4       tracecheck_init
 0001:000480F4       prefix_var
 0001:00048120       traceop_call_special
 0001:00048248       traceop_entry
 0001:00048278       tracecheck_entry
 0001:000482A8       traceop_exit
 0001:000482E4       tracecheck_exit
 0001:00048314       traceop_adjust
 0001:00048344       tracecheck_adjust
 0001:00048374       trace
 0001:000484CC       a_var_init
 0001:0004850C       a_var_entry
 0001:00048548       a_var_exit
 0001:00048584       a_var_adjust
 0001:000485C0       Finalization
 0001:000485F0       ca_var
 0001:000485F8       a_create_temp_var
 0001:000486A4       Finalization
 0001:000486D4       ca_temp
 0001:000486DC       prepare_loop_context
 0001:00048708       a_block_cmd
 0001:0004871C       a_block_break
 0001:00048748       a_block_return
 0001:00048764       a_block_raise
 0001:00048778       a_block_send
 0001:000487D8       a_block_goto
 0001:000487EC       a_block_new
 0001:00048D00       a_block_discard
 0001:00048F04       a_block_delay
 0001:00048F18       a_block_if
 0001:00048F44       a_block_loop
 0001:00048F7C       a_block_for
 0001:00048FB4       a_block_while
 0001:00048FEC       a_block_case
 0001:00049018       a_block_accept
 0001:00049044       a_block_block
 0001:00049100       a_block_asm
 0001:00049114       a_block_label
 0001:00049128       a_block_when_m
 0001:00049154       a_block_when_c
 0001:00049180       a_block_if_cond
 0001:000491AC       a_block_loop1
 0001:000491E4       a_block_sequence
 0001:000494CC       a_block
 0001:00049510       Finalization
 0001:00049540       ca_block
 0001:00049548       a_scan_variables
 0001:0004980C       a_program
 0001:000498B0       calcnesting
 0001:00049924       a_subprogram
 0001:000499EC       a_procedure
 0001:00049A0C       a_special
 0001:00049C4C       a_pre_module
 0001:00049D70       make_special
 0001:00049E34       a_pre_class
 0001:00049F84       a_symbol
 0001:0004A104       a_analyze
 0001:0004A118       Finalization
 0001:0004A148       ca_analyze
 0001:0004A150       c32_def_init
 0001:0004A2E4       Finalization
 0001:0004A314       c32_def
 0001:0004A31C       imm32load
 0001:0004A320       imm32ge
 0001:0004A328       imm32le
 0001:0004A330       imm32b
 0001:0004A338       imm32a
 0001:0004A340       imm32ae
 0001:0004A348       imm32eq
 0001:0004A350       imm32nz
 0001:0004A358       imm32add
 0001:0004A35C       imm32sub
 0001:0004A360       imm32shr
 0001:0004A368       imm32and
 0001:0004A36C       imm32mul
 0001:0004A374       imm32cmp2n
 0001:0004A3BC       uitoimm32
 0001:0004A3C4       udtoimm32
 0001:0004A3CC       imm32toud
 0001:0004A3D8       imm32toui
 0001:0004A3E4       imm32touint
 0001:0004A3E8       Finalization
 0001:0004A418       c32_uniop
 0001:0004A4EC       adddebuginfo
 0001:0004A580       Finalization
 0001:0004A5B0       cc_debug
 0001:0004A5D4       Finalization
 0001:0004A604       ci_instr
 0001:0004A60C       Finalization
 0001:0004A63C       ci_struct
 0001:0004A644       ci_def_init
 0001:0004A6C8       Finalization
 0001:0004A6F8       ci_def
 0001:0004A700       dumpreg
 0001:0004A958       i_newmapping
 0001:0004A9D8       i_setmapping
 0001:0004A9FC       i_useuni
 0001:0004AB9C       i_finduni
 0001:0004AD44       i_freeuni
 0001:0004AE0C       i_alloc
 0001:0004AEC4       i_use
 0001:0004AF3C       i_free
 0001:0004AFC8       card
 0001:0004B000       setresult
 0001:0004B37C       i_retrieve
 0001:0004B5B0       refreshreg
 0001:0004B6BC       i_refresh
 0001:0004B788       Finalization
 0001:0004B7B8       ci_reg
 0001:0004B7C0       nullop
 0001:0004B7E8       newopreg
 0001:0004B8FC       newopuse
 0001:0004B944       newoptemp
 0001:0004B998       newopstack
 0001:0004B9C0       shiftop
 0001:0004BA00       shiftopindex
 0001:0004BA68       unshiftop
 0001:0004BAA8       addip
 0001:0004BB3C       adjustoprel
 0001:0004BC04       addjump
 0001:0004BC68       addloop
 0001:0004BCBC       addcall
 0001:0004BD08       addcallrtl
 0001:0004BD70       addpushofs
 0001:0004BDF4       addmovaddr
 0001:0004BE70       addopimm
 0001:0004BEB8       addsubimm
 0001:0004BF08       addaddimm
 0001:0004BF58       addopreg
 0001:0004BFAC       addset
 0001:0004C030       addcmov
 0001:0004C0EC       shoda
 0001:0004C7FC       optostr
 0001:0004CDE4       genop
 0001:0004D1BC       addii
 0001:0004DD30       setpos
 0001:0004DD64       checkii
 0001:0004DE7C       getaddr
 0001:0004DE98       getfieldaddr
 0001:0004DEFC       setfield
 0001:0004DF20       getavailregs
 0001:0004DF48       card
 0001:0004DF84       reserveavailregs
 0001:0004E088       freeavailregs
 0001:0004E0D8       areavailregs
 0001:0004E130       regcount
 0001:0004E180       getopregs
 0001:0004E214       composeop
 0001:0004E318       opregtomem
 0001:0004E36C       cloneop
 0001:0004E420       separateopreg
 0001:0004E4C4       resizereg
 0001:0004E4FC       saveregs
 0001:0004E548       addrelo
 0001:0004E60C       addunres
 0001:0004E6E4       newtarget
 0001:0004E750       settarget
 0001:0004E808       gettarget
 0001:0004E850       localresolve
 0001:0004E9DC       allocstack
 0001:0004EAC8       setvaraddr
 0001:0004EB10       getvaraddr
 0001:0004EBE8       alloctemp
 0001:0004EC14       freetemp
 0001:0004EC28       initinfo
 0001:0004EC5C       Finalization
 0001:0004EC8C       ci_code
 0001:0004EC94       i_idtoconvention
 0001:0004ECE4       i_prepare
 0001:0004ED14       i_setconvention
 0001:0004EE18       i_getconvention
 0001:0004EE4C       i_idtostackframe
 0001:0004EE9C       i_setstackframe
 0001:0004EEC4       i_getstackframe
 0001:0004EEF8       Finalization
 0001:0004EF28       ci_util
 0001:0004EF30       tcpuspec32.init
 0001:0004EFE8       tcpuspec32.getordparams1
 0001:0004F128       tcpuspec32.getordparams2
 0001:0004F1E0       tcpuspec32.getrealparams
 0001:0004F338       tcpuspec32.getstrparams
 0001:0004F428       tcpuspec32.getstrmaxhval
 0001:0004F470       tcpuspec32.getsetparams
 0001:0004F550       tcpuspec32.getdefaultord
 0001:0004F6A8       tcpuspec32.getdefaultreal
 0001:0004F6EC       tcpuspec32.layoutrecitem
 0001:0004F760       tcpuspec32.forcelayoutrecitem
 0001:0004F7D8       tcpuspec32.getptrsize
 0001:0004F834       tcpuspec32.getrtattribsize
 0001:0004F864       tcpuspec32.bytestobits
 0001:0004F890       fillrange
 0001:0004F958       tcpuspec32.immtobinary
 0001:0004FE6C       compute_hval
 0001:0004FEF8       tcpuspec32.getimmstoragesize
 0001:0004FFCC       tcpuspec32.setstackframe
 0001:0005006C       tcpuspec32.unidatatohexstr
 0001:000500A0       Finalization
 0001:000500D0       c32_cpu
 0001:000500D8       linkresolver.init
 0001:000501B0       Finalization
 0001:000501E0       cl_def
 0001:000501E8       falign
 0001:0005025C       falignmod
 0001:000502D4       ffillz
 0001:00050318       tstrtab.init
 0001:0005035C       tstrtab.search
 0001:000503F4       tstrtab.getstr
 0001:00050460       tstrtab.add
 0001:00050524       tstrtab.getlen
 0001:00050540       tstrtab.fwrite
 0001:00050564       Finalization
 0001:00050594       cl_util
 0001:0005059C       map_start_segment
 0001:000505DC       map_end_segment
 0001:000505E4       map_static_variable
 0001:00050668       itoax
 0001:0005070C       map_automatic_variable
 0001:00050794       map_start_subprogram
 0001:000507F8       map_subprogram_lineinfo
 0001:00050984       map_end_subprogram
 0001:0005098C       map_import_start_library
 0001:000509CC       map_import_procedure
 0001:00050A38       map_import_end_library
 0001:00050A40       Finalization
 0001:00050A70       cl_map
 0001:00050A78       register_codeview_dump
 0001:00050B04       set_codeview_dump
 0001:00050B34       get_codeview_type_container
 0001:00050C14       code_member_attribute
 0001:00050CE4       generate_st_signed
 0001:00050D60       generate_st_unsigned
 0001:00050DDC       generate_st_float
 0001:00050E8C       generate_st_char
 0001:00050F08       generate_st_tag
 0001:00050F84       generate_st_logical
 0001:00051000       generate_st_string
 0001:00051398       generate_st_ustring
 0001:00051730       generate_st_array
 0001:00051844       generate_st_uarray
 0001:00051950       create_recorditem
 0001:00051A80       generate_st_record
 0001:00051D10       create_recorditem
 0001:00051E40       generate_st_class
 0001:000520D8       generate_st_enum
 0001:00052338       generate_st_set
 0001:000525AC       generate_st_pointer
 0001:000526A0       generate_st_message
 0001:000526B8       generate_st_procedure
 0001:00052998       dump_primitive
 0001:000529E4       dump_lf_structure
 0001:00053148       dump_lf_array
 0001:00053364       dump_lf_pointer
 0001:000535C0       dump_lf_enum
 0001:00053988       dump_lf_procedure
 0001:00053C34       generate_codeview_type
 0001:00053EB4       dump_codeview_type
 0001:00053F60       Finalization
 0001:00053F90       cl_codeview_type
 0001:00053FA4       t_codeview.init
 0001:00054064       t_codeview.prepare
 0001:000540D8       t_codeview.add_module
 0001:00054198       t_codeview.remove_module
 0001:00054208       t_codeview.add_code
 0001:000543EC       t_codeview.add_type
 0001:00054524       t_codeview.add_local_variable
 0001:00054638       t_codeview.add_variable
 0001:000547A0       t_codeview.remove_code
 0001:0005480C       t_codeview.trace_module
 0001:00054A54       code_flags
 0001:00054B00       dump_segment_map
 0001:00054C80       dump_src_module
 0001:00054F78       dump_module
 0001:000550A8       dump_fileindex
 0001:00055374       map_source_file_to_code
 0001:00055774       map_source_file_to_module
 0001:00055CEC       generate_type
 0001:00055D24       _count_block_size_variables
 0001:00055E40       _count_block_size_procedures
 0001:00055FC4       _dump_symbol
 0001:00056684       dump_alignsym
 0001:00056850       generate_alignsym
 0001:00056CC8       dump_symbol_table
 0001:00057140       generate_symbol_table
 0001:000571FC       generate_code
 0001:00057264       t_codeview.generate
 0001:00057384       add_dir_item
 0001:00057454       t_codeview.dump
 0001:000579D0       t_codeview.register_segment
 0001:00057AA8       t_codeview.optimize
 0001:00057B3C       Finalization
 0001:00057B6C       cl_codeview
 0001:00057B74       linkresIA32.init
 0001:00057C1C       linkresIA32.trace
 0001:00057DA0       linkresIA32.assignvaraddr
 0001:00057EB8       linkresIA32.buildtypedesc
 0001:00058260       linkresIA32.resolvereloc
 0001:00058504       linkresIA32.link
 0001:00058AB4       linkresIA32.info
 0001:00058AC0       linkresIA32.getaddrbase
 0001:00058AE4       linkresIA32.getentrypoint
 0001:00058B10       linkresIA32.checkseg
 0001:00058B38       linkresIA32.getsegbase
 0001:00058B64       linkresIA32.getsegtotal
 0001:00058B90       writeimm
 0001:00058D48       linkresIA32.writesegment
 0001:00058FB4       Finalization
 0001:00058FE4       ci_link
 0001:00059038       tosspecLinux.importproc
 0001:000590AC       tosspecLinux.setconvention
 0001:0005914C       linkresIA32_Linux.linkimport
 0001:00059170       linkresIA32_Linux.getindirect
 0001:00059198       Finalization
 0001:000591C8       c32_Linux
 0001:000591D0       tdwarfobject.init
 0001:000591F4       tdwarfobject.getlen
 0001:00059210       tdwarfobject.fwrite
 0001:00059234       tdwarfobject.insert_data
 0001:000592CC       tdwarfobject.add_byte
 0001:0005932C       tdwarfobject.add_word
 0001:0005939C       tdwarfobject.add_long
 0001:00059408       tdwarfobject.set_long
 0001:00059434       tdwarfobject.add_uleb128
 0001:000594A8       tdwarfobject.add_sleb128
 0001:00059550       tdwarfobject.add_string
 0001:000595E0       td_info.init
 0001:000595FC       td_line.init
 0001:00059678       td_line.addfilename
 0001:000597D0       td_line.lne_endsequence
 0001:000597FC       dw_tag_compunit
 0001:00059A24       dw_end_compunit
 0001:00059AA8       dw_at_lowpc
 0001:00059AE0       dw_at_highpc
 0001:00059B18       dw_at_name
 0001:00059B50       dw_at_language
 0001:00059B88       dw_at_stmt_list
 0001:00059BC0       dw_at_producer
 0001:00059C10       dw_at_identifier_case
 0001:00059C48       dw_line_setaddress
 0001:00059C84       dw_line_setfile
 0001:00059CAC       dw_line_advance_line
 0001:00059CD4       dw_line_info
 0001:00059DF0       Finalization
 0001:00059E20       cl_dwarf
 0001:00059E3C       tsymtab.init
 0001:00059E70       tsymtab.add
 0001:00059F38       tsymtab.entrysize
 0001:00059F50       tsymtab.fwrite
 0001:00059F78       tstab.init
 0001:00059F9C       tstab.add
 0001:0005A054       tstab.entrysize
 0001:0005A06C       tstab.fwrite
 0001:0005A098       unixifyqident
 0001:0005A0F8       linkimageelf.init
 0001:0005A124       linkimageelf.create
 0001:0005BB5C       linkimageelf.info
 0001:0005BB68       Finalization
 0001:0005BB98       cl_elf
 0001:0005BBEC       tosspecWin32.importproc
 0001:0005BC60       tosspecWin32.setconvention
 0001:0005BD00       linkresIA32_Win32.linkimport
 0001:0005BF04       linkresIA32_Win32.getindirect
 0001:0005BF2C       Finalization
 0001:0005BF5C       c32_Win32
 0001:0005BF78       linkimagepe.init
 0001:0005BFA4       buildimport
 0001:0005C250       linkimagepe.create
 0001:0005D5D4       linkimagepe.info
 0001:0005D5E0       Finalization
 0001:0005D610       cl_pe
 0001:0005D618       initvoltmetr
 0001:0005D67C       showvoltmetr
 0001:0005D73C       deletevoltmetr
 0001:0005D780       Finalization
 0001:0005D7B0       g_util
 0001:0005D7B8       getrtattribsize
 0001:0005D810       Finalization
 0001:0005D840       c32_util
 0001:0005D848       setrparams
 0001:0005D8BC       setouttyp
 0001:0005D91C       i_createcontext
 0001:0005D974       i_newcontext
 0001:0005DA7C       i_setrpref
 0001:0005DAA4       i_setoutpref
 0001:0005DAC0       i_compose_outtyp
 0001:0005DB08       Finalization
 0001:0005DB38       ci_context
 0001:0005DB40       i_create_xframe
 0001:0005DBCC       i_set_handler
 0001:0005DBF4       i_dispatch_special
 0001:0005DC64       i_create_rcframe
 0001:0005DCF8       i_set_rcframe_action
 0001:0005DE64       i_process_rcframe
 0001:0005DFC0       Finalization
 0001:0005DFF0       ci_rtl
 0001:0005DFF8       i_gen_loadreg
 0001:0005E3C8       i_gen_compute_rtattrib
 0001:0005E510       i_gen_loadpointer
 0001:0005E83C       i_gen_compose_pointer
 0001:0005E91C       movreg
 0001:0005E9A4       i_gen_lea
 0001:0005ED70       i_gen_loadeax
 0001:0005EE70       i_gen_loadimm8cl
 0001:0005EFFC       i_gen_loadtemp
 0001:0005F19C       i_gen_load_rtattrib_addr
 0001:0005F23C       i_gen_load_rtattrib_value
 0001:0005F280       i_gen_this_addr
 0001:0005F330       i_gen_pushstack
 0001:0005F628       i_gen_pushnil
 0001:0005F69C       i_gen_logical_jump
 0001:0005F7D8       i_gen_mul_reg
 0001:0005F97C       i_gen_div_reg
 0001:0005FA38       i_gen_reduceop
 0001:0005FAC0       firstreg
 0001:0005FB2C       nextreg
 0001:0005FBA0       copysubblock
 0001:0005FC8C       copywords
 0001:0005FCF0       copyblock
 0001:0005FD50       i_gen_move_static
 0001:00060088       i_gen_pop_static
 0001:00060130       i_gen_move_array
 0001:0006040C       i_gen_movsd_static
 0001:00060590       i_gen_movsd_array
 0001:00060760       fillzsmall
 0001:00060848       i_gen_fillz_static
 0001:000609DC       i_gen_fillz_dynamic
 0001:00060BD4       i_gen_subprogram_address
 0001:00060C3C       i_gen_adjust_rta_position
 0001:00060CC4       Finalization
 0001:00060CF4       ci_fragment
 0001:00060CFC       oset11
 0001:00060D30       oset1s
 0001:00060D80       osets1
 0001:00060DD0       osetss
 0001:00060E3C       i_load
 0001:00061224       i_load_binary
 0001:00061334       i_load_binary_pointer
 0001:00061450       i_gen_op_integer_mul
 0001:00061B7C       adjust
 0001:00061C7C       i_gen_op_integer_div_mod
 0001:00062104       genop
 0001:000623BC       genops
 0001:00062490       i_gen_op_integer
 0001:00062740       i_gen_logical_chain
 0001:00062BA8       i_gen_op_assign_logical
 0001:00062C6C       i_gen_op_logical_and_or
 0001:00062C9C       i_gen_op_logical_xor
 0001:00062CC8       i_gen_op_compare_ordinal
 0001:00062DD0       i_gen_op_compare_pointer
 0001:00063168       i_gen_op_order_string
 0001:000636CC       cmpnil
 0001:000637A4       i_gen_op_compare_string
 0001:00063C38       cmpnil
 0001:00063F6C       i_gen_op_compare_binary
 0001:00064314       i_gen_op_compare_array
 0001:00064340       i_gen_op_compare_record
 0001:0006436C       i_gen_op_compare_set
 0001:00064398       i_gen_load_string_and_last
 0001:000645B8       appendall
 0001:00064D4C       i_gen_op_concat_string
 0001:000652B4       i_gen_op_assign_string
 0001:00065600       i_gen_op_set
 0001:000656A0       i_gen_op_in_set
 0001:00065C2C       i_gen_op_assign_pointer
 0001:00065EDC       i_gen_op_assign
 0001:00066588       i_gen_operator
 0001:00066670       i_gen_unary
 0001:000668AC       i_gen_rtattrib
 0001:00066B7C       i_gen_component
 0001:00067104       i_gen_imm
 0001:00067314       i_gen_aggregate
 0001:000673B8       firstarg
 0001:00067404       nextarg
 0001:00067470       i_gen_call_subprogram
 0001:00067ED4       i_gen_call
 0001:00067F34       i_gen_index
 0001:00068418       i_gen_ref
 0001:00068840       i_gen_deref
 0001:00068A4C       loadrtattrib
 0001:00068AD8       i_gen_attrib
 0001:00068D14       i_gen_typecast
 0001:00068EBC       i_gen_message_send
 0001:00068F4C       i_gen_callspec
 0001:000690C0       i_gen_this
 0001:00069100       i_gen
 0001:00069330       i_gen_expr
 0001:00069490       i_gen_cond
 0001:000696F8       i_load_message_code
 0001:000697EC       i_load_expr
 0001:0006994C       i_load_subexpr
 0001:00069AAC       i_load_rtattrib
 0001:00069C48       i_load_length
 0001:00069DE0       initopertab
 0001:0006A0B8       ci_expr_init
 0001:0006A0C0       Finalization
 0001:0006A0F0       ci_expr
 0001:0006A0F8       prepare_loop_context
 0001:0006A138       i_sequence
 0001:0006A188       i_cmd
 0001:0006A1B4       i_break
 0001:0006A228       i_return
 0001:0006A274       i_raise
 0001:0006A2E8       i_send
 0001:0006A308       i_goto
 0001:0006A35C       storertattrib
 0001:0006A43C       i_new
 0001:0006A7B8       i_discard
 0001:0006A808       i_delay
 0001:0006A828       i_if
 0001:0006A950       i_loop
 0001:0006AA58       i_for
 0001:0006B17C       i_while
 0001:0006B25C       i_case
 0001:0006B6A4       i_accept
 0001:0006B6E0       set_end_target
 0001:0006B708       i_block
 0001:0006BBEC       i_label
 0001:0006BC44       adjustasmop
 0001:0006BD5C       i_asm
 0001:0006BED4       i_simple
 0001:0006C1B0       i_node
 0001:0006C430       i_allocpar
 0001:0006C5DC       i_copypar
 0001:0006C668       i_gen_entry
 0001:0006C960       i_gen_exit
 0001:0006CAA0       i_gen_block
 0001:0006CB58       Finalization
 0001:0006CB88       ci_block
 0001:0006CB90       i_instance
 0001:0006CD14       i_gen_compile
 0001:0006CF00       i_gen
 0001:0006D024       i_estimate
 0001:0006D074       i_codegen
 0001:0006D0C0       Finalization
 0001:0006D0F0       ci_gen
 0001:0006D14C       searchasm
 0001:0006D280       searchasmlabel
 0001:0006D310       p_asml
 0001:0006D40C       adduitoimm32
 0001:0006D48C       uitooper
 0001:0006D4BC       asmltooper
 0001:0006D53C       p_operand
 0001:0006DB18       p_instr
 0001:0006DDFC       tcpuintel32.p_asm
 0001:0006E008       Finalization
 0001:0006E038       ci_asm
 0001:0006E040       marktype
 0001:0006E11C       mark
 0001:0006E310       l_link
 0001:0006E3E4       Finalization
 0001:0006E414       cl_link
 0001:0006E41C       compile
 0001:0006EB58       compiler_init
 0001:0006EB88       Finalization
 0001:0006EBB8       cc_comp
 0001:0006EBC0       f_comp_init
 0001:0006ECA8       compiler
 0001:0006EF10       Finalization
 0001:0006EF40       f_comp
 0001:0006EF48       param_help
 0001:0006F734       errpar
 0001:0006F790       param_parse
 0001:000705A8       Finalization
 0001:000705D8       f_param
 0001:000705E0       exithandler
 0001:000706E8       flex_main
 0001:00070920       Finalization
 0001:00070950       f_main
 0001:00070958       Finalization
 0001:00070E78       fcc32
 0002:00000000       Default8087CW
 0002:00000004       DebugHook
 0002:00000008       LibModuleList
 0002:0000000C       ModuleUnloadList
 0002:000000A8       exitflg
 0002:000000AC       progmode
 0002:000000B0       isservice
 0002:000000B4       null
 0002:000000B8       dform
 0002:000000BC       tform
 0002:000000C0       xtime
 0002:000000C4       xdatim
 0002:000000C8       syspath
 0002:0000010C       sharemode
 0002:00000110       currusername
 0002:00000210       hextab
 0002:00000234       EmptyStr
 0002:00000238       Win32Platform
 0002:0000023C       Win32MajorVersion
 0002:00000240       Win32MinorVersion
 0002:00000244       Win32BuildNumber
 0002:00000248       Win32CSDVersion
 0002:0000024C       LeadBytes
 0002:000003F0       sbox
 0002:00000BF0       firstfile
 0002:00000BF4       filemon
 0002:00000BF8       xlat_out
 0002:00000BFC       xlat_in
 0002:00000C00       finited
 0002:00000C04       fmondisabled
 0002:00000C08       exitonfatal
 0002:00000C0C       log
 0002:00000D0C       appdatum
 0002:00000E0C       lentab
 0002:00000E54       uint64_maxlongint
 0002:00000E5C       svc_mode
 0002:00000E60       svc_error
 0002:00000E64       svc_pipe
 0002:00000E68       svc_pipemsg
 0002:00000E6C       mainhandle
 0002:00000E70       win32priority
 0002:00000E84       threaddebug
 0002:00000E88       locvarcount
 0002:00000E8C       locvarinit
 0002:00000E90       memerr
 0002:00000E94       memerrcount
 0002:00000E98       memproc
 0002:00000E9C       mpactive
 0002:00000EA0       memblcount
 0002:00000EA4       meminit
 0002:00000EA8       memdelta
 0002:00000EAC       memlock
 0002:00000EB0       sfirst
 0002:00000EB4       slast
 0002:00000EB8       scurr
 0002:00000EBC       booltxt
 0002:00000EC4       errors
 0002:00000EC8       lasterror
 0002:00000ED8       workdir
 0002:00000FD8       keyboardAT
 0002:00000FDC       keybuf
 0002:00000FE0       keyin
 0002:00000FE4       keystate
 0002:00000FE8       hotkeyenable1
 0002:00000FEC       hotkeyenable2
 0002:00000FF0       extinput
 0002:00000FF4       extcheck
 0002:00000FF8       lastkeytime
 0002:00000FFC       keybufbeg
 0002:00001000       keybuflen
 0002:00001004       biosbufbeg
 0002:00001008       biosbuflen
 0002:0000100C       actnum
 0002:00001010       kbd_debug
 0002:00001014       debugmode
 0002:00001018       cc_warning_desc
 0002:00001070       os_family
 0002:00001080       machine_architecture
 0002:00001094       cdbase_flex
 0002:00001114       sdbase_win32
 0002:000011DC       sdbase_linux
 0002:000012A4       sdbase_host
 0002:0000136C       ud_luniint
 0002:00001374       ud_lunichar
 0002:0000137C       ud_lunilogical
 0002:00001384       ud_luninil
 0002:0000138C       ud_lunireal
 0002:00001394       ui_luniint_bits
 0002:0000139C       ui_0
 0002:000013A4       ui_1
 0002:000013AC       ui_minus_1
 0002:000013B4       ur_0
 0002:000013C0       ul_false
 0002:000013C4       ul_true
 0002:000013C8       ud_0
 0002:000013D0       ud_1
 0002:000013D8       ud_2
 0002:000013E0       ud_4
 0002:000013E8       ud_bits_per_byte
 0002:000013F0       symsize
 0002:0000145C       rtlproctab
 0002:000019B4       envvartab
 0002:00002114       nulltype
 0002:0000211C       tattrclasstxt
 0002:00002124       rtattribtxt
 0002:00002134       tattrtab
 0002:00002790       nodeconcatkindtxt
 0002:000027A0       currentityinfo
 0002:000027B8       expopertxt
 0002:00002834       expunarytxt
 0002:00002858       expoperinfo
 0002:00002950       expunaryinfo
 0002:00002964       nodesize
 0002:000029B4       nulllist
 0002:000029BC       blsize
 0002:00002A18       ek_context
 0002:00002A1C       ce_i
 0002:00002A20       ce_dup
 0002:00002A24       ce_x_end
 0002:00002A28       symdeclaredtxt
 0002:00002A38       symevaltxt
 0002:00002A48       elevel
 0002:00002A4C       declinfo
 0002:00002AB8       metacmdtab
 0002:00002F0C       lextxt
 0002:00002F14       cfg_maxerrors
 0002:00002F18       ce_meta_noend
 0002:00002F1C       ui_nil
 0002:00002F24       ul_nil
 0002:00002F28       ur_nil
 0002:00002F34       nullpos
 0002:00002F48       lexsimilar
 0002:00002F50       symtab1
 0002:00003094       symtab2
 0002:00003590       ooperinfo
 0002:00003C04       toptiontab
 0002:00003D4C       prvtypename
 0002:00003DB8       prvtypetxt
 0002:00003EC8       datatypename
 0002:00003F34       datatypetxt
 0002:00004060       tspectypetxt
 0002:00004070       tspectypeid
 0002:00004080       ud_lstrisize32
 0002:00004088       cpu32_classisize
 0002:00004090       cpu32_class_tag
 0002:00004094       cpu32_class_status
 0002:00004098       cpu32_status_none
 0002:0000409C       cpu32_status_inited
 0002:000040A0       cpu32_logical_lval
 0002:000040A8       cpu32_logical_hval
 0002:000040B0       cpu32_string_hval
 0002:000040B8       cpu32_string_isize
 0002:000040C0       cpu32_intrange
 0002:00004140       cpu32_rtattribsize
 0002:00004160       cpu32_ptrsize0
 0002:00004168       cpu32_maxtypesize
 0002:00004170       cpu32_defaultalign
 0002:00004178       cpu32_fpsize
 0002:00004190       imm32_0
 0002:00004194       imm32_1
 0002:00004198       imm32_2
 0002:0000419C       imm32_4
 0002:000041A0       imm32_5
 0002:000041A4       imm32_8
 0002:000041A8       imm32_31
 0002:000041AC       imm32_lpointer32
 0002:000041B0       imm32_lstrisize32
 0002:000041B4       tdebugtagtypetxt
 0002:00004220       iinstrtxt
 0002:00004B50       iregsize
 0002:00004B7C       iregtouni
 0002:00004BA8       iunitoreg
 0002:00004BC4       iuniregtxt
 0002:00004BE0       iregtxt
 0002:00004C84       iregcode
 0002:00004CB0       icondneg
 0002:00004CD4       icondinstr
 0002:00004D38       iprefixtxt
 0002:00004DB0       iprefixcode
 0002:00004DC0       iopmodetxt
 0002:00004F84       iopcodemap
 0002:00006644       iinstrinfo
 0002:0000681C       ixframe_handler
 0002:00006820       ircframe_action
 0002:00006824       ircframe_dest
 0002:00006828       idatatype
 0002:00006894       op0
 0002:000068C4       op_0
 0002:000068F4       op_0_16bit
 0002:00006924       op_0_32bit
 0002:00006954       op_1
 0002:00006984       op_2
 0002:000069B4       op_3
 0002:000069E4       op_7
 0002:00006A14       op_8
 0002:00006A44       op_16
 0002:00006A74       op_31
 0002:00006AA4       op_0000FFFF
 0002:00006AD4       op_FFFFFFFF
 0002:00006B04       op_lstrisize32
 0002:00006B34       op_ah
 0002:00006B64       op_ax_
 0002:00006B94       op_eax_
 0002:00006BC4       op_ecx
 0002:00006BF4       op_edx
 0002:00006C24       op_ebp
 0002:00006C54       op_esp
 0002:00006C84       icallclasstxt
 0002:00006D44       iframesize
 0002:00006D50       iframereg
 0002:00006D54       iframetxt
 0002:00006E14       scale
 0002:00006E20       fill_zeros
 0002:00006F20       codeview_type_type_code
 0002:00006F6C       codeview_type_proc_call
 0002:00006F7C       codeview_debug
 0002:00006F80       codeview_version
 0002:00007080       codeview_dir_item_type_code
 0002:000070A8       codeview_symbol_type_code
 0002:000070F4       codeview_disable_debugtagtype
 0002:000070F8       fill_nops
 0002:000071F8       pesign
 0002:000071FC       stub
 0002:000072FC       op2cc
 0002:00008000       ExceptProc
 0002:00008004       ErrorProc
 0002:00008008       ExceptClsProc
 0002:0000800C       ExceptObjProc
 0002:00008010       ExceptionClass
 0002:00008014       AssertErrorProc
 0002:00008018       AbstractErrorProc
 0002:0000801C       MainInstance
 0002:00008020       IsLibrary
 0002:00008024       CmdShow
 0002:00008028       CmdLine
 0002:0000802C       ExitCode
 0002:00008030       ExitProc
 0002:00008034       ErrorAddr
 0002:00008038       RandSeed
 0002:0000803C       IsConsole
 0002:0000803D       IsMultiThread
 0002:0000803E       FileMode
 0002:0000803F       Test8086
 0002:00008040       Test8087
 0002:00008044       Input
 0002:00008210       Output
 0002:000083DC       Unassigned
 0002:000083EC       Null
 0002:000083FC       AllocMemCount
 0002:00008400       AllocMemSize
 0002:000084A8       ModuleIsLib
 0002:000084AC       TlsIndex
 0002:000084B4       HInstance
 0002:000084C0       .1
 0002:000084C4       .2
 0002:000084C8       .1
 0002:000084CC       .1
 0002:000084D8       osver
 0002:000084DC       .1
 0002:000084E0       .1
 0002:000084E4       CurrencyString
 0002:000084E8       CurrencyFormat
 0002:000084E9       NegCurrFormat
 0002:000084EA       ThousandSeparator
 0002:000084EB       DecimalSeparator
 0002:000084EC       CurrencyDecimals
 0002:000084ED       DateSeparator
 0002:000084F0       ShortDateFormat
 0002:000084F4       LongDateFormat
 0002:000084F8       TimeSeparator
 0002:000084FC       TimeAMString
 0002:00008500       TimePMString
 0002:00008504       ShortTimeFormat
 0002:00008508       LongTimeFormat
 0002:0000850C       ShortMonthNames
 0002:0000853C       LongMonthNames
 0002:0000856C       ShortDayNames
 0002:00008588       LongDayNames
 0002:000085A4       SysLocale
 0002:000085B0       EraNames
 0002:000085CC       EraYearOffsets
 0002:000085F4       loflw
 0002:000085F8       .1
 0002:000085FC       bglist
 0002:00008B0C       bgcurr
 0002:00008B0E       bgcount
 0002:00008B10       .1
 0002:00008B14       .1
 0002:00008B18       .1
 0002:00008B1C       .1
 0002:00008B20       .1
 0002:00008B24       .1
 0002:00008B28       .1
 0002:00008B2C       .1
 0002:00008B30       flsem
 0002:00008B80       .2
 0002:00008B84       .1
 0002:00008B88       .1
 0002:00008B8C       .1
 0002:00008B90       .1
 0002:00008B94       .1
 0002:00008B98       .1
 0002:00008B9C       .1
 0002:00008BA0       .1
 0002:00008BA4       .1
 0002:00008BA8       globalevent
 0002:00008BAC       .1
 0002:00008BB0       .1
 0002:00008BB4       .1
 0002:00008BB8       logrsem
 0002:00008C08       .1
 0002:00008C0C       apprevize
 0002:00008C10       .1
 0002:00008C14       .1
 0002:00008C18       delaycnt
 0002:00008C1C       .1
 0002:00008C20       .1
 0002:00008C24       .1
 0002:00008C2C       .1
 0002:00008C30       svc_swinsta
 0002:00008C34       svc_sdesktop
 0002:00008C38       svc_uwinsta
 0002:00008C3C       svc_udesktop
 0002:00008C40       i_win32handle
 0002:00008C44       .1
 0002:00008C48       reportcs
 0002:00008C94       reportname
 0002:00008D94       .1
 0002:00008D98       syncstats
 0002:00008DC0       .1
 0002:00008DC4       sec
 0002:00008F90       .1
 0002:00008F94       .1
 0002:00008F98       vm_sync
 0002:00008FE4       vm_map
 0002:00010FE4       .1
 0002:00010FE8       memcs
 0002:00011034       defrag_process
 0002:00011038       memstat
 0002:000110C0       blocksizestat
 0002:00013090       blocksizestattxt
 0002:00014474       blocksizenames
 0002:00017034       .1
 0002:00017038       .1
 0002:0001703C       .1
 0002:00017040       houtput
 0002:00017044       hinput
 0002:00017048       .1
 0002:0001704C       .1
 0002:00017050       wsem
 0002:000170A0       xtab_0
 0002:000170A4       xtab_upper
 0002:000170A8       xtab_lower
 0002:000170AC       xtab_strip
 0002:000170B0       xtab_key
 0002:000170B4       xtab_out
 0002:000170B8       xtab_in
 0002:000170BC       .1
 0002:000170C0       .1
 0002:000170C4       .1
 0002:000170C8       keybuffer
 0002:000171C8       biosbuffer
 0002:000172C8       act
 0002:00017358       debugfile
 0002:000174C8       .1
 0002:000174CC       .1
 0002:000174D0       .1
 0002:000174D4       .1
 0002:000174D8       .1
 0002:000174DC       .1
 0002:000174E4       .1
 0002:000174E8       .2
 0002:000174EC       ce
 0002:000174FC       src
 0002:00017F78       os
 0002:00017F7C       cpu
 0002:00017F80       stg
 0002:00017F84       entrylist
 0002:00017F98       temp_counter
 0002:00017F9C       compdesc
 0002:0001801C       sysdesc
 0002:000180E3       cfg_noruntime
 0002:000180E4       cfg_syntaxcheckonly
 0002:000180E5       cfg_extformat
 0002:000180E8       def_uniint
 0002:000180EC       def_unireal
 0002:000180F0       def_unilogical
 0002:000180F4       def_unichar
 0002:000180F8       def_uninil
 0002:000180FC       def_unistr
 0002:00018100       inttype_tag
 0002:00018104       inttype_status
 0002:00018108       inttype_machine_pointer
 0002:0001810C       .1
 0002:00018110       .1
 0002:00018114       .1
 0002:00018118       .1
 0002:0001811C       .1
 0002:00018120       .1
 0002:00018124       .1
 0002:00018128       .1
 0002:0001812C       .1
 0002:00018130       .1
 0002:00018134       .1
 0002:00018138       .1
 0002:0001813C       rtltab
 0002:00018190       .1
 0002:00018194       envtab
 0002:00018934       .1
 0002:00018938       hashlist
 0002:00019130       pathlist
 0002:00025B9C       .1
 0002:00025BA0       .1
 0002:00025BA4       typecheck
 0002:0002ECE0       .1
 0002:0002ECE4       .1
 0002:0002ECE8       .1
 0002:0002ECEC       .1
 0002:0002ECF0       .1
 0002:0002ECF4       .2
 0002:0002ECF8       nodepool
 0002:0002ED98       .1
 0002:0002ED9C       .1
 0002:0002EDA0       .1
 0002:0002EDA4       .1
 0002:0002EDA8       .1
 0002:0002EDAC       .1
 0002:0002EDB0       opertab
 0002:0002FAC4       unarytab
 0002:0002FE90       .1
 0002:0002FE94       .2
 0002:0002FE98       .1
 0002:0002FE9C       blpool
 0002:0002FF54       .1
 0002:0002FF58       .1
 0002:0002FF5C       .1
 0002:0002FF60       .1
 0002:0002FF64       .1
 0002:0002FF68       .1
 0002:0002FF6C       .1
 0002:0002FF70       .1
 0002:0002FF74       .1
 0002:0002FF78       .1
 0002:0002FF7C       .1
 0002:0002FF80       .1
 0002:0002FF84       unarytab
 0002:00030078       .1
 0002:0003007C       .1
 0002:00030080       e_spec_tab
 0002:000300EC       .1
 0002:000300F0       .1
 0002:000300F4       metatab
 0002:0003013C       .1
 0002:00030140       .1
 0002:00030144       lex_operator
 0002:00030158       lex_keywords
 0002:0003016C       .2
 0002:00030170       .1
 0002:00030174       .1
 0002:00030178       .1
 0002:0003017C       .1
 0002:00030180       .1
 0002:00030184       .1
 0002:00030188       .1
 0002:0003018C       .1
 0002:00030190       cpu32_fpsparams
 0002:000302B4       cpu32_fpparams
 0002:000302FC       .1
 0002:00030300       .1
 0002:00030304       .1
 0002:00030308       iopcodemapindex
 0002:00030A60       .2
 0002:00030A64       .1
 0002:00030A68       .3
 0002:00030A6C       .1
 0002:00030A70       .1
 0002:00030A74       .1
 0002:00030A78       .1
 0002:00030A7C       .1
 0002:00030A80       .1
 0002:00030A84       .1
 0002:00030A88       .4
 0002:00030A8C       .3
 0002:00030A90       .2
 0002:00030A94       .1
 0002:00030A98       .1
 0002:00030A9C       .1
 0002:00030AA0       .1
 0002:00030AA4       .1
 0002:00030AA8       .1
 0002:00030AAC       .1
 0002:00030AB0       .1
 0002:00030AB4       .1
 0002:00030AB8       .1
 0002:00030ABC       .1
 0002:00030AC0       opertab
 0002:000317D4       .1
 0002:000317D8       .1
 0002:000317DC       .1
 0002:000317E0       .1
 0002:000317E4       .1
 0002:000317E8       sname
 0002:000318E8       gendi
 0002:000318EC       modimpl
 0002:000319EC       modlist
 0002:00031C48       ppath
 0002:00031D48       gpath
 0002:00031E48       mpath
 0002:00031F48       lstcfg
 0002:00031F49       lstdm
 0002:00031F4A       quiet
 0002:00031F4B       waitkey
 0002:00031F4C       extformat
 0002:00031F50       compdesc
 0002:00031FD0       sysdesc
 0002:00032097       noruntime
 0002:00032098       syntaxcheckonly
 0002:0003209C       .1
 0002:000320A0       .1
 0002:000320A4       .1
 0002:000320A8       saveexit


Line numbers for def0(def0.pas) segment .text

   359 0001:0000424B

Line numbers for def1(def1.pas) segment .text

   186 0001:00004283

Line numbers for param0(param0.pas) segment .text

   196 0001:00004284   197 0001:000042B9   212 0001:000042BF   213 0001:000042C5
   214 0001:000042D8   215 0001:00004328   213 0001:0000432B   224 0001:00004330
   225 0001:0000433D   226 0001:00004347   229 0001:00004353   230 0001:0000435B
   231 0001:00004389   232 0001:0000439C   233 0001:000043B4   234 0001:000043C5
   235 0001:000043CB   239 0001:000043F0   255 0001:00004404   256 0001:00004416
   263 0001:0000441A   267 0001:0000442A   268 0001:00004433   270 0001:00004445
   271 0001:00004472   269 0001:0000447B   273 0001:000044AA   274 0001:000044EE
   277 0001:00004502   282 0001:00004511   284 0001:0000452A   307 0001:00004558
   309 0001:0000456A   310 0001:00004590   308 0001:00004599   314 0001:000045BE
   315 0001:000045C6   316 0001:000045CA   321 0001:000045CF   324 0001:000045F8
   327 0001:00004620   328 0001:00004628   329 0001:0000463A   333 0001:0000466D
   336 0001:00004674   385 0001:000046BB

Line numbers for inl32(inl32.pas) segment .text

   623 0001:000046BC   624 0001:000046BD   626 0001:000046BE   627 0001:000046C0
   628 0001:000046C2   629 0001:000046C7   630 0001:000046C9   631 0001:000046CA
   632 0001:000046CC   633 0001:000046CE   635 0001:000046D0   636 0001:000046D1
   637 0001:000046D2   651 0001:000046D4   652 0001:000046D5   653 0001:000046D6
   654 0001:000046D8   655 0001:000046DA   656 0001:000046DC   657 0001:000046E1
   658 0001:000046E2   659 0001:000046E4   660 0001:000046E6   661 0001:000046E8
   662 0001:000046E9   663 0001:000046EA  1373 0001:000046EC  1375 0001:000046EE
  1376 0001:000046EF  1378 0001:000046F0  1379 0001:000046F2  1381 0001:000046F4
  1383 0001:000046F5  1387 0001:000046F7  1389 0001:000046F8  1390 0001:000046F9
  1392 0001:000046FB  1393 0001:000046FC  1395 0001:000046FD  1407 0001:00004700
  1408 0001:00004701  1410 0001:00004702  1411 0001:00004704  1413 0001:00004706
  1414 0001:00004707  1416 0001:00004709  1417 0001:0000470A  1418 0001:0000470B
  1552 0001:0000470C  1553 0001:0000470D  1554 0001:0000470F  1555 0001:00004711
  1556 0001:00004713  1557 0001:00004714  1558 0001:00004716  1559 0001:00004717
  1567 0001:00004718  1585 0001:0000471B  1586 0001:0000471C  1587 0001:0000471D
  1588 0001:0000471E  1589 0001:00004720  1590 0001:00004723  1591 0001:00004725
  1592 0001:00004727  1593 0001:00004729  1595 0001:0000472A  1596 0001:0000472C
  1597 0001:0000472E  1598 0001:00004730  1599 0001:00004732  1600 0001:00004734
  1602 0001:00004736  1603 0001:00004737  1604 0001:00004738  1605 0001:00004739
  2019 0001:00004740  2020 0001:00004742  2021 0001:00004744  2023 0001:00004746
  2031 0001:00004748  2032 0001:0000474A  2033 0001:0000474C  2035 0001:0000474E
  2043 0001:00004750  2044 0001:00004752  2045 0001:00004754  2047 0001:00004756
  2056 0001:00004758  2057 0001:0000475A  2058 0001:0000475C  2060 0001:0000475E
  2068 0001:00004760  2069 0001:00004762  2070 0001:00004764  2072 0001:00004766
  2081 0001:00004768  2082 0001:0000476A  2083 0001:0000476C  2085 0001:0000476E
  2194 0001:000047A7

Line numbers for os(os.pas) segment .text

   131 0001:00004A68   132 0001:00004A74   133 0001:00004A86   134 0001:00004A8D
   135 0001:00004AA1   136 0001:00004AB1   137 0001:00004AB7   179 0001:00004ABC
   180 0001:00004AC5   181 0001:00004ACC   182 0001:00004AE0   183 0001:00004AF2
   184 0001:00004AF9   241 0001:00004B00   243 0001:00004B09   244 0001:00004B13
   245 0001:00004B27   246 0001:00004B3C   248 0001:00004B48   249 0001:00004B66
   250 0001:00004B84   251 0001:00004B9F   254 0001:00004BA8   255 0001:00004BBA
   256 0001:00004BCC   257 0001:00004BE7   258 0001:00004C02   260 0001:00004C0B
   262 0001:00004C12   268 0001:00004C17   326 0001:00004C53

Line numbers for nconv0(nconv0.pas) segment .text

   118 0001:00004C54   119 0001:00004C55   121 0001:00004C56   122 0001:00004C58
   123 0001:00004C5A   124 0001:00004C5C   125 0001:00004C5E   126 0001:00004C60
   128 0001:00004C62   129 0001:00004C64   130 0001:00004C65   131 0001:00004C67
   132 0001:00004C69   133 0001:00004C6C   134 0001:00004C6D   135 0001:00004C6F
   136 0001:00004C71   138 0001:00004C73   139 0001:00004C75   140 0001:00004C76
   141 0001:00004C77   174 0001:00004C78   175 0001:00004C79   177 0001:00004C7A
   178 0001:00004C7C   179 0001:00004C7E   180 0001:00004C80   181 0001:00004C82
   182 0001:00004C84   184 0001:00004C87   185 0001:00004C89   187 0001:00004C8A
   188 0001:00004C8B   189 0001:00004C8D   190 0001:00004C8F   191 0001:00004C92
   192 0001:00004C94   193 0001:00004C95   194 0001:00004C97   195 0001:00004C99
   196 0001:00004C9B   198 0001:00004C9D   199 0001:00004C9F   200 0001:00004CA0
   201 0001:00004CA1   202 0001:00004CA2   239 0001:00004CA4   241 0001:00004CA5
   242 0001:00004CA7   243 0001:00004CA9   244 0001:00004CAB   245 0001:00004CAD
   246 0001:00004CAF   249 0001:00004CB1   250 0001:00004CB3   251 0001:00004CB5
   254 0001:00004CB7   255 0001:00004CB9   256 0001:00004CBB   257 0001:00004CBE
   258 0001:00004CC0   259 0001:00004CC1   261 0001:00004CC3   263 0001:00004CC8
   264 0001:00004CCA   265 0001:00004CCB   299 0001:00004CCC   301 0001:00004CCD
   302 0001:00004CCF   303 0001:00004CD1   304 0001:00004CD6   306 0001:00004CD8
   307 0001:00004CD9   308 0001:00004CDA   309 0001:00004CDC   310 0001:00004CDE
   311 0001:00004CE0   312 0001:00004CE1   314 0001:00004CE3   316 0001:00004CE5
   317 0001:00004CE6   400 0001:00004CE8   401 0001:00004CF7   402 0001:00004D11
   403 0001:00004D1C   404 0001:00004D21   405 0001:00004D26   406 0001:00004D32
   407 0001:00004D3E   409 0001:00004D51   410 0001:00004D67   411 0001:00004D80
   412 0001:00004D99   414 0001:00004DA4   415 0001:00004DB7   416 0001:00004DBD
   418 0001:00004DDA   420 0001:00004DF7   405 0001:00004DFA   422 0001:00004E06
   423 0001:00004E0D   443 0001:00004E14   444 0001:00004E23   445 0001:00004E3A
   446 0001:00004E4B   447 0001:00004E51   448 0001:00004E57   449 0001:00004E5A
   451 0001:00004E6B   452 0001:00004E71   453 0001:00004E7B   455 0001:00004E85
   447 0001:00004E91   458 0001:00004E97   459 0001:00004EB1   460 0001:00004EB8
   469 0001:00004EC0   470 0001:00004EC3   483 0001:00004EC4   495 0001:00004EC8
   496 0001:00004ED4   497 0001:00004F30   543 0001:00004F34   544 0001:00004F44
   545 0001:00004F86   553 0001:00004F8C   554 0001:00004F9B   555 0001:00004FE0
   651 0001:0000501B

Line numbers for larit032(larit032.pas) segment .text

   206 0001:00008014   207 0001:00008017   208 0001:00008018   209 0001:00008019
   211 0001:0000801A   212 0001:0000801C   213 0001:0000801E   214 0001:00008020
   215 0001:00008022   216 0001:00008024   217 0001:00008027   220 0001:00008029
   221 0001:0000802C   222 0001:0000802D   223 0001:0000802E   224 0001:0000802F
   225 0001:00008031   226 0001:00008032   227 0001:00008034   228 0001:00008036
   229 0001:00008038   230 0001:0000803B   231 0001:0000803E   232 0001:0000803F
   233 0001:00008042   234 0001:00008044   235 0001:00008045   236 0001:00008047
   237 0001:00008049   240 0001:0000804B   241 0001:0000804C   242 0001:0000804D
   243 0001:0000804E   244 0001:00008050   245 0001:00008051   246 0001:00008053
   247 0001:00008055   248 0001:00008058   249 0001:0000805A   250 0001:0000805B
   251 0001:0000805D   252 0001:0000805F   254 0001:00008061   255 0001:00008062
   256 0001:00008063   257 0001:00008064   258 0001:0000806A   314 0001:00008070
   316 0001:00008071   317 0001:00008073   318 0001:00008075   319 0001:00008076
   320 0001:00008078   321 0001:00008079   322 0001:0000807B   324 0001:0000807D
   325 0001:0000807E   326 0001:00008085   327 0001:00008086   329 0001:00008087
   338 0001:00008088   340 0001:00008089   341 0001:0000808B   342 0001:0000808D
   343 0001:0000808F   344 0001:00008090   345 0001:00008091   346 0001:00008093
   347 0001:00008094   348 0001:00008096   350 0001:00008098   351 0001:00008099
   352 0001:000080A0   353 0001:000080A1   355 0001:000080A2   364 0001:000080A4
   365 0001:000080A5   366 0001:000080A6   368 0001:000080A7   369 0001:000080A9
   370 0001:000080AB   371 0001:000080AC   372 0001:000080AE   373 0001:000080B0
   374 0001:000080B1   375 0001:000080B2   376 0001:000080B4   377 0001:000080B6
   378 0001:000080B8   379 0001:000080B9   380 0001:000080BB   382 0001:000080BD
   383 0001:000080BE   384 0001:000080BF   385 0001:000080C0   386 0001:000080C1
   387 0001:000080C8   389 0001:000080C9   390 0001:000080CA   391 0001:000080CB
   392 0001:000080CC   394 0001:000080CD   403 0001:000080D0   404 0001:000080D1
   405 0001:000080D2   407 0001:000080D3   408 0001:000080D5   409 0001:000080D7
   410 0001:000080D9   411 0001:000080DA   412 0001:000080DB   413 0001:000080DC
   414 0001:000080DE   415 0001:000080E0   416 0001:000080E2   417 0001:000080E3
   418 0001:000080E5   420 0001:000080E7   421 0001:000080E8   422 0001:000080E9
   423 0001:000080EA   424 0001:000080F1   426 0001:000080F2   427 0001:000080F3
   428 0001:000080F4   430 0001:000080F5   456 0001:000080F8   457 0001:00008107
   458 0001:0000810D   459 0001:00008118   457 0001:0000811C   462 0001:00008122
   463 0001:00008128   464 0001:00008133   462 0001:00008136   466 0001:0000813C
   497 0001:00008140   498 0001:00008141   500 0001:00008142   501 0001:00008144
   502 0001:00008146   503 0001:00008148   504 0001:0000814A   505 0001:0000814B
   506 0001:0000814D   507 0001:0000814E   508 0001:00008152   509 0001:00008153
   510 0001:00008155   511 0001:00008157   513 0001:0000815B   514 0001:0000815C
   515 0001:0000815D   516 0001:0000815E   525 0001:00008160   526 0001:00008161
   528 0001:00008162   529 0001:00008164   530 0001:00008166   531 0001:00008168
   532 0001:0000816A   533 0001:0000816B   534 0001:0000816D   535 0001:0000816E
   536 0001:00008172   537 0001:00008173   538 0001:00008175   539 0001:00008177
   541 0001:0000817B   542 0001:0000817C   543 0001:0000817D   544 0001:0000817E
   615 0001:00008180   616 0001:00008181   618 0001:00008182   619 0001:00008184
   620 0001:00008186   621 0001:00008188   622 0001:00008189   623 0001:0000818A
   624 0001:0000818D   625 0001:0000818F   626 0001:00008191   627 0001:00008192
   628 0001:00008195   629 0001:00008198   630 0001:0000819A   631 0001:0000819C
   632 0001:0000819D   633 0001:0000819F   634 0001:000081A1   635 0001:000081A2
   636 0001:000081A3   637 0001:000081A4   721 0001:000081A8   723 0001:000081B7
   724 0001:000081D2   727 0001:000081ED   731 0001:000081F1   732 0001:000081F2
   734 0001:000081F3   735 0001:000081F6   736 0001:000081F8   737 0001:000081FB
   738 0001:000081FD   739 0001:000081FE   741 0001:00008200   744 0001:00008207
   745 0001:0000820A   746 0001:0000820D   749 0001:0000820F   750 0001:00008212
   751 0001:00008215   752 0001:00008218   754 0001:0000821B   755 0001:0000821E
   756 0001:00008220   757 0001:00008223   758 0001:00008226   759 0001:00008229
   762 0001:0000822C   763 0001:0000822E   766 0001:00008230   767 0001:00008231
   768 0001:00008234   771 0001:00008236   772 0001:00008237   773 0001:0000823A
   774 0001:0000823C   775 0001:00008240   776 0001:00008242   777 0001:00008244
   778 0001:00008246   779 0001:0000824A   782 0001:0000824C   783 0001:0000824D
   786 0001:00008250   787 0001:00008252   788 0001:00008253   789 0001:00008254
   790 0001:00008255   791 0001:00008258   792 0001:0000825A   793 0001:0000825D
   794 0001:0000825F   795 0001:00008261   796 0001:00008265   799 0001:00008266
   800 0001:00008267   801 0001:0000826A   803 0001:0000826C   804 0001:0000826D
   805 0001:00008270   806 0001:00008272   809 0001:00008276   810 0001:00008279
   811 0001:0000827C   812 0001:0000827F   814 0001:00008281   815 0001:00008282
   819 0001:00008283   820 0001:00008290   833 0001:00008298   834 0001:000082A7
   838 0001:000082B4   839 0001:000082B5   840 0001:000082B8   841 0001:000082BA
   842 0001:000082BD   843 0001:000082BF   844 0001:000082C0   845 0001:000082C2
   849 0001:000082C3   850 0001:000082D2   851 0001:000082E1   852 0001:000082F4
   853 0001:000082FC   854 0001:00008320   855 0001:00008347   858 0001:00008350
   861 0001:00008354   863 0001:00008365   865 0001:00008377   866 0001:00008378
   867 0001:0000837B   868 0001:0000837E   870 0001:0000837F   871 0001:00008383
   874 0001:00008395   875 0001:0000839C   876 0001:000083A0   877 0001:000083AB
   878 0001:000083AD   890 0001:000083B4   891 0001:000083C3   894 0001:000083D0
   895 0001:000083DF   896 0001:000083EE   897 0001:00008401   898 0001:00008409
   899 0001:0000842D   900 0001:00008454   905 0001:0000845D   907 0001:00008481
   908 0001:00008488   909 0001:0000848C   910 0001:00008497   911 0001:00008499
  1041 0001:000084A0  1042 0001:000084A1  1043 0001:000084A3  1044 0001:000084A5
  1045 0001:000084A6  1046 0001:000084A7  1047 0001:000084A9  1048 0001:000084AB
  1049 0001:000084AC  1050 0001:000084AE  1051 0001:000084AF  1060 0001:000084B0
  1061 0001:000084B1  1062 0001:000084B3  1063 0001:000084B5  1064 0001:000084B6
  1065 0001:000084B7  1066 0001:000084B9  1067 0001:000084BB  1068 0001:000084BC
  1069 0001:000084BE  1070 0001:000084C0  1071 0001:000084C1  1072 0001:000084C3
  1073 0001:000084CA  1075 0001:000084CB  1260 0001:00008503

Line numbers for bg(bg.pas) segment .text

   304 0001:00008504   305 0001:00008513   306 0001:0000851C   419 0001:00008520
   420 0001:00008527   437 0001:00008528   439 0001:00008532   440 0001:00008565
   441 0001:0000856D   442 0001:00008574   445 0001:000085EB   446 0001:000085F5
   448 0001:00008605   450 0001:00008613   452 0001:0000862D   454 0001:00008651
   455 0001:0000865F   456 0001:0000866F   458 0001:00008693   441 0001:00008696
   459 0001:000086A0   466 0001:000086A9   471 0001:000086E7

Line numbers for datim(datim.pas) segment .text

   330 0001:000086E8   331 0001:000086FA   333 0001:00008711   336 0001:0000871A
   337 0001:00008751   338 0001:0000875C   339 0001:00008767   341 0001:000087C3
   344 0001:000087CA   365 0001:000087D0   366 0001:000087E3   367 0001:000087F8
   368 0001:000087FF   371 0001:00008804   373 0001:00008813   374 0001:0000881A
   375 0001:0000882B   379 0001:0000883C   380 0001:00008843   381 0001:0000884A
   382 0001:00008853   383 0001:00008859   387 0001:000088BF   397 0001:000088C4
   398 0001:000088D4   399 0001:000088EF   400 0001:000088F7   401 0001:000088FF
   402 0001:00008907   405 0001:0000890C   408 0001:00008918   409 0001:00008920
   411 0001:0000892C   412 0001:00008934   414 0001:00008947   418 0001:00008962
   419 0001:00008971   420 0001:00008991   421 0001:000089B4   422 0001:000089D5
   423 0001:000089E6   424 0001:00008A04   425 0001:00008A0D   426 0001:00008A16
   427 0001:00008A23   429 0001:00008A2B   484 0001:00008A34   485 0001:00008A46
   486 0001:00008A67   495 0001:00008A6C   497 0001:00008A7E   498 0001:00008A93
   499 0001:00008A9A   502 0001:00008A9C   503 0001:00008ABB   512 0001:00008AC0
   513 0001:00008ACF   514 0001:00008AD8   515 0001:00008AE0   516 0001:00008AE8
   517 0001:00008AF0   520 0001:00008AF2   521 0001:00008B03   522 0001:00008B11
   523 0001:00008B22   524 0001:00008B33   535 0001:00008B3C   536 0001:00008B42
   537 0001:00008B4B   538 0001:00008B62   565 0001:00008B68   570 0001:00008B6E
   571 0001:00008B77   573 0001:00008B8E   586 0001:00008B94   591 0001:00008B9A
   592 0001:00008BA3   594 0001:00008BBA   627 0001:00008BC0   628 0001:00008BC6
   629 0001:00008BCF   630 0001:00008BE6   709 0001:00008BEC   710 0001:00008BF1
   711 0001:00008C0F   738 0001:00008C14   739 0001:00008C20   740 0001:00008C3B
   741 0001:00008C4E   742 0001:00008C5E   751 0001:00008C64   752 0001:00008C6D
   753 0001:00008C7F   754 0001:00008C8E   755 0001:00008C9F   764 0001:00008CA4
   765 0001:00008CAD   766 0001:00008CBF   767 0001:00008CCE   768 0001:00008CDF
  1060 0001:00008CE4  1061 0001:00008CF8  1062 0001:00008D0F  1085 0001:00008D18
  1086 0001:00008D2C  1087 0001:00008D43  1242 0001:00008D83

Line numbers for dtconv(dtconv.pas) segment .text

   402 0001:00008D84   404 0001:00008D99   405 0001:00008DA7   406 0001:00008DB5
   407 0001:00008DC1   410 0001:00008DC7   411 0001:00008DCD   412 0001:00008DDB
   415 0001:00008DE7   416 0001:00008DF1   417 0001:00008DFB   418 0001:00008E92
   421 0001:00008F29   422 0001:00008F33   423 0001:00008F3D   424 0001:00008FD4
   428 0001:0000906B   429 0001:00009075   430 0001:0000910C   433 0001:0000919E
   500 0001:000091A4   501 0001:000091B4   503 0001:000091BD   506 0001:000091CB
   507 0001:000091DD   509 0001:000091F7   523 0001:000091FC   524 0001:00009213
   525 0001:00009219   526 0001:0000921F   529 0001:00009225   530 0001:0000922B
   532 0001:00009246   533 0001:00009259   534 0001:00009266   535 0001:00009273
   538 0001:00009285   540 0001:00009289   543 0001:00009293   544 0001:00009299
   545 0001:00009301   549 0001:00009369   550 0001:00009373   551 0001:0000940E
   553 0001:000094A4   566 0001:000094B4   567 0001:000094C4   569 0001:000094CD
   572 0001:000094DB   573 0001:000094ED   575 0001:00009507   610 0001:0000950C
   612 0001:0000951C   613 0001:0000952A   614 0001:00009538   615 0001:00009544
   618 0001:0000954A   621 0001:0000955E   622 0001:00009564   625 0001:000095C3
   626 0001:000095CD   630 0001:00009676   632 0001:0000971A   640 0001:00009724
   642 0001:00009733   644 0001:00009739   645 0001:0000973F   646 0001:0000974D
   649 0001:0000975E   650 0001:00009764   651 0001:00009773   653 0001:00009780
   664 0001:000097B0   665 0001:000097C4   668 0001:00009821   775 0001:00009863

Line numbers for objref(objref.pas) segment .text

   480 0001:0000989B

Line numbers for dir0(dir0.pas) segment .text

   276 0001:0000989C   277 0001:000098B6   278 0001:000098EE   326 0001:000098F8
   336 0001:0000991A   348 0001:0000993C   349 0001:00009943   350 0001:00009956
   351 0001:00009964   352 0001:00009979   353 0001:0000998D   354 0001:000099A0
   355 0001:000099CC   360 0001:000099E0   363 0001:000099FF   366 0001:00009A1E
   367 0001:00009A32   368 0001:00009A46   369 0001:00009A54   370 0001:00009A65
   371 0001:00009A76   372 0001:00009A8A   373 0001:00009A92   374 0001:00009AAC
   375 0001:00009AC5   373 0001:00009AC9   379 0001:00009ACF   381 0001:00009AD8
   383 0001:00009AED   384 0001:00009AF6   386 0001:00009B0D   388 0001:00009B18
   391 0001:00009B1C   395 0001:00009B3B   396 0001:00009B7F   397 0001:00009B8A
   398 0001:00009B9A   399 0001:00009BB2   400 0001:00009BEE   405 0001:00009C3C
   406 0001:00009C50   407 0001:00009CB3   410 0001:00009CBE   411 0001:00009CC9
   412 0001:00009CDD   414 0001:00009CE3   415 0001:00009CF7   413 0001:00009CFB
   417 0001:00009D10   418 0001:00009D17   419 0001:00009D2D   420 0001:00009D38
   410 0001:00009D4C   430 0001:00009D59   433 0001:00009D90   434 0001:00009DA4
   438 0001:00009DC2   440 0001:00009DCB   442 0001:00009E00   448 0001:00009E63
   450 0001:00009EB2   452 0001:00009ECF   456 0001:00009EE1   457 0001:00009EF5
   459 0001:00009F04   460 0001:00009F14   465 0001:00009F1F   466 0001:00009F2D
   479 0001:00009F58   480 0001:00009F75   481 0001:00009F7C   482 0001:00009F8E
   483 0001:00009FA2   552 0001:00009FA8   554 0001:00009FC2   555 0001:00009FD6
   556 0001:00009FEE   567 0001:00009FFC   750 0001:0000A004   753 0001:0000A00E
   754 0001:0000A014   755 0001:0000A01B   757 0001:0000A028   758 0001:0000A060
   760 0001:0000A069   762 0001:0000A076   764 0001:0000A0A2   765 0001:0000A0A4
   766 0001:0000A0AC   767 0001:0000A0B4   768 0001:0000A0BC   769 0001:0000A0C4
   770 0001:0000A0CA   782 0001:0000A0CE   843 0001:0000A0D8   844 0001:0000A0E7
   845 0001:0000A112   846 0001:0000A142   858 0001:0000A148   859 0001:0000A157
   860 0001:0000A182   861 0001:0000A190   890 0001:0000A194   891 0001:0000A1A3
   892 0001:0000A1CE   893 0001:0000A1DC   903 0001:0000A1E0   904 0001:0000A1F2
   905 0001:0000A207   906 0001:0000A247   907 0001:0000A281   943 0001:0000A28C
   944 0001:0000A29B   945 0001:0000A2C6   946 0001:0000A2D4   965 0001:0000A2D8
   966 0001:0000A2FA   967 0001:0000A31F   968 0001:0000A340   969 0001:0000A37C
   970 0001:0000A3AA  1003 0001:0000A3B0  1005 0001:0000A3BF  1006 0001:0000A3C7
  1007 0001:0000A3CB  1010 0001:0000A3D0  1012 0001:0000A3DC  1014 0001:0000A3ED
  1017 0001:0000A3F3  1021 0001:0000A40B  1026 0001:0000A424  1027 0001:0000A443
  1028 0001:0000A44C  1029 0001:0000A450  1031 0001:0000A452  1034 0001:0000A46A
  1035 0001:0000A4A0  1036 0001:0000A4B8  1038 0001:0000A4C6  1105 0001:0000A4CC
  1107 0001:0000A4DB  1108 0001:0000A4FA  1109 0001:0000A503  1110 0001:0000A509
  1114 0001:0000A50E  1117 0001:0000A517  1121 0001:0000A534  1122 0001:0000A592
  1124 0001:0000A5A4  1125 0001:0000A5B0  1126 0001:0000A5B6  1133 0001:0000A5B8
  1134 0001:0000A5BB  1138 0001:0000A5CC  1144 0001:0000A5D2  1178 0001:0000A5DC
  1196 0001:0000A5E8  1197 0001:0000A611  1207 0001:0000A633  1210 0001:0000A642
  1213 0001:0000A679  1214 0001:0000A699  1215 0001:0000A6A1  1220 0001:0000A6A6
  1221 0001:0000A6B5  1222 0001:0000A6C4  1223 0001:0000A6D8  1224 0001:0000A6E4
  1225 0001:0000A6F3  1226 0001:0000A705  1227 0001:0000A712  1228 0001:0000A72E
  1242 0001:0000A736  1253 0001:0000A744  1259 0001:0000A761  1260 0001:0000A771
  1262 0001:0000A78F  1265 0001:0000A79B  1268 0001:0000A7A5  1277 0001:0000A7B3
  1286 0001:0000A7C0  1288 0001:0000A7C9  1289 0001:0000A7E5  1290 0001:0000A7F2
  1299 0001:0000A7FD  1307 0001:0000A804  1309 0001:0000A80B  1310 0001:0000A817
  1311 0001:0000A826  1316 0001:0000A833  1333 0001:0000A838  1335 0001:0000A84A
  1336 0001:0000A855  1339 0001:0000A86F  1340 0001:0000A875  1341 0001:0000A887
  1345 0001:0000A8AF  1346 0001:0000A8C7  1347 0001:0000A8DF  1348 0001:0000A8FA
  1349 0001:0000A90C  1350 0001:0000A938  1360 0001:0000A963  1373 0001:0000A974
  1374 0001:0000A986  1378 0001:0000A992  1382 0001:0000A9A9  1386 0001:0000A9BA
  1388 0001:0000A9C1  1389 0001:0000A9E9  1390 0001:0000AA13  1423 0001:0000AA57

Line numbers for perfdef(perfdef.pas) segment .text

    98 0001:0000AA8F

Line numbers for perfmon0(perfmon0.pas) segment .text

   189 0001:0000AAC7

Line numbers for des(des.pas) segment .text

   899 0001:0000AAC8   900 0001:0000AAC9   901 0001:0000AACA   902 0001:0000AACB
   903 0001:0000AACC   908 0001:0000AAD1   909 0001:0000AAD4   910 0001:0000AAD6
   911 0001:0000AAD9   912 0001:0000AADB   913 0001:0000AADE   914 0001:0000AAE0
   915 0001:0000AAE3   916 0001:0000AAE5   917 0001:0000AAE8   918 0001:0000AAEA
   919 0001:0000AAED   921 0001:0000AAEF   923 0001:0000AAF2   924 0001:0000AAF5
   925 0001:0000AAF7   926 0001:0000AAFA   927 0001:0000AAFC   928 0001:0000AAFF
   929 0001:0000AB01   930 0001:0000AB04   931 0001:0000AB06   932 0001:0000AB09
   933 0001:0000AB0B   934 0001:0000AB0E   936 0001:0000AB10   938 0001:0000AB13
   939 0001:0000AB16   940 0001:0000AB18   941 0001:0000AB1B   942 0001:0000AB1D
   943 0001:0000AB20   944 0001:0000AB22   945 0001:0000AB25   946 0001:0000AB27
   947 0001:0000AB2A   948 0001:0000AB2C   949 0001:0000AB2F   951 0001:0000AB31
   953 0001:0000AB34   954 0001:0000AB37   955 0001:0000AB39   956 0001:0000AB3C
   957 0001:0000AB3E   958 0001:0000AB41   959 0001:0000AB43   960 0001:0000AB46
   961 0001:0000AB48   962 0001:0000AB4B   963 0001:0000AB4D   964 0001:0000AB50
   966 0001:0000AB52   968 0001:0000AB55   970 0001:0000AB57   971 0001:0000AB5A
   972 0001:0000AB5C   973 0001:0000AB5F   974 0001:0000AB61   975 0001:0000AB64
   976 0001:0000AB66   977 0001:0000AB69   978 0001:0000AB6B   979 0001:0000AB6E
   980 0001:0000AB70   981 0001:0000AB73   983 0001:0000AB75   985 0001:0000AB78
   986 0001:0000AB7B   987 0001:0000AB7D   988 0001:0000AB80   989 0001:0000AB82
   990 0001:0000AB85   991 0001:0000AB87   992 0001:0000AB8A   993 0001:0000AB8C
   994 0001:0000AB8F   995 0001:0000AB91   996 0001:0000AB94   998 0001:0000AB96
  1000 0001:0000AB99  1001 0001:0000AB9C  1002 0001:0000AB9E  1003 0001:0000ABA1
  1004 0001:0000ABA3  1005 0001:0000ABA6  1006 0001:0000ABA8  1007 0001:0000ABAB
  1008 0001:0000ABAD  1009 0001:0000ABB0  1010 0001:0000ABB2  1011 0001:0000ABB5
  1013 0001:0000ABB7  1015 0001:0000ABBA  1016 0001:0000ABBD  1017 0001:0000ABBF
  1018 0001:0000ABC2  1019 0001:0000ABC4  1020 0001:0000ABC7  1021 0001:0000ABC9
  1022 0001:0000ABCC  1023 0001:0000ABCE  1024 0001:0000ABD1  1025 0001:0000ABD3
  1026 0001:0000ABD6  1028 0001:0000ABD8  1030 0001:0000ABDB  1032 0001:0000ABDE
  1033 0001:0000ABE1  1034 0001:0000ABE4  1036 0001:0000ABE7  1040 0001:0000ABE8
  1041 0001:0000ABEA  1042 0001:0000ABEC  1043 0001:0000ABEF  1044 0001:0000ABF3
  1045 0001:0000ABF5  1046 0001:0000ABF8  1047 0001:0000ABFA  1048 0001:0000ABFC
  1049 0001:0000ABFF  1051 0001:0000AC01  1052 0001:0000AC04  1054 0001:0000AC06
  1055 0001:0000AC09  1056 0001:0000AC0B  1057 0001:0000AC0E  1058 0001:0000AC10
  1059 0001:0000AC13  1060 0001:0000AC15  1061 0001:0000AC18  1062 0001:0000AC1A
  1063 0001:0000AC1D  1064 0001:0000AC1F  1065 0001:0000AC22  1066 0001:0000AC24
  1067 0001:0000AC27  1069 0001:0000AC29  1070 0001:0000AC2C  1071 0001:0000AC2E
  1072 0001:0000AC31  1073 0001:0000AC33  1074 0001:0000AC36  1075 0001:0000AC38
  1076 0001:0000AC3B  1077 0001:0000AC3D  1078 0001:0000AC40  1079 0001:0000AC42
  1080 0001:0000AC45  1081 0001:0000AC47  1082 0001:0000AC4A  1084 0001:0000AC4C
  1085 0001:0000AC4F  1086 0001:0000AC51  1087 0001:0000AC54  1088 0001:0000AC56
  1089 0001:0000AC59  1090 0001:0000AC5B  1091 0001:0000AC5E  1092 0001:0000AC60
  1093 0001:0000AC63  1094 0001:0000AC65  1095 0001:0000AC68  1096 0001:0000AC6A
  1097 0001:0000AC6D  1099 0001:0000AC6F  1100 0001:0000AC72  1101 0001:0000AC74
  1102 0001:0000AC77  1103 0001:0000AC79  1104 0001:0000AC7C  1105 0001:0000AC7E
  1106 0001:0000AC81  1107 0001:0000AC83  1108 0001:0000AC86  1109 0001:0000AC88
  1110 0001:0000AC8B  1111 0001:0000AC8D  1112 0001:0000AC90  1114 0001:0000AC92
  1116 0001:0000AC94  1117 0001:0000AC97  1118 0001:0000AC99  1119 0001:0000AC9C
  1120 0001:0000AC9E  1121 0001:0000ACA1  1122 0001:0000ACA3  1123 0001:0000ACA6
  1124 0001:0000ACA8  1125 0001:0000ACAB  1126 0001:0000ACAD  1127 0001:0000ACB0
  1128 0001:0000ACB2  1129 0001:0000ACB5  1131 0001:0000ACB7  1132 0001:0000ACBA
  1133 0001:0000ACBC  1134 0001:0000ACBF  1135 0001:0000ACC1  1136 0001:0000ACC4
  1137 0001:0000ACC6  1138 0001:0000ACC9  1139 0001:0000ACCB  1140 0001:0000ACCE
  1141 0001:0000ACD0  1142 0001:0000ACD3  1143 0001:0000ACD5  1144 0001:0000ACD8
  1146 0001:0000ACDA  1147 0001:0000ACDD  1148 0001:0000ACDF  1149 0001:0000ACE2
  1150 0001:0000ACE4  1151 0001:0000ACE7  1152 0001:0000ACE9  1153 0001:0000ACEC
  1154 0001:0000ACEE  1155 0001:0000ACF1  1156 0001:0000ACF3  1157 0001:0000ACF6
  1158 0001:0000ACF8  1159 0001:0000ACFB  1162 0001:0000ACFD  1163 0001:0000AD00
  1164 0001:0000AD02  1165 0001:0000AD05  1166 0001:0000AD07  1167 0001:0000AD0A
  1168 0001:0000AD0C  1169 0001:0000AD0E  1170 0001:0000AD10  1171 0001:0000AD13
  1172 0001:0000AD15  1173 0001:0000AD18  1174 0001:0000AD1A  1175 0001:0000AD1D
  1178 0001:0000AD1F  1181 0001:0000AD20  1182 0001:0000AD26  1183 0001:0000AD28
  1184 0001:0000AD2E  1185 0001:0000AD31  1186 0001:0000AD36  1187 0001:0000AD38
  1188 0001:0000AD3D  1189 0001:0000AD40  1191 0001:0000AD45  1192 0001:0000AD4B
  1193 0001:0000AD4D  1194 0001:0000AD53  1195 0001:0000AD56  1196 0001:0000AD5B
  1197 0001:0000AD5D  1198 0001:0000AD62  1199 0001:0000AD65  1201 0001:0000AD6A
  1202 0001:0000AD70  1203 0001:0000AD72  1204 0001:0000AD78  1205 0001:0000AD7B
  1206 0001:0000AD80  1207 0001:0000AD82  1208 0001:0000AD87  1209 0001:0000AD8A
  1210 0001:0000AD90  1211 0001:0000AD92  1212 0001:0000AD98  1213 0001:0000AD9B
  1214 0001:0000ADA0  1215 0001:0000ADA2  1216 0001:0000ADA7  1217 0001:0000ADAA
  1219 0001:0000ADAF  1220 0001:0000ADB5  1221 0001:0000ADB7  1222 0001:0000ADBD
  1223 0001:0000ADC0  1224 0001:0000ADC5  1225 0001:0000ADC7  1226 0001:0000ADCC
  1227 0001:0000ADCF  1228 0001:0000ADD5  1229 0001:0000ADD7  1230 0001:0000ADDD
  1231 0001:0000ADE0  1232 0001:0000ADE5  1233 0001:0000ADE7  1234 0001:0000ADEC
  1235 0001:0000ADEF  1237 0001:0000ADF4  1238 0001:0000ADFA  1239 0001:0000ADFC
  1240 0001:0000AE02  1241 0001:0000AE05  1242 0001:0000AE0A  1243 0001:0000AE0C
  1244 0001:0000AE11  1245 0001:0000AE14  1246 0001:0000AE1A  1247 0001:0000AE1C
  1248 0001:0000AE22  1249 0001:0000AE25  1250 0001:0000AE2A  1251 0001:0000AE2C
  1252 0001:0000AE31  1253 0001:0000AE34  1255 0001:0000AE39  1256 0001:0000AE3F
  1257 0001:0000AE41  1258 0001:0000AE47  1259 0001:0000AE4A  1260 0001:0000AE4F
  1261 0001:0000AE51  1262 0001:0000AE56  1263 0001:0000AE59  1264 0001:0000AE5F
  1265 0001:0000AE61  1266 0001:0000AE67  1267 0001:0000AE6A  1268 0001:0000AE6F
  1269 0001:0000AE71  1270 0001:0000AE76  1271 0001:0000AE79  1273 0001:0000AE7E
  1274 0001:0000AE84  1275 0001:0000AE86  1276 0001:0000AE8C  1277 0001:0000AE8F
  1278 0001:0000AE94  1279 0001:0000AE96  1280 0001:0000AE9B  1281 0001:0000AE9E
  1282 0001:0000AEA4  1283 0001:0000AEA6  1284 0001:0000AEAC  1285 0001:0000AEAF
  1286 0001:0000AEB4  1287 0001:0000AEB6  1288 0001:0000AEBB  1289 0001:0000AEBE
  1291 0001:0000AEC3  1292 0001:0000AEC9  1293 0001:0000AECB  1294 0001:0000AED1
  1295 0001:0000AED4  1296 0001:0000AED9  1297 0001:0000AEDB  1298 0001:0000AEE0
  1299 0001:0000AEE3  1300 0001:0000AEE9  1301 0001:0000AEEB  1302 0001:0000AEF1
  1303 0001:0000AEF4  1304 0001:0000AEF9  1305 0001:0000AEFB  1306 0001:0000AF00
  1307 0001:0000AF03  1309 0001:0000AF08  1310 0001:0000AF0E  1311 0001:0000AF10
  1312 0001:0000AF16  1313 0001:0000AF19  1314 0001:0000AF1E  1315 0001:0000AF20
  1316 0001:0000AF25  1317 0001:0000AF28  1319 0001:0000AF2D  1320 0001:0000AF33
  1321 0001:0000AF35  1322 0001:0000AF3B  1323 0001:0000AF3E  1324 0001:0000AF43
  1325 0001:0000AF45  1326 0001:0000AF4A  1327 0001:0000AF4D  1328 0001:0000AF53
  1329 0001:0000AF55  1330 0001:0000AF5B  1331 0001:0000AF5E  1332 0001:0000AF63
  1333 0001:0000AF65  1334 0001:0000AF6A  1335 0001:0000AF6D  1337 0001:0000AF72
  1338 0001:0000AF78  1339 0001:0000AF7A  1340 0001:0000AF80  1341 0001:0000AF83
  1342 0001:0000AF88  1343 0001:0000AF8A  1344 0001:0000AF8F  1345 0001:0000AF92
  1346 0001:0000AF98  1347 0001:0000AF9A  1348 0001:0000AFA0  1349 0001:0000AFA3
  1350 0001:0000AFA8  1351 0001:0000AFAA  1352 0001:0000AFAF  1353 0001:0000AFB2
  1355 0001:0000AFB7  1356 0001:0000AFBD  1357 0001:0000AFBF  1358 0001:0000AFC5
  1359 0001:0000AFC8  1360 0001:0000AFCD  1361 0001:0000AFCF  1362 0001:0000AFD4
  1363 0001:0000AFD7  1364 0001:0000AFDD  1365 0001:0000AFDF  1366 0001:0000AFE5
  1367 0001:0000AFE8  1368 0001:0000AFED  1369 0001:0000AFEF  1370 0001:0000AFF4
  1371 0001:0000AFF7  1373 0001:0000AFFC  1374 0001:0000B002  1375 0001:0000B004
  1376 0001:0000B00A  1377 0001:0000B00D  1378 0001:0000B012  1379 0001:0000B014
  1380 0001:0000B019  1381 0001:0000B01C  1382 0001:0000B022  1383 0001:0000B024
  1384 0001:0000B02A  1385 0001:0000B02D  1386 0001:0000B032  1387 0001:0000B034
  1388 0001:0000B039  1389 0001:0000B03C  1391 0001:0000B041  1392 0001:0000B047
  1393 0001:0000B049  1394 0001:0000B04F  1395 0001:0000B052  1396 0001:0000B057
  1397 0001:0000B059  1398 0001:0000B05E  1399 0001:0000B061  1400 0001:0000B067
  1401 0001:0000B069  1402 0001:0000B06F  1403 0001:0000B072  1404 0001:0000B077
  1405 0001:0000B079  1406 0001:0000B07E  1407 0001:0000B081  1409 0001:0000B086
  1410 0001:0000B08C  1411 0001:0000B08E  1412 0001:0000B094  1413 0001:0000B097
  1414 0001:0000B09C  1415 0001:0000B09E  1416 0001:0000B0A3  1417 0001:0000B0A6
  1418 0001:0000B0AC  1419 0001:0000B0AE  1420 0001:0000B0B4  1421 0001:0000B0B7
  1422 0001:0000B0BC  1423 0001:0000B0BE  1424 0001:0000B0C3  1425 0001:0000B0C6
  1427 0001:0000B0CB  1428 0001:0000B0D1  1429 0001:0000B0D3  1430 0001:0000B0D9
  1431 0001:0000B0DC  1432 0001:0000B0E1  1433 0001:0000B0E3  1434 0001:0000B0E8
  1435 0001:0000B0EB  1437 0001:0000B0F0  1438 0001:0000B0F1  1439 0001:0000B0F2
  1440 0001:0000B0F3  1448 0001:0000B0F4  1449 0001:0000B0F5  1450 0001:0000B0F6
  1452 0001:0000B0F7  1453 0001:0000B0F9  1454 0001:0000B0FA  1455 0001:0000B0FB
  1456 0001:0000B0FE  1457 0001:0000B102  1458 0001:0000B106  1460 0001:0000B10A
  1461 0001:0000B10C  1463 0001:0000B10E  1464 0001:0000B110  1465 0001:0000B113
  1466 0001:0000B115  1467 0001:0000B118  1468 0001:0000B11A  1469 0001:0000B11D
  1470 0001:0000B11F  1471 0001:0000B122  1472 0001:0000B124  1473 0001:0000B127
  1474 0001:0000B129  1475 0001:0000B12C  1476 0001:0000B12E  1477 0001:0000B131
  1478 0001:0000B133  1480 0001:0000B136  1481 0001:0000B138  1482 0001:0000B13B
  1483 0001:0000B13D  1484 0001:0000B140  1485 0001:0000B142  1486 0001:0000B145
  1487 0001:0000B147  1488 0001:0000B14A  1489 0001:0000B14C  1490 0001:0000B14F
  1491 0001:0000B151  1492 0001:0000B154  1493 0001:0000B156  1494 0001:0000B159
  1495 0001:0000B15B  1497 0001:0000B15E  1498 0001:0000B160  1499 0001:0000B163
  1500 0001:0000B165  1501 0001:0000B168  1502 0001:0000B16A  1503 0001:0000B16D
  1504 0001:0000B16F  1505 0001:0000B172  1506 0001:0000B174  1507 0001:0000B177
  1508 0001:0000B179  1509 0001:0000B17C  1510 0001:0000B17E  1511 0001:0000B181
  1512 0001:0000B183  1514 0001:0000B186  1515 0001:0000B188  1516 0001:0000B18B
  1517 0001:0000B18D  1518 0001:0000B190  1519 0001:0000B192  1520 0001:0000B195
  1521 0001:0000B197  1522 0001:0000B19A  1523 0001:0000B19C  1524 0001:0000B19F
  1525 0001:0000B1A1  1526 0001:0000B1A4  1527 0001:0000B1A6  1528 0001:0000B1A9
  1529 0001:0000B1AB  1531 0001:0000B1AE  1532 0001:0000B1B0  1533 0001:0000B1B2
  1534 0001:0000B1B4  1535 0001:0000B1B6  1536 0001:0000B1B8  1537 0001:0000B1BA
  1538 0001:0000B1BC  1539 0001:0000B1BE  1540 0001:0000B1C0  1541 0001:0000B1C2
  1542 0001:0000B1C4  1543 0001:0000B1C6  1544 0001:0000B1C8  1545 0001:0000B1CA
  1546 0001:0000B1CC  1548 0001:0000B1CE  1549 0001:0000B1D0  1550 0001:0000B1D2
  1551 0001:0000B1D4  1552 0001:0000B1D6  1553 0001:0000B1D8  1554 0001:0000B1DA
  1555 0001:0000B1DC  1556 0001:0000B1DE  1557 0001:0000B1E0  1558 0001:0000B1E2
  1559 0001:0000B1E4  1560 0001:0000B1E6  1561 0001:0000B1E8  1562 0001:0000B1EA
  1563 0001:0000B1EC  1565 0001:0000B1EE  1566 0001:0000B1F0  1567 0001:0000B1F2
  1568 0001:0000B1F4  1569 0001:0000B1F6  1570 0001:0000B1F8  1571 0001:0000B1FA
  1572 0001:0000B1FC  1573 0001:0000B1FE  1574 0001:0000B200  1575 0001:0000B202
  1576 0001:0000B204  1577 0001:0000B206  1578 0001:0000B208  1579 0001:0000B20A
  1580 0001:0000B20C  1582 0001:0000B20E  1583 0001:0000B210  1584 0001:0000B212
  1585 0001:0000B214  1586 0001:0000B216  1587 0001:0000B218  1588 0001:0000B21A
  1589 0001:0000B21C  1590 0001:0000B21E  1591 0001:0000B220  1592 0001:0000B222
  1593 0001:0000B224  1594 0001:0000B226  1595 0001:0000B228  1596 0001:0000B22A
  1597 0001:0000B22C  1599 0001:0000B22E  1600 0001:0000B230  1605 0001:0000B232
  1607 0001:0000B233  1608 0001:0000B238  1610 0001:0000B23A  1611 0001:0000B23B
  1612 0001:0000B23D  1617 0001:0000B242  1618 0001:0000B245  1619 0001:0000B24A
  1620 0001:0000B24C  1621 0001:0000B24E  1622 0001:0000B251  1623 0001:0000B253
  1624 0001:0000B25A  1625 0001:0000B25D  1626 0001:0000B25F  1627 0001:0000B266
  1628 0001:0000B268  1630 0001:0000B26F  1631 0001:0000B271  1632 0001:0000B274
  1633 0001:0000B279  1634 0001:0000B27C  1635 0001:0000B27E  1636 0001:0000B285
  1637 0001:0000B287  1638 0001:0000B28E  1639 0001:0000B291  1640 0001:0000B293
  1641 0001:0000B29A  1642 0001:0000B29C  1644 0001:0000B2A3  1645 0001:0000B2A5
  1646 0001:0000B2A7  1648 0001:0000B2A9  1649 0001:0000B2AC  1650 0001:0000B2B2
  1651 0001:0000B2B5  1652 0001:0000B2B7  1653 0001:0000B2BA  1654 0001:0000B2BC
  1655 0001:0000B2C3  1656 0001:0000B2C6  1657 0001:0000B2C8  1658 0001:0000B2CF
  1659 0001:0000B2D1  1661 0001:0000B2D8  1662 0001:0000B2DA  1663 0001:0000B2DD
  1664 0001:0000B2E3  1665 0001:0000B2E6  1666 0001:0000B2E8  1667 0001:0000B2EF
  1668 0001:0000B2F1  1669 0001:0000B2F8  1670 0001:0000B2FB  1671 0001:0000B2FD
  1672 0001:0000B304  1673 0001:0000B306  1675 0001:0000B30D  1676 0001:0000B30F
  1677 0001:0000B311  1679 0001:0000B313  1680 0001:0000B316  1684 0001:0000B317
  1685 0001:0000B31C  1686 0001:0000B321  1687 0001:0000B326  1688 0001:0000B32B
  1689 0001:0000B330  1690 0001:0000B335  1691 0001:0000B33A  1693 0001:0000B33F
  1695 0001:0000B340  1696 0001:0000B343  1697 0001:0000B346  1698 0001:0000B349
  1701 0001:0000B34C  1702 0001:0000B34D  1704 0001:0000B34F  1705 0001:0000B351
  1706 0001:0000B354  1707 0001:0000B356  1708 0001:0000B359  1709 0001:0000B35B
  1710 0001:0000B35E  1711 0001:0000B360  1712 0001:0000B363  1713 0001:0000B365
  1714 0001:0000B368  1715 0001:0000B36A  1716 0001:0000B36D  1717 0001:0000B36F
  1718 0001:0000B372  1719 0001:0000B374  1721 0001:0000B377  1722 0001:0000B379
  1723 0001:0000B37C  1724 0001:0000B37E  1725 0001:0000B381  1726 0001:0000B383
  1727 0001:0000B386  1728 0001:0000B388  1729 0001:0000B38B  1730 0001:0000B38D
  1731 0001:0000B390  1732 0001:0000B392  1733 0001:0000B395  1734 0001:0000B397
  1735 0001:0000B39A  1736 0001:0000B39C  1738 0001:0000B39F  1739 0001:0000B3A1
  1740 0001:0000B3A3  1741 0001:0000B3A5  1742 0001:0000B3A7  1743 0001:0000B3A9
  1744 0001:0000B3AB  1745 0001:0000B3AD  1746 0001:0000B3AF  1747 0001:0000B3B1
  1748 0001:0000B3B3  1749 0001:0000B3B5  1750 0001:0000B3B7  1751 0001:0000B3B9
  1752 0001:0000B3BB  1753 0001:0000B3BD  1755 0001:0000B3BF  1756 0001:0000B3C1
  1757 0001:0000B3C3  1758 0001:0000B3C5  1759 0001:0000B3C7  1760 0001:0000B3C9
  1761 0001:0000B3CB  1762 0001:0000B3CD  1763 0001:0000B3CF  1764 0001:0000B3D1
  1765 0001:0000B3D3  1766 0001:0000B3D5  1767 0001:0000B3D7  1768 0001:0000B3D9
  1769 0001:0000B3DB  1770 0001:0000B3DD  1772 0001:0000B3DF  1774 0001:0000B3E2
  1775 0001:0000B3E4  1776 0001:0000B3E7  1777 0001:0000B3E9  1778 0001:0000B3EC
  1779 0001:0000B3EE  1780 0001:0000B3F1  1781 0001:0000B3F3  1782 0001:0000B3F6
  1783 0001:0000B3F8  1784 0001:0000B3FB  1785 0001:0000B3FD  1786 0001:0000B400
  1787 0001:0000B402  1788 0001:0000B405  1789 0001:0000B407  1791 0001:0000B40A
  1792 0001:0000B40C  1793 0001:0000B40F  1794 0001:0000B411  1795 0001:0000B414
  1796 0001:0000B416  1797 0001:0000B419  1798 0001:0000B41B  1799 0001:0000B41E
  1800 0001:0000B420  1801 0001:0000B423  1802 0001:0000B425  1803 0001:0000B428
  1804 0001:0000B42A  1805 0001:0000B42D  1806 0001:0000B42F  1808 0001:0000B432
  1809 0001:0000B434  1810 0001:0000B436  1811 0001:0000B438  1812 0001:0000B43A
  1813 0001:0000B43C  1814 0001:0000B43E  1815 0001:0000B440  1816 0001:0000B442
  1817 0001:0000B444  1818 0001:0000B446  1819 0001:0000B448  1820 0001:0000B44A
  1821 0001:0000B44C  1822 0001:0000B44E  1823 0001:0000B450  1825 0001:0000B452
  1826 0001:0000B454  1827 0001:0000B456  1828 0001:0000B458  1829 0001:0000B45A
  1830 0001:0000B45C  1831 0001:0000B45E  1832 0001:0000B460  1833 0001:0000B462
  1834 0001:0000B464  1835 0001:0000B466  1836 0001:0000B468  1837 0001:0000B46A
  1838 0001:0000B46C  1839 0001:0000B46E  1840 0001:0000B470  1842 0001:0000B472
  1844 0001:0000B474  1845 0001:0000B475  1846 0001:0000B476  1847 0001:0000B477
  2254 0001:0000B4AF

Line numbers for filedef(filedef.pas) segment .text

   208 0001:0000B4E7

Line numbers for crc0(crc0.pas) segment .text

   527 0001:0000B51F

Line numbers for md5(md5.pas) segment .text

   492 0001:0000B557

Line numbers for kbd0def(kbd0def.pas) segment .text

   235 0001:0000B58F

Line numbers for rng(rng.pas) segment .text

   304 0001:0000B5C7

Line numbers for lbit32(lbit32.pas) segment .text

    77 0001:0000B5C8    78 0001:0000B5CB   114 0001:0000B5CC   115 0001:0000B5CD
   116 0001:0000B5CE   118 0001:0000B5CF   119 0001:0000B5D1   121 0001:0000B5D6
   122 0001:0000B5D8   123 0001:0000B5DA   124 0001:0000B5DD   125 0001:0000B5DF
   126 0001:0000B5E1   127 0001:0000B5E2   128 0001:0000B5E7   129 0001:0000B5E9
   130 0001:0000B5EC   131 0001:0000B5EE   132 0001:0000B5EF   135 0001:0000B5F1
   136 0001:0000B5F3   137 0001:0000B5F6   138 0001:0000B5F8   139 0001:0000B5F9
   140 0001:0000B5FB   141 0001:0000B5FE   144 0001:0000B600   146 0001:0000B602
   147 0001:0000B603   148 0001:0000B604   149 0001:0000B605   525 0001:0000B608
   526 0001:0000B60B   527 0001:0000B60D   528 0001:0000B612   529 0001:0000B613
   530 0001:0000B616   546 0001:0000B618   547 0001:0000B624   548 0001:0000B629
   549 0001:0000B630   551 0001:0000B64A   552 0001:0000B655   555 0001:0000B671
   556 0001:0000B67B   557 0001:0000B680   558 0001:0000B694   559 0001:0000B6AC
   562 0001:0000B6C4   566 0001:0000B6FF

Line numbers for gost(gost.pas) segment .text

   179 0001:0000B737

Line numbers for gost_2(gost_2.pas) segment .text

    97 0001:0000B76F

Line numbers for gosthash(gosthash.pas) segment .text

   769 0001:0000B7A7

Line numbers for sifra(sifra.pas) segment .text

   550 0001:0000B7A8   553 0001:0000B7BA   556 0001:0000B7C8   557 0001:0000B7DA
   559 0001:0000B7ED   560 0001:0000B7F3   561 0001:0000B803   562 0001:0000B809
   563 0001:0000B817   564 0001:0000B829   571 0001:0000B82F   573 0001:0000B835
   576 0001:0000B83D   579 0001:0000B842   580 0001:0000B848   581 0001:0000B858
   582 0001:0000B85E   583 0001:0000B86C   584 0001:0000B881   591 0001:0000B885
   593 0001:0000B889   579 0001:0000B88D   597 0001:0000B893   598 0001:0000B899
   599 0001:0000B8A9   600 0001:0000B8AF   601 0001:0000B8BD   605 0001:0000B8D0
   606 0001:0000B8E0   618 0001:0000B8E8   619 0001:0000B8F7   620 0001:0000B90D
   815 0001:0000B94B

Line numbers for global(global.pas) segment .text

    65 0001:0000B94C    69 0001:0000B957    91 0001:0000B958    94 0001:0000B95C
    98 0001:0000B972   109 0001:0000B978   113 0001:0000B98A   142 0001:0000B9C3

Line numbers for file1(file1.pas) segment .text

   297 0001:0000B9C4   298 0001:0000B9CD   299 0001:0000B9D4   314 0001:0000B9D8
   316 0001:0000B9E4   318 0001:0000B9F6   320 0001:0000BA04   323 0001:0000BA14
   325 0001:0000BA21   327 0001:0000BA2F   328 0001:0000BA3B   329 0001:0000BA55
   330 0001:0000BA5B   331 0001:0000BA6B   337 0001:0000BA85   338 0001:0000BA8C
   341 0001:0000BA95   347 0001:0000BAB8   350 0001:0000BAD0   365 0001:0000BB00
   367 0001:0000BB0C   369 0001:0000BB1E   371 0001:0000BB2C   374 0001:0000BB3C
   376 0001:0000BB49   378 0001:0000BB57   379 0001:0000BB61   380 0001:0000BB82
   381 0001:0000BB8A   387 0001:0000BBA9   388 0001:0000BBB0   391 0001:0000BBB9
   397 0001:0000BBDC   400 0001:0000BBF4   412 0001:0000BC24   413 0001:0000BC33
   414 0001:0000BC40   415 0001:0000BC5F   417 0001:0000BC7A   418 0001:0000BC85
   419 0001:0000BC92   521 0001:0000BC98   522 0001:0000BCA2   523 0001:0000BCAC
   525 0001:0000BCBB   526 0001:0000BCC5   528 0001:0000BCD9   531 0001:0000BCE5
   532 0001:0000BCF9   545 0001:0000BD0B   546 0001:0000BD1A   547 0001:0000BD24
   561 0001:0000BD2F   562 0001:0000BD38   563 0001:0000BD42   564 0001:0000BD4E
   566 0001:0000BD63   568 0001:0000BD6F   572 0001:0000BD78   573 0001:0000BD81
   574 0001:0000BD8B   575 0001:0000BD93   576 0001:0000BD9D   577 0001:0000BDB1
   578 0001:0000BDC3   579 0001:0000BDD5   697 0001:0000BDDC   698 0001:0000BDED
   700 0001:0000BDF7   703 0001:0000BE03   704 0001:0000BE0A   705 0001:0000BE20
   706 0001:0000BE34   707 0001:0000BE3E   708 0001:0000BE48   715 0001:0000BE4D
   718 0001:0000BE58   728 0001:0000BE63   733 0001:0000BE6C   734 0001:0000BE71
   735 0001:0000BE89   737 0001:0000BE9D   738 0001:0000BEA6   739 0001:0000BEAF
   741 0001:0000BEB4   742 0001:0000BEBB   743 0001:0000BEC4   745 0001:0000BECB
   746 0001:0000BED2   748 0001:0000BEE2   749 0001:0000BEEB   751 0001:0000BEF2
   768 0001:0000BF02   769 0001:0000BF27   770 0001:0000BF2F   771 0001:0000BF3C
   794 0001:0000BF44   795 0001:0000BF51   798 0001:0000BF58   799 0001:0000BF61
   800 0001:0000BF6D   804 0001:0000BF79   805 0001:0000BF8E   806 0001:0000BFA3
   808 0001:0000BFAD   809 0001:0000BFB9   811 0001:0000BFCE   813 0001:0000BFDA
   816 0001:0000BFE7   817 0001:0000BFF0   818 0001:0000BFFA   819 0001:0000C00E
   820 0001:0000C018   829 0001:0000C020   830 0001:0000C02D   831 0001:0000C037
   832 0001:0000C04B   833 0001:0000C055   834 0001:0000C05D   835 0001:0000C065
   843 0001:0000C074   844 0001:0000C087   845 0001:0000C090   846 0001:0000C09A
   847 0001:0000C0AE   881 0001:0000C0B4   882 0001:0000C0C1   883 0001:0000C0CB
   884 0001:0000C0DF   885 0001:0000C0E7   887 0001:0000C0F6   888 0001:0000C109
   889 0001:0000C112   890 0001:0000C11C   891 0001:0000C130   973 0001:0000C138
   974 0001:0000C147   975 0001:0000C15B   976 0001:0000C173   977 0001:0000C181
   994 0001:0000C188  1000 0001:0000C198  1003 0001:0000C1A0  1006 0001:0000C1C2
  1007 0001:0000C1C8  1008 0001:0000C1D2  1011 0001:0000C1DD  1012 0001:0000C1ED
  1015 0001:0000C1FD  1054 0001:0000C20E  1055 0001:0000C217  1056 0001:0000C221
  1057 0001:0000C22D  1059 0001:0000C242  1061 0001:0000C24E  1062 0001:0000C25E
  1079 0001:0000C264  1085 0001:0000C274  1088 0001:0000C27C  1091 0001:0000C29E
  1092 0001:0000C2A4  1093 0001:0000C2AE  1096 0001:0000C2B9  1097 0001:0000C2C9
  1100 0001:0000C2D9  1139 0001:0000C2EA  1140 0001:0000C2F3  1141 0001:0000C2FD
  1142 0001:0000C309  1144 0001:0000C31E  1146 0001:0000C32A  1147 0001:0000C33A
  1261 0001:0000C340  1262 0001:0000C350  1263 0001:0000C355  1267 0001:0000C36F
  1268 0001:0000C379  1269 0001:0000C384  1270 0001:0000C38E  1271 0001:0000C398
  1272 0001:0000C3B9  1273 0001:0000C3C3  1277 0001:0000C3C8  1278 0001:0000C3DC
  1279 0001:0000C3E6  1280 0001:0000C3F0  1281 0001:0000C411  1282 0001:0000C41B
  1285 0001:0000C420  1286 0001:0000C434  1290 0001:0000C440  1291 0001:0000C456
  1297 0001:0000C46C  1298 0001:0000C47D  1300 0001:0000C483  1301 0001:0000C494
  1302 0001:0000C49E  1303 0001:0000C4A7  1304 0001:0000C4B1  1305 0001:0000C4D2
  1307 0001:0000C4DE  1311 0001:0000C4E7  1312 0001:0000C51A  1313 0001:0000C53B
  1314 0001:0000C545  1315 0001:0000C55C  1329 0001:0000C564  1330 0001:0000C574
  1335 0001:0000C58E  1336 0001:0000C598  1337 0001:0000C5A3  1338 0001:0000C5AD
  1339 0001:0000C5B7  1340 0001:0000C5D8  1341 0001:0000C5E2  1345 0001:0000C5E7
  1346 0001:0000C5F7  1347 0001:0000C601  1348 0001:0000C60B  1349 0001:0000C62C
  1350 0001:0000C636  1353 0001:0000C63B  1357 0001:0000C64F  1359 0001:0000C682
  1364 0001:0000C68E  1365 0001:0000C6A4  1366 0001:0000C6AE  1373 0001:0000C6BA
  1375 0001:0000C6CB  1376 0001:0000C6DC  1377 0001:0000C6E6  1378 0001:0000C6EF
  1379 0001:0000C6F9  1380 0001:0000C705  1382 0001:0000C71A  1384 0001:0000C726
  1389 0001:0000C72F  1390 0001:0000C762  1391 0001:0000C783  1392 0001:0000C78D
  1393 0001:0000C7A1  1413 0001:0000C7A8  1414 0001:0000C7B8  1415 0001:0000C7C3
  1416 0001:0000C7CD  1417 0001:0000C7D7  1418 0001:0000C7F8  1419 0001:0000C7FD
  1420 0001:0000C815  1425 0001:0000C81A  1426 0001:0000C826  1427 0001:0000C830
  1433 0001:0000C843  1438 0001:0000C84B  1439 0001:0000C867  1440 0001:0000C86F
  1441 0001:0000C87B  1443 0001:0000C886  1444 0001:0000C88E  1448 0001:0000C8A3
  1485 0001:0000C8B4  1486 0001:0000C8BD  1487 0001:0000C8C7  1488 0001:0000C8D3
  1490 0001:0000C8E8  1492 0001:0000C8F4  1497 0001:0000C901  1500 0001:0000C917
  1501 0001:0000C92F  1513 0001:0000C938  1515 0001:0000C945  1517 0001:0000C957
  1518 0001:0000C96F  1519 0001:0000C979  1526 0001:0000C98D  1527 0001:0000C992
  1529 0001:0000C9A5  1530 0001:0000C9AF  1531 0001:0000C9C3  1637 0001:0000C9C8
  1639 0001:0000C9D2  1641 0001:0000C9E4  1642 0001:0000CA03  1643 0001:0000CA0D
  1644 0001:0000CA21  1646 0001:0000CA32  1647 0001:0000CA3C  1648 0001:0000CA53
  1677 0001:0000CA58  1679 0001:0000CA65  1681 0001:0000CA77  1682 0001:0000CA8F
  1683 0001:0000CA99  1684 0001:0000CAAD  1686 0001:0000CABF  1687 0001:0000CAC9
  1688 0001:0000CADD  1732 0001:0000CAE4  1733 0001:0000CAEC  1734 0001:0000CAFC
  1737 0001:0000CB06  1739 0001:0000CB11  1746 0001:0000CB19  1747 0001:0000CB29
  1748 0001:0000CB33  1765 0001:0000CB3E  1766 0001:0000CB47  1767 0001:0000CB51
  1768 0001:0000CB5D  1770 0001:0000CB72  1772 0001:0000CB7E  1773 0001:0000CB87
  1849 0001:0000CB8C  1850 0001:0000CB96  1851 0001:0000CBB8  1852 0001:0000CBC2
  1853 0001:0000CBCD  1854 0001:0000CBD7  1855 0001:0000CBE1  1856 0001:0000CC02
  1857 0001:0000CC0C  1858 0001:0000CC11  1860 0001:0000CC13  1862 0001:0000CC27
  1863 0001:0000CC37  1865 0001:0000CC3D  1866 0001:0000CC48  1867 0001:0000CC52
  1870 0001:0000CC59  1873 0001:0000CC61  1882 0001:0000CC71  1883 0001:0000CC7B
  1884 0001:0000CC92  2760 0001:0000CC98  2761 0001:0000CCA9  2764 0001:0000CCB0
  2766 0001:0000CCBA  2770 0001:0000CCFB

Line numbers for logr(logr.pas) segment .text

   345 0001:0000CCFC   347 0001:0000CD0E   350 0001:0000CD1A   351 0001:0000CD28
   355 0001:0000CD37   356 0001:0000CD45   357 0001:0000CD56   358 0001:0000CD65
   359 0001:0000CD72   360 0001:0000CD7C   363 0001:0000CD89   364 0001:0000CDB9
   365 0001:0000CDD2   366 0001:0000CE2B   369 0001:0000CE44   373 0001:0000CE55
   377 0001:0000CE6D   380 0001:0000CE84   491 0001:0000CED3

Line numbers for err1(err1.pas) segment .text

    83 0001:0000CED4    84 0001:0000CEF4    85 0001:0000CF1A    86 0001:0000CF39
    87 0001:0000CF46    88 0001:0000CF61    89 0001:0000CF6C    90 0001:0000CF87
    92 0001:0000CF92    93 0001:0000CFA9    94 0001:0000CFCD    95 0001:0000CFEC
    96 0001:0000CFF9    97 0001:0000D014    99 0001:0000D01F   120 0001:0000D028
   121 0001:0000D058   122 0001:0000D060   125 0001:0000D068   127 0001:0000D0A8
   128 0001:0000D0AE   130 0001:0000D0F2   132 0001:0000D13B   133 0001:0000D141
   135 0001:0000D181   137 0001:0000D1D1   138 0001:0000D1DA   140 0001:0000D21C
   141 0001:0000D235   144 0001:0000D28E   145 0001:0000D29C   146 0001:0000D2AF
   147 0001:0000D2B8   150 0001:0000D2FB   151 0001:0000D2FF   152 0001:0000D309
   153 0001:0000D30D   154 0001:0000D31F   155 0001:0000D326   157 0001:0000D32B
   158 0001:0000D32E   159 0001:0000D34E   160 0001:0000D3A7   161 0001:0000D3AF
   162 0001:0000D3C2   163 0001:0000D3C9   164 0001:0000D3CF   165 0001:0000D414
   166 0001:0000D457   156 0001:0000D45E   169 0001:0000D468   170 0001:0000D475
   171 0001:0000D47C   172 0001:0000D482   173 0001:0000D4C7   177 0001:0000D50A
   178 0001:0000D514   179 0001:0000D557   180 0001:0000D59A   184 0001:0000D5DD
   185 0001:0000D5FA   186 0001:0000D606   187 0001:0000D616   188 0001:0000D61A
   194 0001:0000D632   197 0001:0000D648   198 0001:0000D657   199 0001:0000D65F
   201 0001:0000D684   211 0001:0000D758   213 0001:0000D767   215 0001:0000D76A
   216 0001:0000D77F   227 0001:0000D784   229 0001:0000D793   231 0001:0000D796
   234 0001:0000D7AC   246 0001:0000D7B4   248 0001:0000D7C3   250 0001:0000D7C6
   251 0001:0000D7CD   252 0001:0000D7E5   253 0001:0000D7EA   255 0001:0000D7EC
   256 0001:0000D7F4   250 0001:0000D7F7   257 0001:0000D7FD   258 0001:0000D80F
   259 0001:0000D840   262 0001:0000D857   265 0001:0000D879   270 0001:0000D882
   271 0001:0000D88B   272 0001:0000D893   276 0001:0000D898   278 0001:0000D8A5
   309 0001:0000D8C8   311 0001:0000D8E5   313 0001:0000D8F0   314 0001:0000D8F8
   315 0001:0000D908   319 0001:0000D947

Line numbers for nconv1(nconv1.pas) segment .text

   197 0001:0000D948   199 0001:0000D954   204 0001:0000D95F   213 0001:0000D964
   214 0001:0000D976   215 0001:0000D987   216 0001:0000D995   225 0001:0000D99C
   227 0001:0000D9AE   228 0001:0000D9BC   229 0001:0000D9C9   230 0001:0000D9D1
   231 0001:0000D9DF   234 0001:0000DA07   248 0001:0000DA1E   257 0001:0000DA24
   259 0001:0000DA36   260 0001:0000DA44   261 0001:0000DA51   262 0001:0000DA59
   263 0001:0000DA67   266 0001:0000DA8F   286 0001:0000DAA6   297 0001:0000DAAC
   298 0001:0000DABB   299 0001:0000DAD9   300 0001:0000DADF   301 0001:0000DB0F
   302 0001:0000DB1A   345 0001:0000DB24   347 0001:0000DB30   359 0001:0000DB45
   660 0001:0000DB4C   662 0001:0000DB4D   663 0001:0000DB4F   664 0001:0000DB51
   665 0001:0000DB55   666 0001:0000DB58   667 0001:0000DB5A   668 0001:0000DB61
   669 0001:0000DB65   670 0001:0000DB69   671 0001:0000DB6B   672 0001:0000DB6D
   674 0001:0000DB72   686 0001:0000DB73   787 0001:0000DB74   789 0001:0000DB86
   792 0001:0000DB9D   793 0001:0000DBAD   796 0001:0000DBC4   797 0001:0000DBD5
   798 0001:0000DBF7   801 0001:0000DC08   802 0001:0000DC11   803 0001:0000DC29
   804 0001:0000DC45   807 0001:0000DC52   808 0001:0000DC60   826 0001:0000DC64
   828 0001:0000DC76   831 0001:0000DC8D   832 0001:0000DC9D   835 0001:0000DCB4
   838 0001:0000DCC5   841 0001:0000DCD6   842 0001:0000DCDC   843 0001:0000DCE4
   844 0001:0000DCF2   845 0001:0000DCFC   846 0001:0000DD05   851 0001:0000DD0A
   852 0001:0000DD2C   855 0001:0000DD40   856 0001:0000DD49   857 0001:0000DD61
   858 0001:0000DD7D   861 0001:0000DD8A   864 0001:0000DDAB   865 0001:0000DDB1
   866 0001:0000DDE2   867 0001:0000DDF0   998 0001:0000DDF8  1001 0001:0000DE22
  1002 0001:0000DE28  1003 0001:0000DE37  1006 0001:0000DE44  1008 0001:0000DE57
  1010 0001:0000DE89  1012 0001:0000DED0  1013 0001:0000DEF3  1016 0001:0000DF05
  1017 0001:0000DF1C  1018 0001:0000DF33  1019 0001:0000DF4A  1023 0001:0000DF50
  1024 0001:0000DF57  1026 0001:0000DF62  1027 0001:0000DF69  1030 0001:0000DF97
  1031 0001:0000DFAB  1033 0001:0000DFC5  1034 0001:0000DFD9  1036 0001:0000DFE1
  1039 0001:0000DFE7  1040 0001:0000E012  1042 0001:0000E02E  1043 0001:0000E04E
  1044 0001:0000E05E  1045 0001:0000E074  1046 0001:0000E084  1048 0001:0000E089
  1049 0001:0000E093  1050 0001:0000E096  1047 0001:0000E09F  1052 0001:0000E0B1
  1061 0001:0000E0C0  1062 0001:0000E0C7  1064 0001:0000E0F3  1068 0001:0000E0F7
  1070 0001:0000E113  1071 0001:0000E127  1075 0001:0000E144  1076 0001:0000E166
  1078 0001:0000E1AE  1079 0001:0000E1BD  1080 0001:0000E1C7  1081 0001:0000E1DD
  1082 0001:0000E1ED  1084 0001:0000E1F2  1085 0001:0000E1FC  1086 0001:0000E1FF
  1083 0001:0000E208  1090 0001:0000E21A  1092 0001:0000E230  1093 0001:0000E244
  1100 0001:0000E261  1101 0001:0000E27D  1102 0001:0000E291  1103 0001:0000E29E
  1104 0001:0000E2B4  1105 0001:0000E2C4  1107 0001:0000E2C9  1108 0001:0000E2D3
  1109 0001:0000E2D6  1106 0001:0000E2DF  1112 0001:0000E2F1  1113 0001:0000E300
  1114 0001:0000E307  1116 0001:0000E30B  1118 0001:0000E333  1120 0001:0000E351
  1122 0001:0000E365  1124 0001:0000E379  1125 0001:0000E390  1126 0001:0000E3FD
  1130 0001:0000E40B  1133 0001:0000E43D  1134 0001:0000E449  1138 0001:0000E456
  1144 0001:0000E497  1404 0001:0000E4F7

Line numbers for uint64(uint64.pas) segment .text

   144 0001:0000E4F8   145 0001:0000E4FB   151 0001:0000E4FF   178 0001:0000E500
   179 0001:0000E502   186 0001:0000E506   218 0001:0000E508   219 0001:0000E50A
   226 0001:0000E50E   529 0001:0000E510   530 0001:0000E51C   531 0001:0000E532
   605 0001:0000E56F

Line numbers for timer0(timer0.pas) segment .text

   162 0001:0000E570   163 0001:0000E575   164 0001:0000E577   165 0001:0000E57C
   166 0001:0000E57E   203 0001:0000E580   204 0001:0000E584   205 0001:0000E594
   353 0001:0000E598   354 0001:0000E5A2   355 0001:0000E5CF   366 0001:0000E5D4
   368 0001:0000E5DA   369 0001:0000E5E1   371 0001:0000E5E9   372 0001:0000E5F1
   376 0001:0000E5F9   377 0001:0000E5FF   378 0001:0000E607   382 0001:0000E60F
   384 0001:0000E62B   385 0001:0000E634   541 0001:0000E638   542 0001:0000E63D
   582 0001:0000E677

Line numbers for util(util.pas) segment .text

    48 0001:0000E678    50 0001:0000E684    51 0001:0000E68A    55 0001:0000E690
    56 0001:0000E69F    60 0001:0000E6A5    64 0001:0000E6B6    65 0001:0000E6B9
    66 0001:0000E6BE    67 0001:0000E6C0    68 0001:0000E6C3    69 0001:0000E6C5
    81 0001:0000E6CA    82 0001:0000E6CD    83 0001:0000E6D2    84 0001:0000E6D5
    85 0001:0000E6DA    86 0001:0000E6DC    87 0001:0000E6DE    88 0001:0000E6E3
    89 0001:0000E6E6    90 0001:0000E6E8   102 0001:0000E6EE   181 0001:0000E72B

Line numbers for mem1(mem1.pas) segment .text

   275 0001:0000E72C   276 0001:0000E73C   277 0001:0000E74B   278 0001:0000E751
   279 0001:0000E75F   280 0001:0000E779   282 0001:0000E785   283 0001:0000E78D
   739 0001:0000E7CB

Line numbers for service(service.pas) segment .text

   624 0001:0000E804   626 0001:0000E810   628 0001:0000E816   632 0001:0000E820
   635 0001:0000E825   636 0001:0000E82F   669 0001:0000E83F   671 0001:0000E84E
   673 0001:0000E870   677 0001:0000E875   678 0001:0000E88B   680 0001:0000E894
   682 0001:0000E8B6   684 0001:0000E8BB   686 0001:0000E8CA   688 0001:0000E8DE
   689 0001:0000E8E9   693 0001:0000E8EE   694 0001:0000E906   696 0001:0000E90F
   698 0001:0000E931   699 0001:0000E93C   700 0001:0000E947   704 0001:0000E94C
   706 0001:0000E968   715 0001:0000E98C   716 0001:0000E9A8   754 0001:0000E9B5
   756 0001:0000E9D0   758 0001:0000E9F2   759 0001:0000E9FD   760 0001:0000EA08
   761 0001:0000EA13   762 0001:0000EA1E   766 0001:0000EA20   778 0001:0000EA26
   780 0001:0000EA2C   783 0001:0000EA31   786 0001:0000EA45   789 0001:0000EA4A
   792 0001:0000EA5E   795 0001:0000EA69   798 0001:0000EA7D   799 0001:0000EA88
   804 0001:0000EA8F   805 0001:0000EA9D   806 0001:0000EAA5   808 0001:0000EAAC
   826 0001:0000EC04   828 0001:0000EC0B   831 0001:0000EC16   833 0001:0000EC1C
   836 0001:0000EC27   837 0001:0000EC32   840 0001:0000EC3D   843 0001:0000EC44
   845 0001:0000EC49  1339 0001:0000EC83

Line numbers for multi(multi.pas) segment .text

   294 0001:0000EC84   295 0001:0000ECA6   296 0001:0000ECB3   297 0001:0000ECC1
   300 0001:0000ECCB   301 0001:0000ECEC   302 0001:0000ECFA   303 0001:0000ED07
   304 0001:0000ED12   307 0001:0000ED1D   310 0001:0000ED6A   311 0001:0000ED75
   314 0001:0000ED8D   317 0001:0000EDBF   327 0001:0000EDC8   328 0001:0000EDD7
   329 0001:0000EE13   339 0001:0000EE38   340 0001:0000EE47   341 0001:0000EE83
   357 0001:0000EEA4   358 0001:0000EEAD   360 0001:0000EEB2   362 0001:0000EEC0
   365 0001:0000EECA   366 0001:0000EED2   367 0001:0000EEDB   368 0001:0000EEE4
   370 0001:0000EEFC   379 0001:0000EF0D   384 0001:0000EF1E   385 0001:0000EF3B
   394 0001:0000EF5B   400 0001:0000EF6B   405 0001:0000EF86   412 0001:0000EF8D
   414 0001:0000EF9B   417 0001:0000EFB4   418 0001:0000EFC4   419 0001:0000EFCE
   423 0001:0000EFD8   426 0001:0000EFE6   429 0001:0000F00A   430 0001:0000F00D
   431 0001:0000F048   437 0001:0000F052   442 0001:0000F076   446 0001:0000F097
   451 0001:0000F0BD   456 0001:0000F0DE   458 0001:0000F0F3   536 0001:0000F114
   538 0001:0000F123   545 0001:0000F130   546 0001:0000F136   547 0001:0000F13C
   548 0001:0000F140   549 0001:0000F146   550 0001:0000F14C   551 0001:0000F159
   557 0001:0000F15F   558 0001:0000F17D   572 0001:0000F183   583 0001:0000F1C8
   584 0001:0000F1CE   587 0001:0000F1D2   609 0001:0000F1EA   613 0001:0000F1FA
   778 0001:0000F20C   780 0001:0000F215   784 0001:0000F21E   785 0001:0000F231
   790 0001:0000F24C   791 0001:0000F26D   795 0001:0000F294   796 0001:0000F29A
   799 0001:0000F2A2   800 0001:0000F2B4   801 0001:0000F2CF   810 0001:0000F2D4
   811 0001:0000F2DB   812 0001:0000F2F0   832 0001:0000F2F4   835 0001:0000F30E
   843 0001:0000F31A   846 0001:0000F32C   850 0001:0000F339   851 0001:0000F35B
   857 0001:0000F376   860 0001:0000F385   861 0001:0000F395   862 0001:0000F3AE
   879 0001:0000F3FB

Line numbers for sync(sync.pas) segment .text

   422 0001:0000F3FC   423 0001:0000F40B   424 0001:0000F418   425 0001:0000F421
   426 0001:0000F429   427 0001:0000F431   431 0001:0000F438   444 0001:0000F43C
   445 0001:0000F44B   446 0001:0000F458   448 0001:0000F465   450 0001:0000F469
   451 0001:0000F472   453 0001:0000F47D   469 0001:0000F490   470 0001:0000F49E
   472 0001:0000F4A7   574 0001:0000F4AC   576 0001:0000F4B8   577 0001:0000F4C2
   586 0001:0000F4CC   587 0001:0000F4DB   588 0001:0000F4EF   606 0001:0000F4F1
   611 0001:0000F4FF   612 0001:0000F508   674 0001:0000F521   678 0001:0000F52F
   682 0001:0000F538   694 0001:0000F542   707 0001:0000F558   709 0001:0000F564
   717 0001:0000F56E   718 0001:0000F57D   719 0001:0000F591   727 0001:0000F593
   734 0001:0000F5A1   747 0001:0000F5AA   754 0001:0000F5B1   772 0001:0000F5BF
   775 0001:0000F5CD   777 0001:0000F5D6   832 0001:0000F5EC   833 0001:0000F5F8
   834 0001:0000F605   835 0001:0000F611   843 0001:0000F618   844 0001:0000F61F
   845 0001:0000F62B   853 0001:0000F630   855 0001:0000F637   856 0001:0000F641
   859 0001:0000F64B   862 0001:0000F657   863 0001:0000F661   871 0001:0000F664
   873 0001:0000F66B   876 0001:0000F675   877 0001:0000F681  1454 0001:0000F6BB

Line numbers for mem0(mem0.pas) segment .text

   613 0001:0000F6BC   615 0001:0000F6CC   618 0001:0000F6DB   619 0001:0000F6E3
   620 0001:0000F6EA   621 0001:0000F6F0   622 0001:0000F6F7   625 0001:0000F6F9
   626 0001:0000F702   627 0001:0000F709   628 0001:0000F70F   631 0001:0000F716
   632 0001:0000F71C   715 0001:0000F720   716 0001:0000F730   719 0001:0000F73F
   721 0001:0000F756   732 0001:0000F75C   733 0001:0000F769   734 0001:0000F775
   735 0001:0000F77B   736 0001:0000F784   737 0001:0000F78B   738 0001:0000F791
   740 0001:0000F798   858 0001:0000F79C   859 0001:0000F7A2   862 0001:0000F7AB
   863 0001:0000F7AE   864 0001:0000F7B1   867 0001:0000F7B7  1230 0001:0000F7F3

Line numbers for m2(m2.pas) segment .text

   666 0001:0000F82B

Line numbers for memvm(memvm.pas) segment .text

   125 0001:0000F82C   126 0001:0000F83B   127 0001:0000F849   128 0001:0000F853
   129 0001:0000F883   130 0001:0000F88F   128 0001:0000F892   132 0001:0000F8A4
   134 0001:0000F8B6   143 0001:0000F8BC   145 0001:0000F8CB   148 0001:0000F8E5
   150 0001:0000F8FF   152 0001:0000F913   173 0001:0000F91C   175 0001:0000F92B
   178 0001:0000F948   179 0001:0000F956   181 0001:0000F967   192 0001:0000F970
   194 0001:0000F97F   197 0001:0000F98E   198 0001:0000F9A0   209 0001:0000F9A4
   211 0001:0000F9B0   214 0001:0000F9BF   215 0001:0000F9D0   227 0001:0000F9D4
   228 0001:0000F9DD   229 0001:0000F9EC   241 0001:0000F9F0   242 0001:0000F9F9
   243 0001:0000FA06   266 0001:0000FA0C   267 0001:0000FA1B   268 0001:0000FA28
   269 0001:0000FA43   271 0001:0000FA49   272 0001:0000FA51   273 0001:0000FA77
   275 0001:0000FA9B   283 0001:0000FAD4   284 0001:0000FAE3   285 0001:0000FAF0
   286 0001:0000FB0B   288 0001:0000FB11   289 0001:0000FB19   290 0001:0000FB3F
   292 0001:0000FB63   308 0001:0000FB9C   310 0001:0000FBD4   296 0001:0000FBD8
   298 0001:0000FBE1   299 0001:0000FBF0   302 0001:0000FBFF   303 0001:0000FC10
   304 0001:0000FC21   306 0001:0000FC2B

Line numbers for memmgr(memmgr.pas) segment .text

   216 0001:0000FC34   218 0001:0000FC43   219 0001:0000FC60   222 0001:0000FC6C
   225 0001:0000FC76   226 0001:0000FC85   227 0001:0000FC90   230 0001:0000FC9C
   231 0001:0000FCA5   232 0001:0000FCB4   233 0001:0000FCBE   236 0001:0000FCC8
   239 0001:0000FCD5   240 0001:0000FCDB   241 0001:0000FCF1   243 0001:0000FCF7
   246 0001:0000FD03   249 0001:0000FD10   264 0001:0000FD14   266 0001:0000FD1D
   269 0001:0000FD27   270 0001:0000FD2C   271 0001:0000FD34   272 0001:0000FD3C
   273 0001:0000FD42   271 0001:0000FD4A   277 0001:0000FD52   278 0001:0000FD58
   279 0001:0000FD64   280 0001:0000FD6E   281 0001:0000FD80   284 0001:0000FD94
   287 0001:0000FD9D   289 0001:0000FDA6   293 0001:0000FDBA   297 0001:0000FDC7
   298 0001:0000FDE0   330 0001:0000FDF8   331 0001:0000FE05   343 0001:0000FE0C
   345 0001:0000FE1B   346 0001:0000FE29   349 0001:0000FE31   352 0001:0000FE3A
   353 0001:0000FE44   356 0001:0000FE4E   357 0001:0000FE58   371 0001:0000FE60
   372 0001:0000FE6F   375 0001:0000FE76   376 0001:0000FEA4   382 0001:0000FEAA
   383 0001:0000FEBC   435 0001:0000FEC0   436 0001:0000FECF   439 0001:0000FED6
   442 0001:0000FEDC   443 0001:0000FEE4   446 0001:0000FEE9   447 0001:0000FEEE
   448 0001:0000FEF3   449 0001:0000FEFC   450 0001:0000FF01   452 0001:0000FF07
   453 0001:0000FF23   454 0001:0000FF29   458 0001:0000FF2F   459 0001:0000FF35
   450 0001:0000FF3E   463 0001:0000FF44   465 0001:0000FF4A   466 0001:0000FF50
   467 0001:0000FF5E   468 0001:0000FF6A   479 0001:0000FF7E   480 0001:0000FF86
   483 0001:0000FF8E   486 0001:0000FF9F   490 0001:0000FFA1   492 0001:0000FFD4
   496 0001:0000FFDA   497 0001:0000FFE2   498 0001:0000FFF0   501 0001:0000FFFF
   502 0001:00010005   503 0001:00010017   506 0001:0001001D   527 0001:00010024
   529 0001:00010033   530 0001:00010047   533 0001:0001004F   534 0001:0001005D
   535 0001:00010063   559 0001:0001006C   561 0001:0001007B   564 0001:00010088
   567 0001:00010090   568 0001:000100AD   570 0001:000100BA   571 0001:000100CC
   572 0001:000100D7   575 0001:000100EC   578 0001:000100FD   580 0001:000100FF
   567 0001:00010102   583 0001:00010107   584 0001:0001010F   585 0001:0001011D
   586 0001:0001012C   596 0001:00010130   645 0001:0001013F   646 0001:00010146
   649 0001:0001014D   652 0001:00010153   653 0001:00010166   656 0001:0001016E
   657 0001:00010182   660 0001:0001018A   661 0001:000101A1   662 0001:000101A9
   663 0001:000101B1   667 0001:000101B3   668 0001:000101C9   671 0001:000101D1
   672 0001:000101E2   779 0001:000101E8   800 0001:000101F0   802 0001:000101FF
   805 0001:00010209   810 0001:0001021E   811 0001:0001022B   813 0001:0001023C
   817 0001:0001024B   823 0001:00010258   825 0001:00010261   830 0001:00010270
   834 0001:0001027B   835 0001:00010286   836 0001:00010296   841 0001:000102A5
   842 0001:000102B1   843 0001:000102C3   846 0001:000102CC   864 0001:000102D0
   866 0001:000102E2   868 0001:000102E9   869 0001:000102F7   871 0001:00010305
   874 0001:0001030F   875 0001:00010317   876 0001:0001031D   877 0001:00010336
   878 0001:00010340   880 0001:00010354   875 0001:0001035C   885 0001:00010362
   888 0001:00010379   892 0001:00010382   893 0001:0001038C   898 0001:000103A0
   899 0001:000103AA   903 0001:000103BF   906 0001:000103C9   908 0001:000103DB
   911 0001:000103E5   914 0001:000103F1   915 0001:00010403   916 0001:0001040B
   917 0001:00010413   920 0001:0001041D   923 0001:00010428   927 0001:00010435
   928 0001:00010443   929 0001:0001044C   932 0001:00010457   935 0001:00010462
   936 0001:00010477   939 0001:00010486   940 0001:00010491   945 0001:000104A5
   946 0001:000104AD   947 0001:000104B3   948 0001:000104CC   950 0001:000104E0
   946 0001:000104E8   955 0001:000104FB   959 0001:00010528   960 0001:0001052B
   963 0001:00010544   989 0001:00010594   990 0001:000105A6   993 0001:000105AA
   995 0001:000105B6   996 0001:000105C4   998 0001:000105D2  1001 0001:000105DC
  1002 0001:000105E4  1003 0001:000105EA  1004 0001:00010603  1006 0001:00010617
  1002 0001:0001061F  1011 0001:00010625  1014 0001:0001062F  1017 0001:0001063A
  1018 0001:00010642  1019 0001:00010648  1020 0001:0001066C  1018 0001:00010674
  1022 0001:0001067A  1023 0001:00010680  1024 0001:00010684  1028 0001:00010686
  1029 0001:00010692  1030 0001:00010696  1033 0001:00010698  1034 0001:000106AA
  1035 0001:000106AE  1038 0001:000106B0  1039 0001:000106C5  1040 0001:000106C9
  1045 0001:000106CB  1048 0001:000106DA  1049 0001:000106E3  1053 0001:000106F7
  1057 0001:00010704  1058 0001:0001070C  1059 0001:00010712  1060 0001:0001072B
  1062 0001:0001073F  1058 0001:00010747  1067 0001:0001075A  1071 0001:00010787
  1072 0001:0001078A  1073 0001:0001079E  1078 0001:000107A7  1081 0001:000107D9
  1086 0001:00010851  1087 0001:00010897  1088 0001:000108DA  1090 0001:0001091D
  1094 0001:00010926  1095 0001:0001092D  1103 0001:00010A10  1105 0001:00010A1F
  1106 0001:00010A2D  1107 0001:00010A3B  1110 0001:00010A43  1113 0001:00010A52
  1114 0001:00010A61  1115 0001:00010A70  1116 0001:00010A7F  1119 0001:00010A8E
  1120 0001:00010AA7  1156 0001:00010B04  1158 0001:00010B23  1159 0001:00010B31
  1162 0001:00010B3B  1163 0001:00010B43  1164 0001:00010B49  1165 0001:00010B62
  1167 0001:00010B76  1163 0001:00010B7E  1172 0001:00010B84  1173 0001:00010B8E
  1176 0001:00010BA6  1177 0001:00010BB4  1181 0001:00010BBF  1184 0001:00010BC7
  1190 0001:00010BD1  1191 0001:00010BDB  1194 0001:00010BE9  1197 0001:00010BFB
  1198 0001:00010C0D  1199 0001:00010C17  1202 0001:00010C21  1203 0001:00010C2E
  1208 0001:00010C33  1211 0001:00010C49  1213 0001:00010C7B  1214 0001:00010C81
  1215 0001:00010CD7  1219 0001:00010CED  1222 0001:00010CF9  1223 0001:00010CFF
  1224 0001:00010D07  1227 0001:00010D0C  1228 0001:00010D17  1231 0001:00010D1D
  1234 0001:00010D33  1236 0001:00010D65  1237 0001:00010D6B  1238 0001:00010DC1
  1242 0001:00010DD7  1245 0001:00010DE3  1246 0001:00010DE9  1249 0001:00010DF1
  1250 0001:00010DFB  1253 0001:00010E00  1256 0001:00010E0B  1259 0001:00010E1A
  1260 0001:00010E20  1265 0001:00010E25  1267 0001:00010E40  1268 0001:00010E4C
  1271 0001:00010E70  1272 0001:00010E76  1278 0001:00010E80  1282 0001:00010E95
  1283 0001:00010E9D  1284 0001:00010EA3  1285 0001:00010EBC  1287 0001:00010ED0
  1283 0001:00010ED8  1291 0001:00010EDE  1293 0001:00010F0D  1304 0001:00010F88
  1305 0001:00010F94  1306 0001:00010F9C  1309 0001:00010FAA  1312 0001:00010FB4
  1313 0001:00010FBC  1315 0001:00010FD7  1316 0001:00010FDA  1320 0001:00010FF3
  1321 0001:00010FFB  1332 0001:00011028  1333 0001:00011031  1334 0001:00011039
  1338 0001:00011047  1339 0001:0001104F  1341 0001:00011075  1342 0001:00011078
  1345 0001:00011091  1353 0001:000110BC  1354 0001:000110C3  1355 0001:000110E5
  1406 0001:000110F4  1407 0001:00011119  1408 0001:00011127  1409 0001:0001112C
  1410 0001:0001113A  1413 0001:00011144  1414 0001:00011163  1418 0001:0001116E
  1419 0001:00011183  1420 0001:000111CA  1423 0001:000111F7  1424 0001:000111FF
  1426 0001:00011209  1427 0001:00011214  1428 0001:0001124E  1429 0001:0001126E
  1430 0001:000112BF  1431 0001:000112EF  1433 0001:000112FA  1434 0001:0001130F
  1435 0001:00011324  1438 0001:00011339  1440 0001:00011349  1441 0001:00011355
  1442 0001:000113D0  1443 0001:00011460  1439 0001:00011468  1447 0001:0001147A
  1448 0001:00011485  1449 0001:0001149A  1450 0001:000114AF  1451 0001:000114C4
  1453 0001:000114CB  1454 0001:000114D8  1455 0001:000114DD  1456 0001:000114E3
  1457 0001:000114E6  1455 0001:000114EF  1461 0001:000114F5  1462 0001:00011537
  1451 0001:0001153A  1465 0001:00011543  1466 0001:0001154E  1467 0001:00011563
  1468 0001:00011578  1469 0001:0001158D  1470 0001:00011596  1471 0001:000115A0
  1472 0001:000115AC  1473 0001:00011611  1474 0001:0001168E  1470 0001:00011697
  1478 0001:000116A1  1424 0001:000116A9  1484 0001:000116B3  1485 0001:000116BE
  1487 0001:000116D6  1490 0001:00011703  1491 0001:00011706  1494 0001:0001173F
  1519 0001:0001194F

Line numbers for mbl32(mbl32.pas) segment .text

   161 0001:00011950   162 0001:00011951   164 0001:00011952   165 0001:00011954
   167 0001:00011956   168 0001:00011957   169 0001:00011959   171 0001:0001195B
   172 0001:0001195D   173 0001:0001195F   174 0001:00011960   175 0001:00011961
   177 0001:00011963   178 0001:00011964   179 0001:00011965   226 0001:00011968
   234 0001:00011977   239 0001:0001198B   247 0001:00011990   251 0001:0001199F
   256 0001:000119AD   265 0001:000119B4   269 0001:000119C3   274 0001:000119D1
   328 0001:000119D8   335 0001:000119E7   340 0001:000119F7   348 0001:000119FC
   355 0001:00011A08   360 0001:00011A15   369 0001:00011A1C   373 0001:00011A2B
   378 0001:00011A3F   612 0001:00011A44   613 0001:00011A46   614 0001:00011A4B
   615 0001:00011A4D   616 0001:00011A52   617 0001:00011A54   619 0001:00011A59
   629 0001:00011A5C   649 0001:00011A5E   650 0001:00011A5F   652 0001:00011A60
   653 0001:00011A62   655 0001:00011A64   656 0001:00011A65   657 0001:00011A66
   658 0001:00011A68   659 0001:00011A69   661 0001:00011A6B   662 0001:00011A6C
   664 0001:00011A6D   969 0001:00011AA7

Line numbers for strg(strg.pas) segment .text

   518 0001:00011AA8   519 0001:00011AC8   520 0001:00011AD0   521 0001:00011AD6
   522 0001:00011AE7   523 0001:00011AED   524 0001:00011AF9   525 0001:00011B0E
   527 0001:00011B14   520 0001:00011B17   529 0001:00011B1D   530 0001:00011B29
   531 0001:00011B37   532 0001:00011B3E   545 0001:00011B44   546 0001:00011B61
   548 0001:00011B65   549 0001:00011B76   550 0001:00011B7C   551 0001:00011B9A
   553 0001:00011B9D   554 0001:00011BA3   555 0001:00011BAC   734 0001:00011BB4
   737 0001:00011BC0   738 0001:00011BC1   740 0001:00011BC2   741 0001:00011BC4
   742 0001:00011BC7   749 0001:00011BCA   750 0001:00011BCB   751 0001:00011BCC
   752 0001:00011BCD   753 0001:00011BCF   754 0001:00011BD2   755 0001:00011BD3
   756 0001:00011BD6   757 0001:00011BD8   758 0001:00011BDB   759 0001:00011BDD
   760 0001:00011BE0   761 0001:00011BE1   764 0001:00011BE3   765 0001:00011BE4
   770 0001:00011BE5   777 0001:00011BEC   780 0001:00011BF8   781 0001:00011BF9
   783 0001:00011BFA   784 0001:00011BFD   785 0001:00011C00   792 0001:00011C02
   793 0001:00011C03   794 0001:00011C04   795 0001:00011C05   796 0001:00011C07
   797 0001:00011C0A   798 0001:00011C0B   799 0001:00011C0E   800 0001:00011C10
   801 0001:00011C13   802 0001:00011C15   803 0001:00011C18   804 0001:00011C19
   807 0001:00011C1B   808 0001:00011C1C   813 0001:00011C1D   823 0001:00011C24
   824 0001:00011C36   825 0001:00011C4F   826 0001:00011C58   827 0001:00011C66
   835 0001:00011C6C   836 0001:00011C8E   837 0001:00011CBE   838 0001:00011CC7
   839 0001:00011CD5   847 0001:00011CDC   848 0001:00011CFE   849 0001:00011D2F
   850 0001:00011D38   851 0001:00011D46   859 0001:00011D50   860 0001:00011D72
   861 0001:00011D7D   862 0001:00011DA7   864 0001:00011DC5   865 0001:00011DD0
   867 0001:00011DF7   868 0001:00011E00   869 0001:00011E0E   922 0001:00011E14
   923 0001:00011E33   924 0001:00011E4B   925 0001:00011E51   926 0001:00011E6E
   927 0001:00011E84   928 0001:00011EA3   929 0001:00011EB1  1180 0001:00011EB8
  1182 0001:00011EB9  1183 0001:00011EBB  1184 0001:00011EBD  1186 0001:00011EBF
  1187 0001:00011EC2  1188 0001:00011EC4  1189 0001:00011EC6  1191 0001:00011EC9
  1204 0001:00011ECA  1252 0001:00011ECC  1253 0001:00011EDB  1254 0001:00011EF6
  1255 0001:00011EFD  1256 0001:00011F17  1257 0001:00011F1F  1325 0001:00011F24
  1326 0001:00011F34  1327 0001:00011F44  1328 0001:00011F66  1329 0001:00011F82
  1411 0001:00011F8C  1412 0001:00011FB0  1413 0001:00011FC9  1414 0001:00011FD7
  1795 0001:00011FE0  1796 0001:00011FF2  1797 0001:00011FF9  1798 0001:00011FFF
  1799 0001:00012009  1800 0001:00012024  1801 0001:0001205D  1802 0001:0001206B
  1918 0001:00012070  1919 0001:00012092  1920 0001:000120A5  1921 0001:000120D5
  1922 0001:000120E3  1935 0001:000120F0  1938 0001:00012112  1939 0001:00012125
  1940 0001:00012155  1941 0001:00012168  1942 0001:00012198  1943 0001:000121A6
  1956 0001:000121B8  1959 0001:000121DA  1960 0001:000121ED  1961 0001:0001221D
  1962 0001:00012230  1963 0001:00012260  1964 0001:00012273  1965 0001:000122A3
  1966 0001:000122B1  1979 0001:000122C8  1982 0001:000122EA  1983 0001:000122FD
  1984 0001:0001232D  1985 0001:00012340  1986 0001:00012370  1987 0001:00012383
  1988 0001:000123B3  1989 0001:000123C6  1990 0001:000123F6  1991 0001:00012404
  2397 0001:00012453

Line numbers for err0(err0.pas) segment .text

    32 0001:00012454    38 0001:00012461    40 0001:0001246E    42 0001:00012475
    45 0001:000124AC    64 0001:000124B1    68 0001:00012503

Line numbers for con0(con0.pas) segment .text

   123 0001:00012504   124 0001:00012510   125 0001:0001251C   129 0001:00012557

Line numbers for work0(work0.pas) segment .text

    59 0001:00012558    61 0001:00012564    63 0001:00012572    67 0001:00012581
    68 0001:0001258F    69 0001:0001259D    70 0001:000125A3    73 0001:000125B1
    78 0001:000125DC    81 0001:000125F3   161 0001:000125F8   163 0001:00012609
   168 0001:00012647

Line numbers for code0(code0.pas) segment .text

   142 0001:00012648   144 0001:0001264E   145 0001:00012656   146 0001:00012669
   147 0001:0001267C   148 0001:0001268F   149 0001:000126A2   150 0001:000126B5
   151 0001:000126C8   152 0001:000126DB   155 0001:000126EF   158 0001:0001270D
   160 0001:00012723   161 0001:00012747   162 0001:0001275D   164 0001:00012781
   165 0001:00012797   166 0001:000127AD   167 0001:000127C3   169 0001:000127D9
   170 0001:000127E6   171 0001:000127F3   180 0001:000127F8   181 0001:00012806
   182 0001:00012814   183 0001:00012822   184 0001:00012830   185 0001:0001283E
   186 0001:0001284C   187 0001:0001285A   189 0001:00012893

Line numbers for kbd0(kbd0.pas) segment .text

   456 0001:00012894   457 0001:0001289B   475 0001:0001289C   478 0001:000128A2
   479 0001:000128AA   484 0001:000128B4   485 0001:000128CB   486 0001:000128DA
   489 0001:000128F1   490 0001:000128F8   491 0001:00012901   492 0001:00012907
   493 0001:0001290F   494 0001:00012915   495 0001:0001291D   496 0001:00012923
   497 0001:0001292B   498 0001:00012931   499 0001:00012939   500 0001:0001293F
   501 0001:00012947   502 0001:0001294D   506 0001:00012955   508 0001:0001296A
   509 0001:00012973   510 0001:00012977   513 0001:0001297D   514 0001:0001299A
   515 0001:000129A8   516 0001:000129B6   517 0001:000129C4   520 0001:000129D2
   527 0001:000129E2   528 0001:00012A76   529 0001:00012A84   530 0001:00012A92
   531 0001:00012AA0   532 0001:00012AAE   533 0001:00012AB9   534 0001:00012AC4
   535 0001:00012ACF   536 0001:00012ADA   537 0001:00012AE5   538 0001:00012AF0
   539 0001:00012AFB   540 0001:00012B0F   541 0001:00012B1A   542 0001:00012B25
   545 0001:00012B2E   546 0001:00012B3F   547 0001:00012B50   548 0001:00012B59
   549 0001:00012B5F   550 0001:00012B82   552 0001:00012B8B   553 0001:00012B9B
   565 0001:00012BA4   567 0001:00012BB4   568 0001:00012BB8   569 0001:00012BC3
   572 0001:00012BDA   573 0001:00012BE2   582 0001:00012BE8   583 0001:00012BEC
   585 0001:00012BF5   586 0001:00012BFC   588 0001:00012C05   589 0001:00012C0F
   590 0001:00012C1A   604 0001:00012C57

Line numbers for kbd1(kbd1.pas) segment .text

   214 0001:00012C58   215 0001:00012C65   230 0001:00012C6B   232 0001:00012C78
   236 0001:00012C81   239 0001:00012C8D   240 0001:00012C96   241 0001:00012C9E
   242 0001:00012CAD   243 0001:00012CDE   244 0001:00012CEE   245 0001:00012CF7
   247 0001:00012CFE   241 0001:00012D02   251 0001:00012D0F   252 0001:00012D1E
   253 0001:00012D46   255 0001:00012D4D   256 0001:00012D5A   257 0001:00012DEF
   265 0001:00012E07   266 0001:00012E1A   267 0001:00012E23   268 0001:00012E2E
   269 0001:00012E38   270 0001:00012E60   274 0001:00012E6C   276 0001:00012E7A
   277 0001:00012E8D   278 0001:00012EA7   280 0001:00012EAE   281 0001:00012EBB
   282 0001:00012F50   286 0001:00012F68   287 0001:00012F90   289 0001:00012F97
   290 0001:00012FA4   291 0001:00013039   297 0001:00013051   299 0001:0001305F
   300 0001:00013072   301 0001:0001308C   303 0001:00013093   304 0001:000130A0
   305 0001:00013135   309 0001:0001314D   310 0001:00013156   311 0001:0001315E
   312 0001:0001316D   313 0001:0001319E   314 0001:000131AE   315 0001:000131B7
   317 0001:000131BE   311 0001:000131C2   320 0001:000131CF   321 0001:000131D7
   322 0001:000131E0   323 0001:00013243   326 0001:0001325F   338 0001:0001332C
   343 0001:00013330   345 0001:00013335   346 0001:00013340   349 0001:0001335B
   350 0001:00013367   485 0001:0001336C   486 0001:0001336D   487 0001:0001338B
   524 0001:000133C7

Line numbers for f_def(f_def.pas) segment .text

    77 0001:000133FF

Line numbers for dirdef(dirdef.pas) segment .text

    31 0001:00013437

Line numbers for dir4(dir4.pas) segment .text

    67 0001:00013438    68 0001:00013447    69 0001:00013457    70 0001:0001345C
    71 0001:00013463    73 0001:0001346B    76 0001:00013477    77 0001:0001348B
    82 0001:00013490    84 0001:00013498    85 0001:0001349B    87 0001:000134AD
    71 0001:000134C4    91 0001:000134CC    92 0001:000134E4   100 0001:000134F0
   101 0001:000134FF   102 0001:0001351D   136 0001:00013524   139 0001:0001354A
   140 0001:00013575   141 0001:00013586   143 0001:0001358B   144 0001:000135C8
   145 0001:000135D9   149 0001:000135DE   152 0001:00013606   153 0001:00013629
   154 0001:0001363A   158 0001:0001363F   161 0001:00013645   164 0001:0001364C
   165 0001:00013662   166 0001:0001366B   167 0001:0001366E   170 0001:00013690
   171 0001:000136C1   175 0001:000136D5   178 0001:00013717

Line numbers for cc_warn(cc_warn.pas) segment .text

   112 0001:0001387C   114 0001:0001388A   140 0001:000138E3   142 0001:000138FA
   143 0001:0001390E   144 0001:00013925   145 0001:0001393C   146 0001:00013953
   147 0001:0001396A   148 0001:00013982   149 0001:0001399A   150 0001:000139B0
   152 0001:000139C8   153 0001:000139DE   154 0001:000139F2   155 0001:00013A06
   156 0001:00013A19   157 0001:00013A2E   158 0001:00013A42   159 0001:00013A51
   162 0001:00013A63   166 0001:00013C6F

Line numbers for mem2(mem2.pas) segment .text

   154 0001:00013C70   155 0001:00013C77   156 0001:00013C84   167 0001:00013C88
   173 0001:00013C97   174 0001:00013CA4   175 0001:00013CB1   181 0001:00013CBD
   196 0001:00013CC4   205 0001:00013CD4   207 0001:00013CDB   226 0001:00013CFE
   227 0001:00013D0D   230 0001:00013D38   232 0001:00013D3E   233 0001:00013D57
   235 0001:00013D61   238 0001:00013D69   239 0001:00013D78   245 0001:00013D85
   249 0001:00013D97   250 0001:00013DA9   251 0001:00013DB2   256 0001:00013DC4
   257 0001:00013DD6   258 0001:00013DE0   261 0001:00013DEE   262 0001:00013DFD
   265 0001:00013E0A   266 0001:00013E15   271 0001:00013E20   272 0001:00013E31
   276 0001:00013E37   277 0001:00013E49   278 0001:00013E52   281 0001:00013E60
   282 0001:00013E6F   285 0001:00013E7C   286 0001:00013E87   289 0001:00013E90
   308 0001:00013E98   314 0001:00013EA8   316 0001:00013EAE   319 0001:00013EC9
   320 0001:00013ED6   322 0001:00013EDD   323 0001:00013EE3   321 0001:00013EEB
   325 0001:00013EFE   328 0001:00013F0D   329 0001:00013F1F   330 0001:00013F25
   331 0001:00013F2F   335 0001:00013F34   336 0001:00013F3D   339 0001:00013F51
   342 0001:00013F66   343 0001:00013F6C   344 0001:00013F76   345 0001:00013F83
   348 0001:00013F8D   351 0001:00013F99   356 0001:00013FA9   358 0001:00013FB8
   357 0001:00013FC0   360 0001:00013FD3   363 0001:00013FE2   364 0001:00013FFB
   365 0001:00014004   368 0001:0001400D   371 0001:00014023   376 0001:0001402E
   377 0001:00014034   538 0001:00014073

Line numbers for cc_desc(cc_desc.pas) segment .text

   151 0001:000140FB

Line numbers for cc_mem(cc_mem.pas) segment .text

    84 0001:00014158    86 0001:0001415F    87 0001:00014169    88 0001:00014175
    89 0001:0001418D    90 0001:000141A2    91 0001:000141B7   114 0001:000141BC
   116 0001:000141CB   117 0001:000141D8   121 0001:000141E5   122 0001:000141ED
   123 0001:000141FE   126 0001:00014208   134 0001:0001420C   135 0001:00014218
   136 0001:00014225   148 0001:00014232   149 0001:0001423A   150 0001:0001424B
   153 0001:00014255   165 0001:0001425C   166 0001:0001426B   168 0001:00014273
   169 0001:0001427B   170 0001:00014285   172 0001:0001428D   173 0001:000142AC
   174 0001:000142B8   175 0001:000142C9   179 0001:000142D8   181 0001:0001430D
   182 0001:00014337   183 0001:0001433D   184 0001:0001434E   188 0001:00014358
   200 0001:00014364   201 0001:00014373   203 0001:0001437B   204 0001:00014383
   205 0001:0001438D   207 0001:00014395   208 0001:000143B4   209 0001:000143BC
   210 0001:000143CD   214 0001:000143D9   216 0001:000143E1   217 0001:0001440B
   218 0001:00014411   219 0001:00014422   223 0001:0001442C   231 0001:00014434
   233 0001:00014440   237 0001:0001447B

Line numbers for cc_list(cc_list.pas) segment .text

    87 0001:00014494    88 0001:000144AA    89 0001:000144B2    90 0001:000144BA
    91 0001:000144C1    92 0001:000144CA    93 0001:000144D6   114 0001:000144DC
   116 0001:000144E8   117 0001:000144F6   121 0001:00014524   122 0001:00014535
   123 0001:0001453B   131 0001:00014540   132 0001:00014556   133 0001:0001455E
   134 0001:00014566   135 0001:0001456D   136 0001:00014576   137 0001:00014582
   158 0001:00014588   160 0001:00014597   161 0001:000145A5   165 0001:000145D3
   166 0001:000145E4   167 0001:000145F6   168 0001:000145FC   172 0001:00014637

Line numbers for cc_var(cc_var.pas) segment .text

    62 0001:0001466F

Line numbers for kbdkey(kbdkey.pas) segment .text

   470 0001:000146A7

Line numbers for cc_uniop(cc_uniop.pas) segment .text

   383 0001:000146A8   384 0001:000146AA   385 0001:000146AC   386 0001:000146AF
   387 0001:000146B2   388 0001:000146B4   389 0001:000146B6   390 0001:000146B8
   399 0001:000146BC   400 0001:000146BE   409 0001:000146C0   410 0001:000146C2
   411 0001:000146C5   412 0001:000146C7   413 0001:000146CA   422 0001:000146CC
   423 0001:000146D8   424 0001:000146E0   425 0001:000146F1   434 0001:000146F8
   435 0001:000146FA   436 0001:000146FC   437 0001:000146FF   445 0001:00014700
   446 0001:00014703   448 0001:00014704   449 0001:00014708   451 0001:0001470A
   452 0001:0001470E   453 0001:00014711   454 0001:00014714   456 0001:00014716
   458 0001:00014718   459 0001:0001471A   461 0001:0001471D   462 0001:00014721
   463 0001:00014725   464 0001:00014726   465 0001:00014728   466 0001:00014729
   477 0001:00014730   479 0001:00014731   480 0001:00014735   481 0001:00014739
   482 0001:0001473A   483 0001:0001473C   484 0001:0001473D   493 0001:00014740
   494 0001:00014742   495 0001:00014744   496 0001:00014747   497 0001:0001474A
   506 0001:0001474C   507 0001:0001474E   508 0001:00014750   509 0001:00014753
   510 0001:00014756   521 0001:00014758   522 0001:00014764   523 0001:0001476C
   524 0001:00014780   525 0001:0001478E   536 0001:00014794   537 0001:000147A0
   538 0001:000147A8   539 0001:000147BA   540 0001:000147C8   548 0001:000147CC
   549 0001:000147D8   550 0001:000147E0   551 0001:000147F0   560 0001:000147F4
   563 0001:000147F5   564 0001:000147F7   565 0001:000147FA   566 0001:000147FC
   567 0001:000147FE   568 0001:00014801   569 0001:00014803   570 0001:00014806
   573 0001:00014808   574 0001:0001480A   575 0001:0001480C   578 0001:0001480E
   579 0001:00014810   580 0001:00014813   581 0001:00014816   582 0001:00014818
   585 0001:0001481A   586 0001:0001481C   587 0001:0001481E   591 0001:00014820
   592 0001:00014822   594 0001:00014825   595 0001:00014826   604 0001:00014828
   607 0001:00014829   608 0001:0001482B   609 0001:0001482E   610 0001:00014830
   611 0001:00014832   612 0001:00014835   613 0001:00014837   614 0001:0001483A
   617 0001:0001483C   618 0001:0001483F   619 0001:00014842   620 0001:00014844
   623 0001:00014846   624 0001:00014848   625 0001:0001484B   626 0001:0001484E
   627 0001:00014850   630 0001:00014852   631 0001:00014855   632 0001:00014858
   633 0001:0001485A   637 0001:0001485D   638 0001:0001485F   640 0001:00014862
   641 0001:00014863   650 0001:00014864   651 0001:00014866   652 0001:00014868
   653 0001:0001486B   654 0001:0001486E   663 0001:00014870   664 0001:00014872
   665 0001:00014874   666 0001:00014877   667 0001:0001487A   676 0001:0001487C
   677 0001:0001487E   678 0001:00014880   679 0001:00014883   680 0001:00014886
   688 0001:00014888   689 0001:0001488F   690 0001:00014897   691 0001:000148A4
   699 0001:000148A8   700 0001:000148AF   701 0001:000148C3   710 0001:000148C8
   711 0001:000148CA   712 0001:000148CC   713 0001:000148CE   714 0001:000148D1
   715 0001:000148D3   716 0001:000148D6   725 0001:000148D8   727 0001:000148E7
   728 0001:000148F7   729 0001:00014902   730 0001:0001490F   739 0001:00014914
   740 0001:00014916   741 0001:00014918   742 0001:0001491A   743 0001:0001491D
   744 0001:00014920   745 0001:00014922   746 0001:00014927   747 0001:00014928
   748 0001:0001492A   757 0001:0001492C   758 0001:0001492E   759 0001:00014930
   760 0001:00014932   761 0001:00014935   762 0001:00014938   763 0001:0001493A
   764 0001:0001493C   765 0001:0001493D   766 0001:00014942   775 0001:00014944
   776 0001:00014947   777 0001:0001494A   786 0001:0001494C   787 0001:0001494E
   788 0001:00014951   789 0001:00014954   790 0001:00014957   798 0001:00014958
   799 0001:00014964   800 0001:00014976   801 0001:0001498E   802 0001:0001499C
   811 0001:000149A0   812 0001:000149A3   813 0001:000149A6   814 0001:000149A8
   815 0001:000149AA   816 0001:000149AC   817 0001:000149AE   818 0001:000149B0
   819 0001:000149B2   820 0001:000149B4   821 0001:000149B9   822 0001:000149BA
   834 0001:000149BC   842 0001:000149C0   843 0001:000149CC   844 0001:000149F6
   852 0001:000149FC   853 0001:00014A08   854 0001:00014A19   862 0001:00014A20
   863 0001:00014A2C   864 0001:00014A56   885 0001:00014A5C   886 0001:00014A5D
   887 0001:00014A60   890 0001:00014A62   891 0001:00014A67   892 0001:00014A69
   893 0001:00014A6E   895 0001:00014A70   896 0001:00014A74   897 0001:00014A77
   898 0001:00014A7A   899 0001:00014A7B   901 0001:00014A7D   902 0001:00014A80
   903 0001:00014A82   904 0001:00014A85   905 0001:00014A87   906 0001:00014A8C
   908 0001:00014A8E   909 0001:00014A90   910 0001:00014A93   912 0001:00014A95
   913 0001:00014A97   914 0001:00014A9A   915 0001:00014A9D   918 0001:00014A9F
   919 0001:00014AA4   920 0001:00014AA6   921 0001:00014AA8   923 0001:00014AAA
   924 0001:00014AAE   925 0001:00014AB1   926 0001:00014AB2   928 0001:00014AB4
   929 0001:00014AB7   931 0001:00014ABA   932 0001:00014ABB   942 0001:00014ABC
   943 0001:00014ABF   944 0001:00014AC1   945 0001:00014AC2   946 0001:00014AC4
   947 0001:00014AC6   948 0001:00014AC9   949 0001:00014ACC   950 0001:00014ACE
   951 0001:00014AD0   952 0001:00014AD2   960 0001:00014AD4   961 0001:00014AD6
   962 0001:00014AD8   963 0001:00014ADB   972 0001:00014ADC   973 0001:00014ADE
   974 0001:00014AE0   975 0001:00014AE3   984 0001:00014AE4   985 0001:00014AE6
   986 0001:00014AE8   987 0001:00014AEB   988 0001:00014AEE   997 0001:00014AF0
   998 0001:00014AF2   999 0001:00014AF4  1000 0001:00014AF7  1001 0001:00014AFA
  1015 0001:00014AFC  1016 0001:00014B0B  1017 0001:00014B19  1018 0001:00014B24
  1019 0001:00014B31  1020 0001:00014B3C  1021 0001:00014B47  1022 0001:00014B52
  1033 0001:00014B58  1034 0001:00014B6A  1035 0001:00014B72  1036 0001:00014B86
  1037 0001:00014B94  1048 0001:00014B9C  1049 0001:00014BAE  1050 0001:00014BB6
  1051 0001:00014BC8  1052 0001:00014BD6  1061 0001:00014BDC  1062 0001:00014BE8
  1063 0001:00014BF3  1064 0001:00014C00  1065 0001:00014C0B  1066 0001:00014C16
  1075 0001:00014C1C  1076 0001:00014C1F  1077 0001:00014C22  1078 0001:00014C24
  1079 0001:00014C26  1080 0001:00014C28  1081 0001:00014C2A  1082 0001:00014C2C
  1083 0001:00014C2E  1084 0001:00014C30  1085 0001:00014C35  1086 0001:00014C36
  1098 0001:00014C38  1106 0001:00014C3C  1107 0001:00014C48  1108 0001:00014C59
  1117 0001:00014C60  1118 0001:00014C62  1119 0001:00014C64  1120 0001:00014C66
  1121 0001:00014C69  1122 0001:00014C6C  1123 0001:00014C6E  1124 0001:00014C73
  1125 0001:00014C74  1126 0001:00014C76  1152 0001:00014C78  1153 0001:00014C7A
  1154 0001:00014C7C  1155 0001:00014C7F  1164 0001:00014C80  1165 0001:00014C83
  1166 0001:00014C85  1176 0001:00014C88  1185 0001:00014C8C  1186 0001:00014C8E
  1187 0001:00014C95  1197 0001:00014C98  1206 0001:00014C9C  1207 0001:00014C9E
  1216 0001:00014CA0  1217 0001:00014CA2  1218 0001:00014CA4  1219 0001:00014CA7
  1229 0001:00014CA8  1237 0001:00014CAC  1238 0001:00014CAF  1239 0001:00014CB2
  1240 0001:00014CB4  1249 0001:00014CB8  1250 0001:00014CBA  1251 0001:00014CBC
  1262 0001:00014CC0  1263 0001:00014CCC  1264 0001:00014CD7  1265 0001:00014CE2
  1266 0001:00014CF4  1277 0001:00014CF8  1278 0001:00014D04  1279 0001:00014D0F
  1280 0001:00014D1A  1281 0001:00014D2C  1292 0001:00014D30  1293 0001:00014D3C
  1294 0001:00014D47  1295 0001:00014D52  1296 0001:00014D64  1305 0001:00014D68
  1306 0001:00014D6A  1307 0001:00014D6C  1316 0001:00014D70  1317 0001:00014D72
  1318 0001:00014D74  1327 0001:00014D78  1328 0001:00014D7D  1329 0001:00014D7F
  1330 0001:00014D86  1348 0001:00014D88  1349 0001:00014D8A  1357 0001:00014D8C
  1358 0001:00014D8E  1367 0001:00014D90  1368 0001:00014D92  1369 0001:00014D95
  1370 0001:00014D97  1371 0001:00014D9A  1380 0001:00014D9C  1381 0001:00014D9E
  1382 0001:00014DA1  1383 0001:00014DA3  1384 0001:00014DA6  1395 0001:00014DA8
  1396 0001:00014DB4  1397 0001:00014DBF  1398 0001:00014DD0  1427 0001:00014DD4
  1428 0001:00014DD6  1437 0001:00014DD8  1438 0001:00014DDA  1442 0001:00014E13

Line numbers for filetxt(filetxt.pas) segment .text

    99 0001:00014E14   101 0001:00014E26   102 0001:00014E34   103 0001:00014E4A
   104 0001:00014E55   106 0001:00014E61   107 0001:00014E6C   110 0001:00014E74
   111 0001:00014E81   113 0001:00014E87   114 0001:00014E92   115 0001:00014E9D
   116 0001:00014EA7   117 0001:00014EB8   150 0001:00014EC4   151 0001:00014ECB
   152 0001:00014EE6   153 0001:00014EF8   154 0001:00014F03   155 0001:00014F0E
   170 0001:00014F14   172 0001:00014F24   173 0001:00014F30   174 0001:00014F3A
   177 0001:00014F3F   179 0001:00014F45   181 0001:00014F53   182 0001:00014F6D
   183 0001:00014F77   184 0001:00014F91   188 0001:00014F9C   189 0001:00014FAA
   190 0001:00014FB6   191 0001:00014FD3   192 0001:00014FFA   193 0001:00015007
   196 0001:0001500F   179 0001:0001503C   198 0001:0001504A   211 0001:00015050
   213 0001:0001505C   214 0001:00015068   215 0001:00015072   219 0001:00015077
   220 0001:0001509F   221 0001:000150A9   222 0001:000150C3   226 0001:000150CE
   227 0001:000150DC   228 0001:000150FF   229 0001:0001510E   230 0001:00015139
   233 0001:0001514C   234 0001:00015184   353 0001:00015188   354 0001:0001518F
   355 0001:0001519B   356 0001:000151A5   357 0001:000151BF   359 0001:000151CA
   534 0001:00015207

Line numbers for cc_lst0(cc_lst0.pas) segment .text

    53 0001:00015208    55 0001:00015217    56 0001:00015225    59 0001:00015233
    60 0001:00015241    61 0001:00015253    62 0001:00015264    63 0001:00015272
    64 0001:00015283    65 0001:00015290    66 0001:000152A1    68 0001:000152AB
    69 0001:000152C1    70 0001:000152C7    71 0001:000152D8    74 0001:000152E2
    83 0001:000152EC    84 0001:000152FF    85 0001:0001530E    86 0001:0001531D
    88 0001:0001532C    96 0001:00015334    97 0001:0001533B    98 0001:00015349
   106 0001:0001534C   107 0001:00015353   108 0001:00015374   109 0001:00015386
   110 0001:000153A2   111 0001:000153B3   112 0001:000153C9   115 0001:000153D3
   124 0001:000153D8   125 0001:000153E3   134 0001:000153E4   135 0001:000153EF
   143 0001:000153F0   144 0001:000153FC   145 0001:00015421   146 0001:0001545E
   147 0001:0001547A   148 0001:0001548B   149 0001:000154A1   152 0001:000154AB
   156 0001:000154E7

Line numbers for cc_dump(cc_dump.pas) segment .text

    30 0001:000154E8    32 0001:000154F4    34 0001:00015506    35 0001:0001552F
    39 0001:0001556F

Line numbers for edstr(edstr.pas) segment .text

   253 0001:000155A7

Line numbers for cc_msg(cc_msg.pas) segment .text

   129 0001:000155A8   130 0001:000155B7   131 0001:000155FB   640 0001:00015647

Line numbers for cc_text(cc_text.pas) segment .text

    88 0001:00015648    89 0001:0001564C    94 0001:0001565E    95 0001:00015678
    96 0001:00015686    97 0001:00015697    99 0001:000156A1   100 0001:000156C0
   101 0001:000156D9   102 0001:000156F6   103 0001:0001570D   104 0001:00015718
   107 0001:00015737   108 0001:00015748   109 0001:0001575E   110 0001:00015776
   111 0001:00015787   112 0001:0001579D   118 0001:000157AA   119 0001:000157BE
   120 0001:000157CC   121 0001:000157DD   122 0001:000157F3   124 0001:000157FD
   126 0001:00015808   138 0001:00015810   140 0001:00015822   141 0001:00015853
   142 0001:00015884   143 0001:000158AD   146 0001:000158B2   151 0001:000158BE
   156 0001:000158C4   158 0001:000158C9   164 0001:000158DC   165 0001:000158ED
   166 0001:000158F3   167 0001:00015904   169 0001:0001590E   170 0001:00015922
   173 0001:00015930   174 0001:0001593E   175 0001:0001594E   176 0001:00015959
   188 0001:00015970   189 0001:00015981   191 0001:00015987   192 0001:00015998
   206 0001:000159A2   207 0001:000159B6   210 0001:000159C4   211 0001:000159D5
   212 0001:000159EB   213 0001:000159FE   214 0001:00015A12   215 0001:00015A26
   216 0001:00015A2C   217 0001:00015A3C   218 0001:00015A4A   219 0001:00015A5E
   220 0001:00015A7D   221 0001:00015A92   222 0001:00015AA5   223 0001:00015AB5
   224 0001:00015AC5   225 0001:00015AD6   226 0001:00015AE5   227 0001:00015AF0
   229 0001:00015AFB   230 0001:00015B01   231 0001:00015B2C   240 0001:00015B3E
   241 0001:00015B4A   242 0001:00015B5B   243 0001:00015B6E   249 0001:00015B78
   250 0001:00015B8E   251 0001:00015BA9   252 0001:00015BB5   253 0001:00015BC6
   258 0001:00015BD0   259 0001:00015BEF   262 0001:00015C01   265 0001:00015C0E
   267 0001:00015C23   320 0001:00015C78   321 0001:00015C7E   322 0001:00015C96
   323 0001:00015CB5   324 0001:00015CE5   326 0001:00015D06   322 0001:00015D09
   327 0001:00015D0E   329 0001:00015D21   340 0001:00015D28   341 0001:00015D2C
   343 0001:00015D3E   344 0001:00015D52   348 0001:00015D85   350 0001:00015D96
   365 0001:00015D9B   368 0001:00015DA0   369 0001:00015DB4   370 0001:00015DC7
   387 0001:00015DD5   388 0001:00015DE1   399 0001:00015DE4   400 0001:00015DF5
   403 0001:00015E04   404 0001:00015E11   405 0001:00015E2B   406 0001:00015E3F
   408 0001:00015E4E   409 0001:00015E5C   412 0001:00015E68   415 0001:00015E8F
   416 0001:00015EA1   417 0001:00015EAE   418 0001:00015EBD   475 0001:00015EC8
   478 0001:00015ED1   515 0001:00015EE9   517 0001:00015EF7   518 0001:00015F09
   519 0001:00015F1B   525 0001:00015F2D   528 0001:00015F45   529 0001:00015F5D
   530 0001:00015F66   531 0001:00015F6C   532 0001:00015F7A   534 0001:00015F84
   535 0001:00015F8A   536 0001:00015F95   537 0001:00015FAD   539 0001:00015FB9
   540 0001:00015FC5   541 0001:00015FE6   542 0001:00015FEF   546 0001:00015FFC
   547 0001:00016008   555 0001:00016013   557 0001:00016027   559 0001:0001602C
   561 0001:00016031   564 0001:0001603B   567 0001:00016048   572 0001:00016070
   573 0001:0001607E   574 0001:00016087   578 0001:0001609F   690 0001:000160A4
   691 0001:000160B5   754 0001:000160B8   755 0001:000160BF   756 0001:000160CD
   760 0001:00016107

Line numbers for cc_lex0(cc_lex0.pas) segment .text

    47 0001:00016108    48 0001:00016114    49 0001:00016119    52 0001:00016120
    53 0001:00016130    54 0001:0001614D    55 0001:00016156    56 0001:0001615C
    58 0001:00016164    60 0001:00016186    62 0001:000161A1    63 0001:000161A7
    76 0001:000161AC    77 0001:000161BE    80 0001:000161C5    78 0001:000161C8
    82 0001:0001621C    84 0001:00016222    85 0001:0001623B    88 0001:00016256
    89 0001:0001625C    91 0001:00016263   109 0001:0001626C   110 0001:00016295
   111 0001:0001629C   131 0001:000162A6   133 0001:000162BF   116 0001:000162C7
   137 0001:000162D4   138 0001:000162DC   141 0001:000162E1   143 0001:00016307
   144 0001:0001630D   147 0001:00016320   148 0001:00016328   149 0001:0001632E
   150 0001:00016337   151 0001:00016348   153 0001:00016352   156 0001:0001635C
   157 0001:00016375   155 0001:0001637D   162 0001:0001638A   163 0001:00016399
   164 0001:000163AC   166 0001:000163B4   167 0001:000163BF   168 0001:000163D2
   171 0001:000163DA   172 0001:000163E0   171 0001:000163E8   174 0001:000163EE
   175 0001:000163F7   176 0001:00016408   178 0001:00016412   182 0001:0001641C
   183 0001:00016435   181 0001:0001643D   188 0001:0001644A   191 0001:0001644F
   192 0001:00016472   193 0001:00016478   194 0001:00016489   196 0001:00016493
   198 0001:0001649F   201 0001:000164B2   204 0001:000164C3   208 0001:000164CE
   209 0001:000164D8   211 0001:0001651A   214 0001:00016523   218 0001:0001652B
   219 0001:0001654D   220 0001:00016561   221 0001:00016572   223 0001:0001657C
   228 0001:00016582   231 0001:00016589   232 0001:00016591   233 0001:00016597
   234 0001:000165AC   235 0001:000165BD   237 0001:000165C7   241 0001:000165D1
   242 0001:000165EA   240 0001:000165F2   245 0001:0001660B   248 0001:00016610
   249 0001:00016631   250 0001:00016637   251 0001:00016648   253 0001:00016652
   257 0001:0001665A   260 0001:0001666B   266 0001:00016673   268 0001:00016678
   269 0001:0001669A   270 0001:000166A0   271 0001:000166B1   273 0001:000166BB
   277 0001:000166C3   280 0001:000166D4   282 0001:000166FA   297 0001:00016704
   299 0001:00016713   300 0001:00016725   301 0001:0001672B   302 0001:0001673C
   304 0001:00016746   309 0001:0001674E   310 0001:00016761   311 0001:00016772
   313 0001:0001677C   314 0001:00016784   315 0001:00016786   308 0001:00016789
   319 0001:0001678F   320 0001:0001679D   348 0001:000167A4   350 0001:000167B0
   351 0001:000167C0   354 0001:00016807   357 0001:00016849   361 0001:00016853
   363 0001:00016868   365 0001:00016895   366 0001:000168A9   367 0001:000168B2
   369 0001:000168B8   370 0001:000168D3   371 0001:000168DA   372 0001:000168E4
   373 0001:000168EF   376 0001:000168FF   377 0001:00016908   378 0001:00016914
   382 0001:00016922   385 0001:00016932   388 0001:00016943   390 0001:00016950
   393 0001:00016966   396 0001:00016977   398 0001:00016986   402 0001:000169DE
   405 0001:000169EB   407 0001:000169F6   408 0001:000169FF   409 0001:00016A10
   411 0001:00016A1A   412 0001:00016A1F   415 0001:00016A24   416 0001:00016A2D
   417 0001:00016A3E   418 0001:00016A49   420 0001:00016A52   421 0001:00016A63
   422 0001:00016A72   425 0001:00016A88   426 0001:00016A8D   431 0001:00016A8F
   432 0001:00016AA0   433 0001:00016AAF   435 0001:00016AC0   439 0001:00016AC5
   383 0001:00016AD0   443 0001:00016AE6   446 0001:00016AEB   447 0001:00016AF4
   450 0001:00016B2E   454 0001:00016B63   455 0001:00016B6C   468 0001:00016B7C
   469 0001:00016B82   470 0001:00016B88   471 0001:00016BAF   472 0001:00016BD6
   473 0001:00016BEB   476 0001:00016BFF   480 0001:00016C07   481 0001:00016C13
   482 0001:00016C1F   483 0001:00016C25   484 0001:00016C36   485 0001:00016C43
   487 0001:00016C4D   488 0001:00016C54   505 0001:00016C58   506 0001:00016C6B
   508 0001:00016C72   511 0001:00016C7A   512 0001:00016C80   511 0001:00016C88
   516 0001:00016C8E   517 0001:00016CB7   520 0001:00016CE0   522 0001:00016CF7
   525 0001:00016D03   527 0001:00016D0C   528 0001:00016D26   526 0001:00016D2E
   531 0001:00016D3D   535 0001:00016D4A   554 0001:00016D4E   556 0001:00016D68
   557 0001:00016D70   562 0001:00016D8B   566 0001:00016D8F   569 0001:00016D94
   570 0001:00016DA5   574 0001:00016DB2   575 0001:00016DB8   577 0001:00016DC6
   579 0001:00016DDC   582 0001:00016DF3   583 0001:00016E05   584 0001:00016E0B
   589 0001:00016E20   591 0001:00016E2D   593 0001:00016E39   594 0001:00016E3E
   595 0001:00016E50   599 0001:00016E60   601 0001:00016E6A   604 0001:00016E76
   605 0001:00016E7E   608 0001:00016EE4   609 0001:00016EEF   610 0001:00016EFA
   611 0001:00016F00   614 0001:00016F09   615 0001:00016F11   616 0001:00016F1B
   617 0001:00016F2C   619 0001:00016F36   624 0001:00016F40   626 0001:00016F4A
   629 0001:00016F56   632 0001:00016F69   633 0001:00016F71   634 0001:00016F76
   639 0001:00016F81   640 0001:00016F8C   645 0001:00016FAE   646 0001:00016FBC
   647 0001:00016FEE   649 0001:00016FF4   653 0001:00017004   655 0001:0001700A
   657 0001:00017016   658 0001:0001701B   659 0001:0001703B   663 0001:0001704B
   665 0001:00017055   667 0001:00017061   668 0001:00017068   669 0001:00017082
   671 0001:0001708C   672 0001:000170A6   670 0001:000170AE   676 0001:000170C7
   679 0001:000170CC   682 0001:000170DD   683 0001:000170E3   684 0001:000170F3
   688 0001:00017105   690 0001:0001710F   692 0001:0001711B   693 0001:00017122
   694 0001:0001713C   696 0001:00017146   697 0001:00017160   695 0001:00017168
   701 0001:00017181   704 0001:00017186   707 0001:00017197   708 0001:0001719D
   709 0001:000171AD   713 0001:000171BF   714 0001:000171C5   715 0001:000171CA
   719 0001:000171D5   724 0001:000171DF   725 0001:000171ED   727 0001:000171F9
   729 0001:00017208   730 0001:00017210   732 0001:00017223   736 0001:0001723A
   739 0001:00017248   740 0001:00017250   744 0001:0001725F   745 0001:0001726D
   746 0001:00017278   752 0001:00017283   753 0001:0001729A   756 0001:000172A2
   757 0001:000172B3   759 0001:000172BD   763 0001:000172C7   764 0001:000172CD
   765 0001:000172DE   766 0001:000172E8   772 0001:000172F7   773 0001:000172FD
   774 0001:00017303   778 0001:0001730B   779 0001:0001731C   780 0001:0001732A
   781 0001:00017332   785 0001:0001733A   786 0001:00017345   791 0001:0001734D
   792 0001:0001735E   796 0001:00017368   797 0001:00017374   800 0001:000173BF

Line numbers for cc_sym(cc_sym.pas) segment .text

   254 0001:000173C0   255 0001:000173C1   258 0001:000173C2   259 0001:000173C5
   260 0001:000173C8   261 0001:000173CA   264 0001:000173CF   265 0001:000173D1
   266 0001:000173D3   267 0001:000173D5   268 0001:000173D6   269 0001:000173D8
   270 0001:000173DB   271 0001:000173DE   272 0001:000173E0   273 0001:000173E3
   274 0001:000173E6   275 0001:000173E8   276 0001:000173EA   277 0001:000173EC
   278 0001:000173EE   279 0001:000173F1   280 0001:000173F2   283 0001:000173F4
   285 0001:000173F6   286 0001:000173F7   287 0001:000173F8   300 0001:000173FC
   302 0001:00017405   303 0001:0001740F   304 0001:0001741C   305 0001:00017427
   306 0001:00017431   307 0001:00017439   308 0001:00017441   319 0001:00017448
   321 0001:00017451   322 0001:0001745B   323 0001:00017464   324 0001:0001746F
   325 0001:00017477   326 0001:00017481   327 0001:00017487   328 0001:0001748F
   339 0001:00017494   341 0001:0001749D   342 0001:000174A8   343 0001:000174B5
   344 0001:000174BF   345 0001:000174C9   346 0001:000174D1   347 0001:000174DB
   358 0001:000174E0   360 0001:000174E9   361 0001:000174F4   362 0001:000174FC
   363 0001:00017507   364 0001:00017510   365 0001:0001751B   366 0001:00017521
   367 0001:00017529   384 0001:00017530   387 0001:00017534   388 0001:00017535
   389 0001:00017536   391 0001:00017537   392 0001:00017538   395 0001:0001753C
   396 0001:0001753F   397 0001:00017542   404 0001:00017544   405 0001:00017547
   406 0001:0001754A   411 0001:0001754C   412 0001:00017550   413 0001:00017553
   418 0001:00017555   419 0001:00017558   422 0001:0001755B   423 0001:0001755E
   424 0001:00017561   425 0001:00017563   426 0001:00017565   427 0001:00017567
   428 0001:00017569   431 0001:0001756B   432 0001:0001756E   435 0001:00017570
   436 0001:00017572   437 0001:00017576   438 0001:00017578   439 0001:0001757B
   442 0001:0001757D   443 0001:0001757F   444 0001:00017581   445 0001:00017585
   446 0001:00017587   449 0001:0001758A   450 0001:0001758B   451 0001:0001758C
   500 0001:0001758D   501 0001:00017593   502 0001:000175A4   504 0001:000175B4
   505 0001:000175BA   509 0001:000175C9   510 0001:000175D3   513 0001:000175DD
   514 0001:000175F0   518 0001:00017611   519 0001:0001761B   520 0001:00017623
   524 0001:00017632   525 0001:00017641   526 0001:0001764E   527 0001:00017658
   528 0001:00017660   533 0001:0001766B   534 0001:00017675   537 0001:00017680
   538 0001:00017696   542 0001:000176B8   543 0001:000176C3   544 0001:000176CB
   548 0001:000176DA   549 0001:000176E5   550 0001:000176F3   551 0001:000176FD
   552 0001:00017705   555 0001:0001770B   572 0001:00017710   574 0001:0001771F
   575 0001:0001772C   576 0001:0001773C   577 0001:00017743   578 0001:0001774B
   579 0001:00017754   581 0001:00017764   585 0001:00017772   588 0001:00017781
   595 0001:00017792   623 0001:000177AC   624 0001:000177C1   635 0001:000177C8
   637 0001:000177D4   640 0001:000177DD   646 0001:000177E9   649 0001:000177FB
   659 0001:00017819   662 0001:00017822   663 0001:0001782B   668 0001:00017836
   669 0001:00017842   670 0001:0001784E   672 0001:00017857   680 0001:00017860
   682 0001:0001786F   685 0001:00017888   686 0001:00017892   687 0001:0001789D
   695 0001:000178A4   696 0001:000178B3   697 0001:000178C1   698 0001:000178CE
   699 0001:000178D6   704 0001:000178EA   712 0001:000178F0   716 0001:000178FF
   719 0001:00017942   720 0001:0001794B   721 0001:0001796A   722 0001:00017989
   723 0001:000179A3   725 0001:000179BD   737 0001:000179C4   739 0001:000179D4
   742 0001:000179E7   743 0001:000179EF   746 0001:000179FB   747 0001:00017A09
   748 0001:00017A22   772 0001:00017A7F   773 0001:00017A8A   775 0001:00017A9F
   836 0001:00017AE5   840 0001:00017AF1   843 0001:00017AFE   844 0001:00017B08
   861 0001:00017B10   862 0001:00017B1F   863 0001:00017B25   865 0001:00017B2C
   867 0001:00017B37   919 0001:00017B3D   920 0001:00017B5D   921 0001:00017B65
   924 0001:00017B67   926 0001:00017B98   867 0001:00017BA0   929 0001:00017BA6
   945 0001:00017BAC   946 0001:00017BBB   949 0001:00017BC1   950 0001:00017BD2
   951 0001:00017BF9   954 0001:00017C01   955 0001:00017C0F   956 0001:00017C1A
   957 0001:00017C20   972 0001:00017C2C   973 0001:00017C3B   974 0001:00017C60
   975 0001:00017C68   976 0001:00017C89   978 0001:00017C91   973 0001:00017C94
   979 0001:00017C99   993 0001:00017CA4   995 0001:00017CB3   996 0001:00017CBB
   997 0001:00017CC2   998 0001:00017CCD  1000 0001:00017CD2  1003 0001:00017CD8
  1004 0001:00017CF1  1008 0001:00017CF7  1009 0001:00017D0A  1012 0001:00017D10
  1013 0001:00017D19  1014 0001:00017D1F  1017 0001:00017D25  1018 0001:00017D2B
  1019 0001:00017D34  1020 0001:00017D3F  1033 0001:00017D48  1035 0001:00017D57
  1036 0001:00017D5F  1037 0001:00017D66  1038 0001:00017D71  1040 0001:00017D76
  1043 0001:00017D8F  1044 0001:00017D95  1045 0001:00017D9E  1046 0001:00017DA9
  1058 0001:00017DB0  1060 0001:00017DBF  1061 0001:00017DC7  1062 0001:00017DD2
  1063 0001:00017DD9  1066 0001:00017DDE  1069 0001:00017DEF  1070 0001:00017DF5
  1071 0001:00017DFE  1072 0001:00017E09  1119 0001:00017E10  1120 0001:00017E1F
  1122 0001:00017E25  1127 0001:00017E35  1128 0001:00017E4A  1129 0001:00017E6E
  1132 0001:00017E7A  1137 0001:00017E8A  1140 0001:00017EA6  1143 0001:00017EAE
  1144 0001:00017EC1  1148 0001:00017ECC  1149 0001:00017ED5  1154 0001:00017EDA
  1157 0001:00017EE4  1162 0001:00017EF6  1163 0001:00017F1E  1165 0001:00017F24
  1166 0001:00017F37  1167 0001:00017F3F  1172 0001:00017F41  1173 0001:00017F47
  1174 0001:00017F56  1134 0001:00017F63  1178 0001:00017F6F  1179 0001:00017F92
  1180 0001:00017FB6  1182 0001:00017FBC  1194 0001:00017FC4  1195 0001:00017FD3
  1196 0001:00017FDB  1197 0001:00017FE6  1198 0001:00017FEA  1199 0001:00017FF3
  1200 0001:00017FFC  1201 0001:00018005  1202 0001:0001802B  1213 0001:00018034
  1214 0001:0001803D  1215 0001:00018045  1216 0001:00018050  1217 0001:00018054
  1218 0001:0001807A  1232 0001:00018080  1234 0001:0001808F  1235 0001:00018097
  1236 0001:0001809E  1239 0001:000180A9  1240 0001:000180B3  1243 0001:000180BC
  1244 0001:000180C7  1262 0001:000180CC  1264 0001:000180D8  1265 0001:000180E1
  1266 0001:000180EA  1267 0001:000180F3  1270 0001:000180FC  1272 0001:00018106
  1276 0001:00018125  1277 0001:0001812B  1278 0001:00018135  1281 0001:0001813D
  1282 0001:00018144  1288 0001:00018153  1289 0001:00018164  1292 0001:00018185
  1293 0001:00018193  1295 0001:00018199  1297 0001:000181A9  1305 0001:000181BA
  1303 0001:000181BD  1307 0001:000181F3  1310 0001:00018201  1315 0001:0001820D
  1316 0001:00018226  1317 0001:00018230  1320 0001:00018238  1321 0001:00018242
  1327 0001:00018247  1328 0001:00018250  1331 0001:0001825C  1271 0001:00018268
  1336 0001:00018278  1337 0001:0001827E  1338 0001:00018287  1341 0001:00018292
  1342 0001:0001829B  1343 0001:000182A4  1344 0001:000182AD  1345 0001:000182B6
  1356 0001:000182C8  1357 0001:000182D4  1358 0001:000182EA  1359 0001:00018306
  1360 0001:00018311  1368 0001:0001831C  1369 0001:0001832D  1370 0001:00018333
  1371 0001:00018349  1374 0001:0001835C  1375 0001:000183A3  1376 0001:00018421
  1377 0001:0001842D  1378 0001:0001843E  1379 0001:000184A8  1381 0001:000184BC
  1382 0001:0001854A  1383 0001:0001859C  1373 0001:000185A5  1385 0001:000185B7
  1387 0001:000185D6  1395 0001:0001860C  1396 0001:00018613  1397 0001:0001861A
  1398 0001:00018621  1399 0001:00018628  1410 0001:0001862C  1412 0001:00018638
  1413 0001:00018641  1414 0001:00018645  1426 0001:00018647  1427 0001:00018650
  1428 0001:00018660  1429 0001:0001867F  1433 0001:00018685  1424 0001:0001868E
  1435 0001:0001869F  1436 0001:000186AA  1444 0001:000186B0  1446 0001:000186BE
  1445 0001:000186C7  1448 0001:000186D5  1449 0001:000186E0  1461 0001:000186E4
  1462 0001:000186F0  1465 0001:000186F4  1466 0001:00018703  1467 0001:00018707
  1471 0001:00018709  1472 0001:00018712  1473 0001:0001871B  1485 0001:00018720
  1486 0001:0001872F  1491 0001:00018733  1494 0001:0001875E  1495 0001:00018780
  1496 0001:00018784  1498 0001:00018786  1491 0001:00018789  1503 0001:00018791
  1511 0001:00018798  1513 0001:000187A6  1514 0001:000187C2  1515 0001:000187CF
  1523 0001:000187D4  1525 0001:000187E2  1526 0001:000187FE  1527 0001:0001880B
  1535 0001:00018810  1536 0001:00018819  1537 0001:00018821  1538 0001:00018841
  1549 0001:00018848  1551 0001:00018854  1552 0001:0001885C  1555 0001:00018879
  1556 0001:00018888  1568 0001:0001888C  1570 0001:0001889B  1571 0001:000188AA
  1572 0001:000188B5  1576 0001:000188BA  1581 0001:000188CB  1582 0001:000188D1
  1584 0001:000188D7  1585 0001:000188F2  1586 0001:000188FD  1588 0001:00018902
  1582 0001:0001890B  1592 0001:00018911  1593 0001:00018917  1595 0001:0001891D
  1596 0001:00018938  1597 0001:00018943  1599 0001:00018945  1593 0001:0001894E
  1602 0001:00018954  1611 0001:0001895C  1617 0001:00018969  1618 0001:0001897F
  1619 0001:0001898C  1628 0001:00018999  1629 0001:000189A4  1654 0001:000189BC
  1656 0001:000189CB  1657 0001:000189D0  1659 0001:000189D7  1660 0001:000189E7
  1661 0001:00018A04  1662 0001:00018A0D  1663 0001:00018A13  1664 0001:00018A1B
  1665 0001:00018A3D  1666 0001:00018A4E  1667 0001:00018A5B  1671 0001:00018A65
  1672 0001:00018A6B  1673 0001:00018A92  1674 0001:00018AB7  1688 0001:00018ABC
  1690 0001:00018ACE  1694 0001:00018AE2  1695 0001:00018AE8  1696 0001:00018AFC
  1702 0001:00018B10  1703 0001:00018B15  1705 0001:00018B1C  1706 0001:00018B2C
  1707 0001:00018B56  1708 0001:00018B5F  1709 0001:00018B65  1710 0001:00018B6D
  1711 0001:00018B9C  1712 0001:00018BAD  1713 0001:00018BBA  1717 0001:00018BC4
  1718 0001:00018BCA  1719 0001:00018BED  1721 0001:00018C0E  1725 0001:00018C57

Line numbers for cc_rtl(cc_rtl.pas) segment .text

   115 0001:00018C58   116 0001:00018C64   117 0001:00018C69   119 0001:00018C70
   120 0001:00018C80   121 0001:00018C9A   122 0001:00018CA3   123 0001:00018CA9
   124 0001:00018CB1   126 0001:00018CD0   129 0001:00018CED   130 0001:00018CFE
   132 0001:00018D0B   143 0001:00018D10   144 0001:00018D1C   145 0001:00018D24
   146 0001:00018D29   147 0001:00018D3E   148 0001:00018D58   150 0001:00018D5A
   145 0001:00018D5D   151 0001:00018D63   159 0001:00018D68   160 0001:00018D74
   161 0001:00018D85   170 0001:00018D8C   171 0001:00018D9B   175 0001:00018DD3

Line numbers for cc_env(cc_env.pas) segment .text

   147 0001:00018DD4   148 0001:00018DE0   149 0001:00018DE5   151 0001:00018DEC
   152 0001:00018DFC   153 0001:00018E16   154 0001:00018E1F   155 0001:00018E25
   156 0001:00018E2D   158 0001:00018E4C   160 0001:00018E63   161 0001:00018E69
   169 0001:00018E70   170 0001:00018E81   171 0001:00018E98   172 0001:00018EB6
   187 0001:00018EBC   188 0001:00018EC8   189 0001:00018EDB   190 0001:00018EF4
   200 0001:00018EF8   201 0001:00018F02   202 0001:00018F08   203 0001:00018F1E
   204 0001:00018F31   220 0001:00018F34   221 0001:00018F40   223 0001:00018F53
   225 0001:00018F67   228 0001:00018F90   229 0001:00018FA4   230 0001:00018FC8
   228 0001:00018FCB   232 0001:00018FD0   235 0001:00018FD4   236 0001:00018FDD
   240 0001:00018FEC   244 0001:00018FFA   247 0001:00019009   250 0001:0001901B
   253 0001:0001902D   261 0001:0001903F   264 0001:00019062   267 0001:00019083
   270 0001:000190A6   274 0001:000190C7   277 0001:000190D6   280 0001:00019103
   283 0001:00019115   286 0001:00019127   289 0001:00019139   292 0001:0001914E
   295 0001:0001917E   298 0001:00019193   301 0001:000191A8   305 0001:000191BD
   308 0001:000191CC   311 0001:000191F9   314 0001:0001920B   317 0001:0001921D
   320 0001:0001922F   323 0001:00019244   326 0001:00019274   329 0001:00019289
   332 0001:0001929E   333 0001:000192B3   337 0001:000192EF

Line numbers for cc_util(cc_util.pas) segment .text

   130 0001:000192FC   131 0001:0001930F   132 0001:0001931A   133 0001:00019325
   134 0001:00019330   135 0001:0001933B   137 0001:00019346   138 0001:0001934C
   139 0001:00019356   140 0001:00019360   141 0001:0001936A   142 0001:0001937C
   161 0001:00019384   163 0001:00019395   166 0001:0001939B   169 0001:000193AF
   171 0001:000193C0   172 0001:000193CF   178 0001:000193DC   179 0001:000193EF
   182 0001:000193FF   185 0001:0001941C   188 0001:00019431   191 0001:00019435
   194 0001:00019439   197 0001:0001944D   199 0001:00019451   203 0001:0001947A
   204 0001:00019484   207 0001:00019497   210 0001:000194A4   215 0001:000194AD
   218 0001:000194B1   221 0001:000194E2   224 0001:000194F3   225 0001:000194FD
   228 0001:00019509   231 0001:00019516   232 0001:0001951A   234 0001:0001951F
   215 0001:00019522   239 0001:0001952D   244 0001:000195F1   247 0001:00019610
   248 0001:0001961A   251 0001:0001962F   254 0001:0001963C   260 0001:00019645
   263 0001:0001968E   266 0001:000196AD   267 0001:000196B7   270 0001:000196CC
   273 0001:000196D9   279 0001:000196DF   282 0001:000196E3   285 0001:00019714
   288 0001:00019728   289 0001:00019732   292 0001:0001973E   295 0001:0001974B
   296 0001:0001974F   298 0001:00019751   279 0001:00019754   304 0001:0001975A
   305 0001:00019760   191 0001:00019763   308 0001:0001976D   309 0001:00019773
   310 0001:000197A1   175 0001:000197A3   315 0001:000197B0   316 0001:000197BC
   317 0001:000197D0   321 0001:000197D2   322 0001:000197D8   330 0001:00019888
   331 0001:00019897   332 0001:000198A6   341 0001:000198A8   350 0001:000198AC
   352 0001:000198B3   355 0001:000198BA   356 0001:000198C9   359 0001:000198D1
   360 0001:000198E1   374 0001:000198E4   376 0001:000198F0   379 0001:000198FE
   383 0001:0001990D   384 0001:0001991E   386 0001:0001992F   387 0001:0001993C
   388 0001:00019949   395 0001:0001995B   398 0001:0001996A   401 0001:00019974
   404 0001:000199E6   407 0001:000199F4   410 0001:00019A0E   412 0001:00019A1A
   416 0001:00019A2D   417 0001:00019A41   418 0001:00019A55   419 0001:00019A62
   423 0001:00019A70   427 0001:00019A72   398 0001:00019A7E   431 0001:00019A88
   432 0001:00019A9F   433 0001:00019AB6   434 0001:00019AC3   436 0001:00019AD4
   515 0001:00019AD8   516 0001:00019AE7   517 0001:00019AFD   531 0001:00019B04
   532 0001:00019B10   533 0001:00019B20   534 0001:00019B3C   535 0001:00019B42
   536 0001:00019B52   537 0001:00019B5A   564 0001:00019B60   565 0001:00019B69
   566 0001:00019B6D   567 0001:00019B97   568 0001:00019BA9   570 0001:00019BB2
   565 0001:00019BB5   571 0001:00019BBB   573 0001:00019BC0   577 0001:00019BF0
   580 0001:00019C00   582 0001:00019C1A   583 0001:00019C3C   585 0001:00019C5E
   588 0001:00019C67   591 0001:00019C76   594 0001:00019C80   597 0001:00019CE8
   600 0001:00019CF4   601 0001:00019D1D   607 0001:00019D22   608 0001:00019D27
   611 0001:00019D2F   613 0001:00019D39   616 0001:00019D45   619 0001:00019D4B
   622 0001:00019D55   616 0001:00019D61   626 0001:00019D67   627 0001:00019D96
   632 0001:00019D98   591 0001:00019DA4   634 0001:00019DAE   642 0001:00019DBC
   644 0001:00019DEC   645 0001:00019E08   646 0001:00019E24   649 0001:00019E39
   650 0001:00019E3F   680 0001:00019E48   684 0001:00019E71   687 0001:00019E79
   688 0001:00019E87   689 0001:00019E9A   690 0001:00019ECF   693 0001:00019F04
   694 0001:00019F0F   697 0001:00019F15   701 0001:00019F1D   703 0001:00019F24
   706 0001:00019F4D   710 0001:00019F6C   712 0001:00019F80   713 0001:00019FAA
   716 0001:00019FCE   717 0001:00019FDF   721 0001:00019FE6   723 0001:00019FF3
   724 0001:0001A03F   727 0001:0001A045   730 0001:0001A04E   734 0001:0001A0AE
   724 0001:0001A0BC   738 0001:0001A0C2   708 0001:0001A0CD   741 0001:0001A0DA
   752 0001:0001A0E8   754 0001:0001A0EC   755 0001:0001A0F1   756 0001:0001A104
   758 0001:0001A128   754 0001:0001A12B   761 0001:0001A131   762 0001:0001A136
   763 0001:0001A149   765 0001:0001A16D   761 0001:0001A170   766 0001:0001A176
   785 0001:0001A17C   788 0001:0001A1AF   779 0001:0001A1B4   781 0001:0001A1BD
   783 0001:0001A1C2

Line numbers for strgs(strgs.pas) segment .text

    60 0001:0001A1C4    61 0001:0001A1D0    62 0001:0001A1DB    91 0001:0001A1E0
    92 0001:0001A1F2    93 0001:0001A247    94 0001:0001A29E    95 0001:0001A2AF
   100 0001:0001A2FB

Line numbers for cc_type(cc_type.pas) segment .text

   480 0001:0001A2FC   481 0001:0001A309   482 0001:0001A336   483 0001:0001A364
   484 0001:0001A392   501 0001:0001A398   502 0001:0001A3A7   503 0001:0001A3AB
   504 0001:0001A3BF   505 0001:0001A3EC   506 0001:0001A41A   508 0001:0001A448
   502 0001:0001A44B   509 0001:0001A455   527 0001:0001A45C   528 0001:0001A46B
   529 0001:0001A46F   530 0001:0001A483   531 0001:0001A4B0   532 0001:0001A4DE
   534 0001:0001A50C   528 0001:0001A50F   535 0001:0001A519   552 0001:0001A520
   553 0001:0001A52F   554 0001:0001A547   555 0001:0001A55F   556 0001:0001A58C
   557 0001:0001A5BA   558 0001:0001A5E8   554 0001:0001A5EB   559 0001:0001A5F5
   553 0001:0001A5F8   560 0001:0001A602   576 0001:0001A608   577 0001:0001A617
   578 0001:0001A62F   579 0001:0001A65C   580 0001:0001A68A   581 0001:0001A6B8
   577 0001:0001A6BB   582 0001:0001A6C5   600 0001:0001A6CC   601 0001:0001A6DB
   602 0001:0001A6F3   603 0001:0001A6F7   604 0001:0001A70B   605 0001:0001A738
   606 0001:0001A766   608 0001:0001A794   602 0001:0001A797   609 0001:0001A7A1
   601 0001:0001A7A4   610 0001:0001A7AE   628 0001:0001A7B4   629 0001:0001A7C3
   630 0001:0001A7DB   631 0001:0001A7DF   632 0001:0001A7F3   633 0001:0001A820
   634 0001:0001A84E   636 0001:0001A87C   630 0001:0001A87F   637 0001:0001A889
   629 0001:0001A88C   638 0001:0001A896   676 0001:0001A89C   677 0001:0001A8A8
   678 0001:0001A8D4   687 0001:0001A8DC   696 0001:0001A8EB   697 0001:0001A8FC
   698 0001:0001A90D   701 0001:0001A922   702 0001:0001A933   705 0001:0001A944
   706 0001:0001A955   709 0001:0001A966   710 0001:0001A977   713 0001:0001A988
   716 0001:0001A999   719 0001:0001A9AA   722 0001:0001A9BF   725 0001:0001A9D0
   726 0001:0001A9E1   727 0001:0001A9F2   728 0001:0001AA03   729 0001:0001AA14
   731 0001:0001AA25   735 0001:0001AA36   736 0001:0001AA4F   740 0001:0001AA64
   743 0001:0001AA75   746 0001:0001AA86   751 0001:0001AA97   754 0001:0001AAA0
   757 0001:0001AAB1   760 0001:0001AAC2   763 0001:0001AAD3   766 0001:0001AAE4
   769 0001:0001AAF5   774 0001:0001AB0A   775 0001:0001AB1B   776 0001:0001AB2C
   777 0001:0001AB3D   778 0001:0001AB4E   779 0001:0001AB5F   780 0001:0001AB70
   781 0001:0001AB85   782 0001:0001AB96   783 0001:0001ABA7   784 0001:0001ABB8
   785 0001:0001ABC9   786 0001:0001ABDA   787 0001:0001ABEB   788 0001:0001ABFC
   793 0001:0001AC0D   794 0001:0001AC1E   795 0001:0001AC2F   796 0001:0001AC44
   797 0001:0001AC59   800 0001:0001AC6A   803 0001:0001AC7B   806 0001:0001AC94
   811 0001:0001ACAD   812 0001:0001ACC1   813 0001:0001ACD5   814 0001:0001ACED
   815 0001:0001AD05   818 0001:0001AD19   819 0001:0001AD2D   820 0001:0001AD41
   821 0001:0001AD55   826 0001:0001AD69   831 0001:0001AD7A   832 0001:0001AD8B
   833 0001:0001ADA0   834 0001:0001ADB1   835 0001:0001ADC6   836 0001:0001ADDB
   839 0001:0001ADEC   840 0001:0001AE01   843 0001:0001AE16   844 0001:0001AE2B
   845 0001:0001AE40   846 0001:0001AE55   849 0001:0001AE6A   865 0001:0001AE83
   870 0001:0001AE9C   871 0001:0001AEAD   872 0001:0001AEBE   873 0001:0001AED3
   874 0001:0001AEE8   879 0001:0001AEF9   880 0001:0001AF0A   881 0001:0001AF1B
   882 0001:0001AF30   883 0001:0001AF45   886 0001:0001AF56   887 0001:0001AF67
   888 0001:0001AF78   889 0001:0001AF89   892 0001:0001AF9A   895 0001:0001AFAB
   898 0001:0001AFC4   901 0001:0001AFDD   904 0001:0001AFEE   905 0001:0001B007
   906 0001:0001B01C   907 0001:0001B031   910 0001:0001B042   913 0001:0001B05B
   916 0001:0001B06C   919 0001:0001B07D   920 0001:0001B092   925 0001:0001B0A7
   926 0001:0001B0B8   927 0001:0001B0C9   928 0001:0001B0DE   929 0001:0001B0F3
   932 0001:0001B104   933 0001:0001B115   934 0001:0001B126   935 0001:0001B137
   938 0001:0001B148   941 0001:0001B161   944 0001:0001B17A   947 0001:0001B18B
   948 0001:0001B1A4   949 0001:0001B1B9   950 0001:0001B1CE   953 0001:0001B1DF
   956 0001:0001B1F8   961 0001:0001B209   966 0001:0001B222   971 0001:0001B22B
   972 0001:0001B23C   973 0001:0001B24D   974 0001:0001B25E   975 0001:0001B26F
   978 0001:0001B284   979 0001:0001B295   982 0001:0001B2A6   983 0001:0001B2B7
   988 0001:0001B2C8   989 0001:0001B2D9   990 0001:0001B2EE   993 0001:0001B303
   994 0001:0001B314   995 0001:0001B325   998 0001:0001B336   999 0001:0001B347
  1000 0001:0001B358  1003 0001:0001B369  1004 0001:0001B37A  1005 0001:0001B38B
  1006 0001:0001B39C  1014 0001:0001B3D4  1016 0001:0001B3E3  1021 0001:0001B3EC
  1022 0001:0001B3FC  1030 0001:0001B400  1032 0001:0001B40C  1035 0001:0001B415
  1036 0001:0001B41B  1045 0001:0001B420  1047 0001:0001B42C  1052 0001:0001B435
  1053 0001:0001B442  1061 0001:0001B448  1063 0001:0001B44F  1066 0001:0001B457
  1067 0001:0001B45D  1075 0001:0001B460  1076 0001:0001B469  1077 0001:0001B474
  1085 0001:0001B478  1086 0001:0001B481  1087 0001:0001B4AE  1088 0001:0001B4C0
  1096 0001:0001B4C4  1098 0001:0001B4CD  1099 0001:0001B4FE  1107 0001:0001B504
  1108 0001:0001B50D  1109 0001:0001B52E  1110 0001:0001B540  1118 0001:0001B544
  1119 0001:0001B54D  1120 0001:0001B561  1121 0001:0001B570  1129 0001:0001B574
  1130 0001:0001B57D  1131 0001:0001B591  1132 0001:0001B5A7  1140 0001:0001B5AC
  1141 0001:0001B5B5  1142 0001:0001B5C1  1150 0001:0001B5C8  1151 0001:0001B5D1
  1152 0001:0001B5E5  1153 0001:0001B5F1  1164 0001:0001B5F8  1165 0001:0001B607
  1168 0001:0001B637  1171 0001:0001B64E  1174 0001:0001B65D  1175 0001:0001B678
  1183 0001:0001B67C  1184 0001:0001B68B  1185 0001:0001B6CD  1186 0001:0001B6EA
  1194 0001:0001B6F0  1195 0001:0001B6FF  1196 0001:0001B732  1197 0001:0001B74F
  1205 0001:0001B754  1206 0001:0001B760  1207 0001:0001B79C  1208 0001:0001B7B6
  1216 0001:0001B7BC  1217 0001:0001B7C5  1218 0001:0001B7F8  1219 0001:0001B80A
  1227 0001:0001B810  1228 0001:0001B819  1229 0001:0001B849  1230 0001:0001B85B
  1249 0001:0001B860  1250 0001:0001B869  1251 0001:0001B899  1252 0001:0001B8AB
  1260 0001:0001B8B0  1261 0001:0001B8B9  1262 0001:0001B8E9  1263 0001:0001B8FB
  1271 0001:0001B900  1272 0001:0001B909  1273 0001:0001B939  1274 0001:0001B94B
  1282 0001:0001B950  1283 0001:0001B95C  1284 0001:0001B998  1285 0001:0001B9B2
  1293 0001:0001B9B8  1294 0001:0001B9C4  1295 0001:0001BA00  1296 0001:0001BA1A
  1304 0001:0001BA20  1305 0001:0001BA2C  1306 0001:0001BA68  1307 0001:0001BA88
  1315 0001:0001BA8C  1316 0001:0001BA95  1317 0001:0001BAB6  1325 0001:0001BABC
  1326 0001:0001BAC8  1327 0001:0001BADF  1328 0001:0001BAF9  1336 0001:0001BB00
  1337 0001:0001BB07  1338 0001:0001BB0D  1359 0001:0001BB10  1361 0001:0001BB1C
  1364 0001:0001BB28  1367 0001:0001BB37  1370 0001:0001BB52  1371 0001:0001BB60
  1373 0001:0001BB6F  1375 0001:0001BB75  1407 0001:0001BB7B  1408 0001:0001BB82
  1416 0001:0001BB88  1418 0001:0001BB91  1421 0001:0001BB9D  1424 0001:0001BBAC
  1425 0001:0001BBB3  1433 0001:0001BBB8  1435 0001:0001BBC4  1440 0001:0001BBF2
  1478 0001:0001BBF8  1479 0001:0001BC04  1480 0001:0001BC17  1488 0001:0001BC1C
  1489 0001:0001BC29  1490 0001:0001BC59  1498 0001:0001BC60  1499 0001:0001BC6C
  1507 0001:0001BCFE  1520 0001:0001BD04  1522 0001:0001BD10  1526 0001:0001BD1D
  1527 0001:0001BD4B  1528 0001:0001BD54  1534 0001:0001BD56  1535 0001:0001BD76
  1536 0001:0001BD7F  1540 0001:0001BD81  1541 0001:0001BD8A  1549 0001:0001BD90
  1550 0001:0001BD9C  1553 0001:0001BDAB  1558 0001:0001BDB6  1559 0001:0001BDE9
  1560 0001:0001BDF4  1562 0001:0001BDFD  1570 0001:0001BE04  1574 0001:0001BE10
  1578 0001:0001BE56  1580 0001:0001BE95  1581 0001:0001BE9E  1587 0001:0001BEA0
  1588 0001:0001BED3  1589 0001:0001BEDC  1593 0001:0001BEDE  1594 0001:0001BEE7
  1602 0001:0001BEF0  1604 0001:0001BEFF  1608 0001:0001BF0E  1609 0001:0001BF19
  1613 0001:0001BF24  1614 0001:0001BF2D  1622 0001:0001BF34  1624 0001:0001BF40
  1628 0001:0001BF58  1630 0001:0001BF7F  1631 0001:0001BF88  1633 0001:0001BF93
  1638 0001:0001BF9E  1639 0001:0001BFA7  1642 0001:0001BFB0  1650 0001:0001BFB4
  1651 0001:0001BFC0  1655 0001:0001BFD2  1656 0001:0001BFDB  1660 0001:0001BFE6
  1661 0001:0001BFEF  1670 0001:0001BFF8  1671 0001:0001C008  1674 0001:0001C00E
  1677 0001:0001C031  1678 0001:0001C04D  1682 0001:0001C090  1683 0001:0001C0A8
  1689 0001:0001C0BC  1690 0001:0001C0C8  1694 0001:0001C0DA  1695 0001:0001C0F2
  1699 0001:0001C104  1705 0001:0001C113  1707 0001:0001C131  1708 0001:0001C164
  1710 0001:0001C16F  1711 0001:0001C175  1716 0001:0001C180  1717 0001:0001C19E
  1718 0001:0001C1A4  1722 0001:0001C1AF  1723 0001:0001C1C7  1728 0001:0001C1D9
  1729 0001:0001C1F1  1733 0001:0001C203  1734 0001:0001C21B  1738 0001:0001C22F
  1739 0001:0001C247  1743 0001:0001C259  1749 0001:0001C264  1750 0001:0001C27C
  1754 0001:0001C290  1759 0001:0001C2A8  1763 0001:0001C2B3  1768 0001:0001C2CB
  1772 0001:0001C2D6  1778 0001:0001C2E5  1779 0001:0001C2FD  1783 0001:0001C311
  1784 0001:0001C329  1788 0001:0001C33B  1794 0001:0001C34A  1795 0001:0001C362
  1799 0001:0001C374  1800 0001:0001C392  1801 0001:0001C398  1805 0001:0001C3A3
  1807 0001:0001C3C1  1808 0001:0001C3F4  1810 0001:0001C3FF  1811 0001:0001C405
  1816 0001:0001C410  1821 0001:0001C41B  1828 0001:0001C426  1829 0001:0001C464
  1830 0001:0001C46A  1834 0001:0001C46F  1836 0001:0001C475  1838 0001:0001C47D
  1840 0001:0001C4BB  1842 0001:0001C57C  1846 0001:0001C587  1847 0001:0001C596
  1848 0001:0001C5A1  1854 0001:0001C5AC  1856 0001:0001C5C6  1858 0001:0001C5E7
  1864 0001:0001C5F2  1866 0001:0001C60C  1868 0001:0001C629  1870 0001:0001C646
  1876 0001:0001C651  1878 0001:0001C66B  1880 0001:0001C688  1886 0001:0001C693
  1888 0001:0001C6AD  1890 0001:0001C6CA  1895 0001:0001C6D5  1896 0001:0001C6E4
  1897 0001:0001C6EF  1902 0001:0001C6FA  1904 0001:0001C709  1906 0001:0001C714
  1918 0001:0001C71F  1919 0001:0001C74C  1920 0001:0001C757  1933 0001:0001C762
  1949 0001:0001C774  1953 0001:0001C786  1956 0001:0001C798  1960 0001:0001C7AA
  1963 0001:0001C7B9  1966 0001:0001C7C4  1972 0001:0001C7CF  1974 0001:0001C80F
  1976 0001:0001C821  1986 0001:0001C82C  1988 0001:0001C86C  1990 0001:0001C87E
  1995 0001:0001C889  1998 0001:0001C898  2003 0001:0001C8A3  2004 0001:0001C8D0
  2005 0001:0001C8DB  2012 0001:0001C8E6  2013 0001:0001C906  2014 0001:0001C911
  2019 0001:0001C91C  2022 0001:0001C92B  2027 0001:0001C936  2028 0001:0001C94C
  2029 0001:0001C952  2033 0001:0001C957  2034 0001:0001C962  2037 0001:0001C96D
  2040 0001:0001C981  2042 0001:0001C9F9  2043 0001:0001CA42  2044 0001:0001CA4D
  2047 0001:0001CA58  2049 0001:0001CA90  2053 0001:0001CA9B  2055 0001:0001CAAB
  2057 0001:0001CAE3  2059 0001:0001CB1E  2063 0001:0001CB29  2065 0001:0001CB3F
  2069 0001:0001CB4A  2075 0001:0001CB55  2078 0001:0001CB64  2084 0001:0001CB6F
  2085 0001:0001CB85  2086 0001:0001CB8B  2091 0001:0001CB90  2092 0001:0001CB9B
  2095 0001:0001CBA6  2098 0001:0001CBBA  2100 0001:0001CC32  2101 0001:0001CC7B
  2102 0001:0001CC86  2105 0001:0001CC91  2107 0001:0001CCC9  2111 0001:0001CCD4
  2121 0001:0001CCE8  2123 0001:0001CD60  2124 0001:0001CDA9  2125 0001:0001CDB4
  2128 0001:0001CDBF  2130 0001:0001CDFA  2134 0001:0001CE05  2136 0001:0001CE11
  2140 0001:0001CE1C  2143 0001:0001CE30  2145 0001:0001CEA8  2146 0001:0001CEF1
  2147 0001:0001CEFC  2150 0001:0001CF07  2152 0001:0001CF42  2156 0001:0001CF4D
  2158 0001:0001CF59  2162 0001:0001CF64  2164 0001:0001CF70  2166 0001:0001CFA5
  2168 0001:0001CFDD  2172 0001:0001CFE5  2174 0001:0001CFF1  2178 0001:0001CFF9
  2180 0001:0001D00A  2184 0001:0001D012  2189 0001:0001D01E  2190 0001:0001D029
  2193 0001:0001D034  2198 0001:0001D045  2203 0001:0001D057  2205 0001:0001D064
  2209 0001:0001D06F  2211 0001:0001D07B  2215 0001:0001D08A  2217 0001:0001D096
  2221 0001:0001D0A5  2228 0001:0001D0B6  2231 0001:0001D0C5  2236 0001:0001D0D0
  2237 0001:0001D0E6  2238 0001:0001D0EC  2242 0001:0001D0F1  2243 0001:0001D0FC
  2246 0001:0001D107  2249 0001:0001D11B  2251 0001:0001D193  2252 0001:0001D1DC
  2253 0001:0001D1E7  2256 0001:0001D1F2  2258 0001:0001D22A  2262 0001:0001D235
  2264 0001:0001D245  2266 0001:0001D27D  2268 0001:0001D2B8  2272 0001:0001D2C3
  2274 0001:0001D2CF  2275 0001:0001D2FF  2276 0001:0001D30A  2280 0001:0001D315
  2282 0001:0001D321  2283 0001:0001D351  2284 0001:0001D359  2288 0001:0001D361
  2289 0001:0001D377  2293 0001:0001D37F  2294 0001:0001D38F  2298 0001:0001D397
  2303 0001:0001D3A5  2305 0001:0001D3AD  2309 0001:0001D3B9  2311 0001:0001D3DC
  2325 0001:0001D3FC  2326 0001:0001D40B  2327 0001:0001D42D  2328 0001:0001D438
  2339 0001:0001D440  2340 0001:0001D44F  2341 0001:0001D474  2353 0001:0001D47C
  2354 0001:0001D48B  2355 0001:0001D4AB  2357 0001:0001D4BB  2368 0001:0001D4C4
  2370 0001:0001D4D3  2371 0001:0001D4E3  2372 0001:0001D518  2373 0001:0001D529
  2384 0001:0001D530  2386 0001:0001D53F  2387 0001:0001D54F  2388 0001:0001D584
  2389 0001:0001D595  2397 0001:0001D59C  2398 0001:0001D5AB  2399 0001:0001D5DB
  2411 0001:0001D5E0  2412 0001:0001D5EC  2416 0001:0001D5F9  2421 0001:0001D60F
  2417 0001:0001D617  2428 0001:0001D61F  2430 0001:0001D62B  2439 0001:0001D634
  2441 0001:0001D643  2445 0001:0001D64F  2447 0001:0001D65D  2449 0001:0001D67C
  2461 0001:0001D68E  2462 0001:0001D69A  2548 0001:0001D6A0  2549 0001:0001D6B0
  2550 0001:0001D6C5  2551 0001:0001D6CF  2552 0001:0001D6D9  2553 0001:0001D6F0
  2554 0001:0001D70A  2555 0001:0001D721  2556 0001:0001D73A  2557 0001:0001D742
  2558 0001:0001D752  2569 0001:0001D75C  2570 0001:0001D768  2573 0001:0001D786
  2574 0001:0001D7A0  2577 0001:0001D7C7  2578 0001:0001D7CE  2586 0001:0001D7D4
  2587 0001:0001D7DD  2588 0001:0001D80D  2607 0001:0001D814  2608 0001:0001D820
  2609 0001:0001D859  2617 0001:0001D860  2618 0001:0001D86C  2619 0001:0001D89D
  2631 0001:0001D8A4  2633 0001:0001D8AD  2634 0001:0001D8BD  2636 0001:0001D8D6
  2641 0001:0001D8E5  2644 0001:0001D8EF  2645 0001:0001D904  2646 0001:0001D90E
  2647 0001:0001D918  2654 0001:0001D91D  2657 0001:0001D927  2658 0001:0001D936
  2659 0001:0001D949  2660 0001:0001D94F  2661 0001:0001D959  2666 0001:0001D95B
  2667 0001:0001D964  2668 0001:0001D96A  2671 0001:0001D979  2672 0001:0001D98E
  2673 0001:0001D994  2674 0001:0001D99E  2679 0001:0001D9A0  2685 0001:0001D9AA
  2667 0001:0001D9B3  2690 0001:0001D9BB  2695 0001:0001D9C5  2696 0001:0001D9D6
  2705 0001:0001D9DC  2706 0001:0001D9E1  2710 0001:0001DA1B

Line numbers for conv(conv.pas) segment .text

   242 0001:0001DA1C   244 0001:0001DA3E   247 0001:0001DA64   250 0001:0001DA96
   258 0001:0001DADC   259 0001:0001DB12   261 0001:0001DB24   265 0001:0001DB34
   267 0001:0001DB50   269 0001:0001DB5F   271 0001:0001DB6E   272 0001:0001DB91
   273 0001:0001DBF9   278 0001:0001DC0B   281 0001:0001DC13   283 0001:0001DC2F
   287 0001:0001DC4A   289 0001:0001DC95   293 0001:0001DCAB   294 0001:0001DCBA
   298 0001:0001DCC9   301 0001:0001DCFF   302 0001:0001DD2A   488 0001:0001DD7F

Line numbers for cc_attr(cc_attr.pas) segment .text

   184 0001:0001DDB0   186 0001:0001DDBC   187 0001:0001DDC1   189 0001:0001DDC8
   190 0001:0001DDD8   191 0001:0001DDF2   192 0001:0001DDFB   193 0001:0001DE01
   194 0001:0001DE09   196 0001:0001DE28   198 0001:0001DE3F   199 0001:0001DE45
   210 0001:0001DE4C   212 0001:0001DE5B   213 0001:0001DE66   214 0001:0001DE84
   215 0001:0001DE95   217 0001:0001DE9F   221 0001:0001DEA9   222 0001:0001DEAF
   223 0001:0001DEC6   224 0001:0001DEE1   237 0001:0001DEE8   238 0001:0001DEF1
   239 0001:0001DEFC   240 0001:0001DF07   244 0001:0001DF43

Line numbers for cx_array(CC_CHOICE0.pas) segment .text

    14 0001:0001DF44    15 0001:0001DF50    16 0001:0001DF60    23 0001:0001DF8A
    35 0001:0001DF90    37 0001:0001DFA2    39 0001:0001DFAA    42 0001:0001DFB7
    43 0001:0001DFC0    44 0001:0001DFD3    46 0001:0001DFE7    51 0001:0001E004
    66 0001:0001E018    69 0001:0001E025    72 0001:0001E045    73 0001:0001E04A
    74 0001:0001E05D    76 0001:0001E071    82 0001:0001E08E    97 0001:0001E0B4
   100 0001:0001E0C1   101 0001:0001E0C6   102 0001:0001E0E8   104 0001:0001E10A
   113 0001:0001E134   116 0001:0001E13B   119 0001:0001E17B   127 0001:0001E18C
   135 0001:0001E191   164 0001:0001E1B3   167 0001:0001E1C0   168 0001:0001E1FB
   171 0001:0001E200   172 0001:0001E21F   174 0001:0001E23F   179 0001:0001E262
   183 0001:0001E264   184 0001:0001E267   186 0001:0001E26C   217 0001:0001E274
   219 0001:0001E286   221 0001:0001E28E   224 0001:0001E29B   225 0001:0001E2A4
   226 0001:0001E2B7   228 0001:0001E2CB   233 0001:0001E2E8   248 0001:0001E2FC
   251 0001:0001E309   254 0001:0001E329   255 0001:0001E32E   256 0001:0001E341
   258 0001:0001E355   264 0001:0001E372   279 0001:0001E394   282 0001:0001E3A1
   283 0001:0001E3A6   284 0001:0001E3C8   286 0001:0001E3EA   294 0001:0001E411
   501 0001:0001E41B

Line numbers for cx_array(cx_array.pas) segment .text

    49 0001:0001E45B

Line numbers for cx_set(CC_CHOICE0.pas) segment .text

    14 0001:0001E45C    15 0001:0001E468    16 0001:0001E478    23 0001:0001E4A2
    35 0001:0001E4A8    37 0001:0001E4B6    39 0001:0001E4BE    42 0001:0001E4CB
    43 0001:0001E4D4    44 0001:0001E4E7    51 0001:0001E500    54 0001:0001E518
    56 0001:0001E537    60 0001:0001E546    66 0001:0001E55E    69 0001:0001E56B
    72 0001:0001E587    73 0001:0001E58C    74 0001:0001E59F    82 0001:0001E5B8
    85 0001:0001E5D9    87 0001:0001E602    91 0001:0001E611    97 0001:0001E633
   100 0001:0001E640   101 0001:0001E645   102 0001:0001E662   113 0001:0001E684
   116 0001:0001E68B   119 0001:0001E6C1   127 0001:0001E6D2   135 0001:0001E6D7
   138 0001:0001E6F5   139 0001:0001E71C   142 0001:0001E742   144 0001:0001E751
   145 0001:0001E777   146 0001:0001E7A9   150 0001:0001E7B3   152 0001:0001E7C2
   156 0001:0001E7E2   158 0001:0001E7F1   164 0001:0001E80D   167 0001:0001E81A
   168 0001:0001E847   171 0001:0001E84C   172 0001:0001E866   179 0001:0001E881
   183 0001:0001E883   184 0001:0001E886   186 0001:0001E88B   199 0001:0001E894
   200 0001:0001E8A0   201 0001:0001E8D6   202 0001:0001E8E5   217 0001:0001E8EC
   219 0001:0001E8FD   221 0001:0001E905   224 0001:0001E912   225 0001:0001E91B
   226 0001:0001E92E   233 0001:0001E947   236 0001:0001E95F   238 0001:0001E97E
   242 0001:0001E98D   248 0001:0001E9A5   251 0001:0001E9B2   254 0001:0001E9CE
   255 0001:0001E9D3   256 0001:0001E9E6   264 0001:0001E9FF   267 0001:0001EA20
   269 0001:0001EA49   273 0001:0001EA58   279 0001:0001EA7A   282 0001:0001EA87
   283 0001:0001EA8C   284 0001:0001EAA9   297 0001:0001EACB   298 0001:0001EAD2
   301 0001:0001EAEE   302 0001:0001EB09   303 0001:0001EB0D   307 0001:0001EB0F
   308 0001:0001EB2A   309 0001:0001EB2E   313 0001:0001EB30   314 0001:0001EB4B
   315 0001:0001EB4F   319 0001:0001EB51   320 0001:0001EB54   321 0001:0001EB69
   324 0001:0001EB6B   325 0001:0001EB73   328 0001:0001EB8F   329 0001:0001EBAA
   330 0001:0001EBAE   334 0001:0001EBB0   335 0001:0001EBCB   336 0001:0001EBCF
   340 0001:0001EBD1   341 0001:0001EBEC   342 0001:0001EBF0   346 0001:0001EBF2
   347 0001:0001EBF5   348 0001:0001EC06   351 0001:0001EC08   353 0001:0001EC14
   355 0001:0001EC20   358 0001:0001EC46   363 0001:0001EC59   370 0001:0001EC7D
   373 0001:0001ECA3   377 0001:0001ECB6   379 0001:0001ECD3   382 0001:0001ECE0
   385 0001:0001ED0E   386 0001:0001ED13   387 0001:0001ED2E   391 0001:0001ED4E
   393 0001:0001ED62   394 0001:0001ED7D   397 0001:0001ED98   398 0001:0001EDA4
   403 0001:0001EDB7   405 0001:0001EDC5   408 0001:0001EDE0   409 0001:0001EDE8
   414 0001:0001EDF8   416 0001:0001EE06   419 0001:0001EE21   420 0001:0001EE29
   425 0001:0001EE39   501 0001:0001EE45

Line numbers for cx_set(cx_set.pas) segment .text

    65 0001:0001EE4C    67 0001:0001EE59    70 0001:0001EE65    73 0001:0001EE71
    75 0001:0001EEA7    76 0001:0001EED4    79 0001:0001EED9    83 0001:0001EEDE
    85 0001:0001EEF9    88 0001:0001EF13    92 0001:0001EF18    94 0001:0001EF33
    97 0001:0001EF4D   101 0001:0001EF52   103 0001:0001EF90   104 0001:0001EF9D
   105 0001:0001EFCF   108 0001:0001EFD4   109 0001:0001EFEF   112 0001:0001F009
   113 0001:0001F023   116 0001:0001F03C   120 0001:0001F03E    71 0001:0001F041
   122 0001:0001F04F   136 0001:0001F054   138 0001:0001F064   141 0001:0001F070
   144 0001:0001F07C   146 0001:0001F0B2   147 0001:0001F0DF   153 0001:0001F0E9
   155 0001:0001F11F   156 0001:0001F13A   159 0001:0001F154   163 0001:0001F159
   165 0001:0001F18F   166 0001:0001F1AA   172 0001:0001F1C9   174 0001:0001F207
   175 0001:0001F214   176 0001:0001F246   179 0001:0001F24B   180 0001:0001F266
   183 0001:0001F280   184 0001:0001F29A   187 0001:0001F2B3   191 0001:0001F2B5
   197 0001:0001F2D0   142 0001:0001F2D3   199 0001:0001F2E1   203 0001:0001F31F

Line numbers for cx_imm(cx_imm.pas) segment .text

   210 0001:0001F320   211 0001:0001F32F   212 0001:0001F341   213 0001:0001F353
   216 0001:0001F364   218 0001:0001F36E   219 0001:0001F37C   227 0001:0001F384
   228 0001:0001F390   229 0001:0001F396   230 0001:0001F3A7   238 0001:0001F3AC
   239 0001:0001F3B8   240 0001:0001F3BE   241 0001:0001F3D7   249 0001:0001F3DC
   250 0001:0001F3E3   251 0001:0001F3E9   260 0001:0001F3EC   261 0001:0001F3FB
   262 0001:0001F401   263 0001:0001F40A   264 0001:0001F414   265 0001:0001F41D
   276 0001:0001F424   278 0001:0001F430   279 0001:0001F436   280 0001:0001F442
   283 0001:0001F44C   286 0001:0001F464   287 0001:0001F49D   299 0001:0001F4A4
   300 0001:0001F4B2   301 0001:0001F4BC   303 0001:0001F4F2   306 0001:0001F509
   310 0001:0001F528   311 0001:0001F540   312 0001:0001F54C   313 0001:0001F558
   319 0001:0001F57B   322 0001:0001F590   323 0001:0001F5A0   326 0001:0001F5D7
   327 0001:0001F5F1   328 0001:0001F627   329 0001:0001F65D   330 0001:0001F690
   326 0001:0001F693   333 0001:0001F69C   339 0001:0001F6B8   342 0001:0001F6CD
   343 0001:0001F6DD   346 0001:0001F714   347 0001:0001F72A   348 0001:0001F74C
   349 0001:0001F773   346 0001:0001F776   352 0001:0001F77B   359 0001:0001F797
   365 0001:0001F7AC   366 0001:0001F7BC   372 0001:0001F7F3   373 0001:0001F809
   374 0001:0001F835   375 0001:0001F861   372 0001:0001F864   390 0001:0001F86B
   392 0001:0001F877   400 0001:0001F880   402 0001:0001F88C   405 0001:0001F892
   408 0001:0001F8A7   409 0001:0001F8AD   413 0001:0001F8BB   414 0001:0001F8C9
   422 0001:0001F8D0   423 0001:0001F8DF   425 0001:0001F900   426 0001:0001F911
   441 0001:0001F918   442 0001:0001F927   444 0001:0001F948   580 0001:0001F95D
   588 0001:0001F964   589 0001:0001F970   592 0001:0001F991   593 0001:0001F9A2
   601 0001:0001F9A8   603 0001:0001F9AF   606 0001:0001F9B5   609 0001:0001F9CA
   610 0001:0001F9D8   621 0001:0001F9DC   622 0001:0001F9ED   625 0001:0001FA0E
   626 0001:0001FA17   627 0001:0001FA3D   633 0001:0001FA4A   638 0001:0001FA5B
   643 0001:0001FA7D   645 0001:0001FA86   646 0001:0001FA94   650 0001:0001FABA
   651 0001:0001FABF   652 0001:0001FAD2   657 0001:0001FAF1   665 0001:0001FAF8
   666 0001:0001FB04   669 0001:0001FB25   670 0001:0001FB36   678 0001:0001FB3C
   680 0001:0001FB43   683 0001:0001FB49   684 0001:0001FB5E   692 0001:0001FB64
   693 0001:0001FB70   695 0001:0001FB91   696 0001:0001FB9F   704 0001:0001FBA4
   705 0001:0001FBB3   707 0001:0001FBD4   708 0001:0001FBE5   716 0001:0001FBEC
   717 0001:0001FBF8   718 0001:0001FC07   719 0001:0001FC1A   720 0001:0001FC2F
   722 0001:0001FC3B   730 0001:0001FC40   731 0001:0001FC4C   732 0001:0001FC5F
   733 0001:0001FC6D   734 0001:0001FC88   735 0001:0001FCA5   737 0001:0001FCB1
   745 0001:0001FCB8   746 0001:0001FCC4   747 0001:0001FCD3   748 0001:0001FCE0
   749 0001:0001FCEE   751 0001:0001FCFA   762 0001:0001FD00   768 0001:0001FD0F
   770 0001:0001FD20   771 0001:0001FD33   772 0001:0001FD38   773 0001:0001FD3F
   774 0001:0001FD53   775 0001:0001FD78   776 0001:0001FD81   777 0001:0001FD84
   773 0001:0001FD87   779 0001:0001FD8E   780 0001:0001FDA0   782 0001:0001FDAC
   790 0001:0001FDB4   791 0001:0001FDC6   792 0001:0001FDDD   795 0001:0001FDFB
   797 0001:0001FE49   800 0001:0001FE73   803 0001:0001FE9D   806 0001:0001FEAC
   809 0001:0001FEBB   811 0001:0001FEC7   817 0001:0001FED5   819 0001:0001FEE5
   821 0001:0001FF15   826 0001:0001FF23   828 0001:0001FF35   830 0001:0001FF41
   852 0001:0001FF4C   854 0001:0001FF5B   859 0001:0001FF67   860 0001:0001FF81
   864 0001:0001FF9B   866 0001:0001FFB3   892 0001:0001FFC9   894 0001:0001FFD2
   895 0001:0001FFE5   896 0001:0002000C   897 0001:00020019   894 0001:0002001C
   900 0001:00020021   901 0001:0002003A   904 0001:00020047   905 0001:00020061
   908 0001:0002007B   909 0001:00020086   912 0001:0002009C   913 0001:000200AE
   914 0001:000200C1   915 0001:000200DD   916 0001:000200F9   913 0001:000200FC
   920 0001:00020103   966 0001:0002010F   974 0001:00020118   976 0001:00020127
   978 0001:0002012D   981 0001:00020180   986 0001:000201C3   988 0001:000201D2
   992 0001:000201E3   996 0001:000201FB  1000 0001:0002020C  1002 0001:0002021E
  1004 0001:00020239  1008 0001:0002024A  1012 0001:0002025A  1016 0001:0002026B
  1020 0001:0002027B  1025 0001:0002028C  1027 0001:000202A5  1030 0001:000202E7
  1031 0001:000202ED  1032 0001:00020301  1037 0001:00020309  1038 0001:0002030F
  1039 0001:0002032B  1048 0001:00020333  1052 0001:00020341  1054 0001:0002034D
  1071 0001:00020354  1072 0001:00020366  1075 0001:0002039C  1078 0001:000203D0
  1081 0001:000203E1  1082 0001:0002041B  1085 0001:0002042C  1098 0001:0002043B
  1101 0001:00020460  1102 0001:0002046E  1103 0001:0002049A  1113 0001:000204B0
  1114 0001:000204BE  1115 0001:000204D7  1116 0001:000204E6  1117 0001:000204F7
  1120 0001:0002054C  1127 0001:00020558  1131 0001:00020564  1132 0001:0002057E
  1135 0001:000205A8  1136 0001:000205B6  1137 0001:000205C1  1140 0001:000205CC
  1142 0001:000205E2  1145 0001:00020605  1146 0001:00020623  1149 0001:00020634
  1151 0001:0002063E  1140 0001:00020641  1180 0001:00020648  1182 0001:00020654
  1190 0001:00020698  1191 0001:000206A5  1192 0001:000206B4  1194 0001:000206C4
  1195 0001:000206CF  1196 0001:000206E4  1198 0001:0002070E  1200 0001:0002071A
  1208 0001:00020720  1209 0001:00020729  1210 0001:0002075F  1211 0001:00020776
  1212 0001:0002078C  1213 0001:00020792  1214 0001:0002079F  1216 0001:000207C7
  1217 0001:000207EF  1220 0001:000207FE  1222 0001:0002080D  1230 0001:00020814
  1231 0001:00020820  1232 0001:0002082D  1233 0001:00020890  1234 0001:00020896
  1236 0001:000208A5  1247 0001:000208AC  1248 0001:000208B8  1251 0001:000208E2
  1254 0001:000208EE  1255 0001:000208F6  1259 0001:000208FE  1260 0001:00020929
  1261 0001:0002093B  1262 0001:0002094A  1263 0001:0002095D  1259 0001:00020960
  1264 0001:00020965  1275 0001:0002096C  1276 0001:00020978  1279 0001:000209A2
  1282 0001:000209BA  1283 0001:000209E5  1284 0001:000209F7  1285 0001:00020A09
  1286 0001:00020A1F  1282 0001:00020A22  1287 0001:00020A27  1301 0001:00020A2C
  1302 0001:00020A33  1303 0001:00020A69  1304 0001:00020A82  1305 0001:00020A9D
  1306 0001:00020AAF  1307 0001:00020ABB  1308 0001:00020AC7  1309 0001:00020AD3
  1311 0001:00020ADF  1313 0001:00020AEF  1314 0001:00020B04  1316 0001:00020B10
  1322 0001:00020B14  1324 0001:00020B23  1325 0001:00020B3B  1326 0001:00020B6C
  1327 0001:00020B83  1328 0001:00020B9C  1329 0001:00020BB3  1330 0001:00020BCA
  1331 0001:00020BE1  1332 0001:00020BF8  1337 0001:00020C09  1338 0001:00020C19
  1342 0001:00020C28  1343 0001:00020C40  1346 0001:00020C55  1349 0001:00020C63
  1354 0001:00020C72  1357 0001:00020C79  1358 0001:00020C9A  1361 0001:00020CBB
  1364 0001:00020CCA  1355 0001:00020CCD  1368 0001:00020CD8  1374 0001:00020CF7
  1377 0001:00020D06  1382 0001:00020D17  1383 0001:00020D2D  1387 0001:00020D3C
  1388 0001:00020D4C  1392 0001:00020D5B  1393 0001:00020D6B  1397 0001:00020D77
  1398 0001:00020D87  1399 0001:00020D94  1400 0001:00020D9C  1401 0001:00020DA4
  1406 0001:00020DB2  1409 0001:00020DC6  1411 0001:00020DDA  1412 0001:00020DE6
  1416 0001:00020E23

Line numbers for cx_def(cx_def.pas) segment .text

  1144 0001:000210F4  1146 0001:00021100  1149 0001:00021114  1150 0001:00021123
  1158 0001:00021128  1160 0001:00021137  1161 0001:00021146  1162 0001:00021169
  1163 0001:0002118A  1167 0001:0002119A  1168 0001:000211AB  1169 0001:000211C3
  1176 0001:000211CF  1177 0001:0002122C  1178 0001:00021241  1179 0001:00021256
  1180 0001:0002126B  1181 0001:00021280  1182 0001:00021295  1183 0001:000212AA
  1184 0001:000212BF  1185 0001:000212D4  1186 0001:000212E9  1187 0001:000212FE
  1188 0001:00021313  1189 0001:00021325  1190 0001:00021337  1191 0001:00021349
  1192 0001:0002135B  1193 0001:0002136D  1195 0001:0002137F  1196 0001:00021391
  1198 0001:0002139D  1199 0001:000213A7  1200 0001:000213B4  1201 0001:000213C1
  1210 0001:000213C8  1211 0001:000213D7  1212 0001:000213E5  1213 0001:000213EE
  1226 0001:000213F4  1228 0001:00021403  1231 0001:00021411  1232 0001:0002141C
  1235 0001:00021424  1245 0001:00021428  1247 0001:00021437  1248 0001:00021445
  1251 0001:0002144D  1252 0001:00021461  1253 0001:0002146F  1256 0001:0002147D
  1257 0001:0002148D  1265 0001:00021494  1266 0001:0002149B  1268 0001:0002158B
  1271 0001:00021594  1272 0001:0002159D  1273 0001:000215A3  1274 0001:000215A9
  1275 0001:000215AF  1276 0001:000215B5  1279 0001:000215BB  1280 0001:000215C1
  1281 0001:000215C7  1284 0001:000215CD  1285 0001:000215D3  1286 0001:000215D9
  1287 0001:000215DF  1288 0001:000215E5  1289 0001:000215EB  1290 0001:000215F1
  1291 0001:000215F7  1294 0001:000215FD  1295 0001:00021603  1296 0001:00021609
  1297 0001:0002160F  1298 0001:00021615  1301 0001:0002161B  1303 0001:00021622
  1311 0001:00021628  1312 0001:0002162F  1314 0001:00021656  1315 0001:0002165C
  1316 0001:00021662  1317 0001:00021668  1320 0001:0002166E  1321 0001:00021674
  1324 0001:0002167A  1326 0001:00021681  1334 0001:00021684  1335 0001:00021693
  1336 0001:00021699  1337 0001:000216A2  1338 0001:000216A9  1339 0001:000216B2
  1340 0001:000216BB  1348 0001:000216C4  1349 0001:000216DA  1360 0001:000216E0
  1362 0001:000216EF  1365 0001:00021701  1366 0001:00021712  1374 0001:00021718
  1375 0001:00021727  1376 0001:00021738  1384 0001:0002173C  1385 0001:0002174B
  1386 0001:00021759  1394 0001:00021760  1395 0001:0002176F  1396 0001:00021780
  1397 0001:0002178B  1405 0001:00021790  1406 0001:0002179F  1407 0001:000217B0
  1408 0001:000217BB  1416 0001:000217C0  1417 0001:000217C9  1418 0001:000217D3
  1426 0001:000217D8  1427 0001:000217E1  1428 0001:000217E9  1436 0001:000217F0
  1437 0001:000217FF  1438 0001:00021815  1439 0001:0002182B  1447 0001:00021830
  1448 0001:0002183E  1449 0001:00021850  1472 0001:00021858  1475 0001:00021864
  1476 0001:0002187D  1477 0001:00021897  1478 0001:000218A0  1479 0001:000218A6
  1480 0001:000218B1  1481 0001:000218D6  1482 0001:000218FF  1478 0001:00021908
  1484 0001:0002190E  1495 0001:00021914  1496 0001:0002191D  1497 0001:00021928
  1498 0001:00021935  1509 0001:0002193C  1510 0001:0002194B  1511 0001:00021954
  1512 0001:000219AE  1513 0001:000219B4  1514 0001:000219C6  1515 0001:000219D3
  1516 0001:000219D7  1517 0001:000219EF  1518 0001:00021A03  1519 0001:00021A6B
  1521 0001:00021AD1  1515 0001:00021AD4  1522 0001:00021ADE  1524 0001:00021AEB
  1532 0001:00021B08  1533 0001:00021B1B  1534 0001:00021B25  1535 0001:00021B2D
  1536 0001:00021B35  1537 0001:00021B3D  1538 0001:00021B45  1539 0001:00021B4D
  1540 0001:00021B55  1541 0001:00021B5F  1549 0001:00021B64  1550 0001:00021B74
  1554 0001:00021B7D  1555 0001:00021B8E  1556 0001:00021B97  1557 0001:00021BA0
  1558 0001:00021BA9  1564 0001:00021BB4  1565 0001:00021BC2  1569 0001:00021BEA
  1570 0001:00021C0D  1571 0001:00021C27  1572 0001:00021C41  1573 0001:00021C5B
  1575 0001:00021C61  1586 0001:00021C68  1587 0001:00021C74  1590 0001:00021C78
  1591 0001:00021C8C  1595 0001:00021C92  1596 0001:00021C9B  1597 0001:00021CAF
  1598 0001:00021CC8  1599 0001:00021CCC  1601 0001:00021CCE  1596 0001:00021CD1
  1603 0001:00021CD9  1611 0001:00021CE0  1612 0001:00021CEF  1613 0001:00021CF5
  1615 0001:00021D02  1616 0001:00021D26  1618 0001:00021D3F  1626 0001:00021D44
  1627 0001:00021D53  1629 0001:00021D59  1630 0001:00021D64  1631 0001:00021D6F
  1632 0001:00021D7A  1635 0001:00021D8A  1636 0001:00021DAE  1637 0001:00021DC7
  1638 0001:00021DE0  1639 0001:00021DF9  1641 0001:00021E12  1649 0001:00021E18
  1650 0001:00021E27  1651 0001:00021E2D  1653 0001:00021E3A  1654 0001:00021E5E
  1656 0001:00021E77  1664 0001:00021E7C  1665 0001:00021E8B  1667 0001:00021E91
  1668 0001:00021E9C  1671 0001:00021EA9  1672 0001:00021ECD  1673 0001:00021EE6
  1675 0001:00021EFF  1683 0001:00021F08  1684 0001:00021F11  1685 0001:00021F1D
  1693 0001:00021F24  1694 0001:00021F31  1697 0001:00021F47  1698 0001:00021F4D
  1699 0001:00021F6E  1700 0001:00021F88  1701 0001:00021FA2  1705 0001:00021FBC
  1706 0001:00021FC6  1707 0001:00021FCE  1710 0001:00021FD6  1711 0001:00021FDD
  1719 0001:00021FE4  1720 0001:00021FED  1721 0001:00021FF9  1729 0001:00022000
  1730 0001:00022013  1731 0001:0002201D  1732 0001:00022027  1740 0001:0002202C
  1741 0001:0002203B  1742 0001:00022044  1743 0001:0002204D  1751 0001:00022054
  1752 0001:00022063  1753 0001:0002206E  1754 0001:0002207C  1755 0001:00022086
  1756 0001:0002208E  1764 0001:00022094  1765 0001:000220A3  1766 0001:000220AC
  1767 0001:000220B5  1775 0001:000220BC  1776 0001:000220CB  1777 0001:000220D6
  1778 0001:000220E4  1786 0001:000220E8  1787 0001:000220F7  1790 0001:00022102
  1791 0001:00022129  1792 0001:0002213F  1800 0001:0002214C  1801 0001:0002215F
  1802 0001:00022169  1803 0001:00022173  1811 0001:00022178  1812 0001:00022187
  1813 0001:00022190  1814 0001:00022199  1822 0001:000221A0  1823 0001:000221AC
  1824 0001:000221B7  1825 0001:000221BF  1833 0001:000221C4  1834 0001:000221D0
  1835 0001:000221D9  1836 0001:000221E4  1844 0001:000221E8  1845 0001:000221F4
  1846 0001:000221FF  1854 0001:00022204  1855 0001:00022213  1858 0001:0002221E
  1859 0001:00022245  1860 0001:0002225B  1868 0001:00022268  1869 0001:00022274
  1870 0001:00022282  1878 0001:00022288  1879 0001:00022291  1880 0001:0002229D
  1888 0001:000222A4  1889 0001:000222B3  1892 0001:000222BE  1893 0001:000222C7
  1895 0001:000222D1  1896 0001:000222DA  1897 0001:000222EA  1899 0001:00022329
  1911 0001:00022334  1912 0001:00022343  1914 0001:0002234E  1916 0001:00022385
  1920 0001:000223AE  1921 0001:000223BC  1926 0001:000223E5  1927 0001:000223FB
  1931 0001:0002244A  1934 0001:00022459  1937 0001:00022468  1940 0001:00022477
  1948 0001:00022486  1950 0001:00022492  1957 0001:000224BC  1958 0001:000224CB
  1959 0001:000224D6  1960 0001:000224E4  1961 0001:000224EE  1962 0001:000224F6
  1970 0001:000224FC  1971 0001:0002250B  1972 0001:00022514  1973 0001:0002251D
  1981 0001:00022524  1982 0001:00022533  1983 0001:0002253E  1984 0001:0002254C
  1992 0001:00022550  1993 0001:0002255C  1996 0001:00022567  1997 0001:00022574
  2005 0001:0002257C  2006 0001:0002258F  2007 0001:00022599  2008 0001:000225A3
  2016 0001:000225A8  2017 0001:000225B7  2019 0001:000225C0  2020 0001:000225CB
  2021 0001:000225D9  2022 0001:000225E3  2025 0001:000225ED  2026 0001:000225F4
  2027 0001:000225FF  2029 0001:00022607  2037 0001:0002260C  2038 0001:0002261B
  2040 0001:00022624  2041 0001:0002262D  2044 0001:00022638  2045 0001:00022649
  2047 0001:00022652  2055 0001:00022658  2056 0001:00022667  2058 0001:00022670
  2059 0001:0002267B  2062 0001:0002268B  2063 0001:00022692  2065 0001:0002269D
  2085 0001:000226A4  2086 0001:000226B0  2087 0001:000226BB  2088 0001:000226C4
  2089 0001:000226D3  2090 0001:000226E0  2098 0001:000226F0  2099 0001:000226FC
  2100 0001:0002270A  2108 0001:00022710  2109 0001:00022719  2110 0001:00022725
  2118 0001:0002272C  2119 0001:0002273B  2120 0001:00022746  2121 0001:00022754
  2122 0001:0002275E  2123 0001:00022766  2131 0001:0002276C  2132 0001:0002277B
  2133 0001:00022784  2134 0001:0002278D  2142 0001:00022794  2143 0001:000227A3
  2144 0001:000227AE  2145 0001:000227BC  2153 0001:000227C0  2154 0001:000227CF
  2155 0001:000227DA  2156 0001:00022805  2158 0001:00022814  2159 0001:00022865
  2160 0001:00022874  2161 0001:00022883  2163 0001:0002288F  2171 0001:000228D0
  2172 0001:000228DF  2173 0001:000228EA  2174 0001:000228F8  2175 0001:00022902
  2176 0001:0002290A  2184 0001:00022910  2185 0001:0002291F  2186 0001:00022928
  2187 0001:00022931  2195 0001:00022938  2196 0001:00022947  2197 0001:00022952
  2198 0001:00022960  2206 0001:00022964  2207 0001:00022973  2208 0001:0002299F
  2216 0001:000229A8  2217 0001:000229B4  2218 0001:000229BF  2219 0001:000229C7
  2227 0001:000229CC  2228 0001:000229D8  2229 0001:000229E1  2230 0001:000229EC
  2238 0001:000229F0  2239 0001:000229FC  2240 0001:00022A07  2248 0001:00022A0C
  2249 0001:00022A1B  2252 0001:00022A26  2253 0001:00022A52  2261 0001:00022A60
  2262 0001:00022A6C  2263 0001:00022A77  2264 0001:00022A7F  2272 0001:00022A84
  2273 0001:00022A90  2274 0001:00022A99  2275 0001:00022AA4  2293 0001:00022AA8
  2294 0001:00022AB4  2297 0001:00022ABF  2298 0001:00022ACC  2306 0001:00022ADC
  2307 0001:00022AE8  2308 0001:00022AF6  2316 0001:00022AFC  2317 0001:00022B05
  2318 0001:00022B11  2326 0001:00022B18  2327 0001:00022B29  2328 0001:00022B32
  2329 0001:00022B41  2330 0001:00022B6B  2331 0001:00022BD3  2339 0001:00022BEC
  2340 0001:00022BFA  2341 0001:00022C03  2342 0001:00022C14  2343 0001:00022C25
  2351 0001:00022C48  2352 0001:00022C57  2353 0001:00022CA1  2361 0001:00022CB0
  2362 0001:00022CBE  2363 0001:00022CCA  2371 0001:00022CD8  2372 0001:00022CE6
  2373 0001:00022CF2  2398 0001:00022D00  2399 0001:00022D14  2400 0001:00022D47
  2401 0001:00022D52  2402 0001:00022D64  2403 0001:00022D7B  2405 0001:00022D8E
  2406 0001:00022D94  2408 0001:00022DA4  2409 0001:00022DAF  2410 0001:00022DBE
  2412 0001:00022DD1  2413 0001:00022DEF  2414 0001:00022E06  2415 0001:00022E1C
  2417 0001:00022E6C  2418 0001:00022E7C  2419 0001:00022E9B  2424 0001:00022EE8
  2425 0001:00022EF9  2428 0001:00022EFF  2430 0001:00022F99  2431 0001:00022FE7
  2441 0001:00023038  2442 0001:00023047  2443 0001:00023051  2445 0001:00023058
  2446 0001:0002306A  2447 0001:0002307E  2448 0001:00023090  2449 0001:000230A0
  2445 0001:000230A3  2451 0001:000230A8  2452 0001:000230AE  2453 0001:000230E2
  2454 0001:000230F3  2455 0001:000230FC  2456 0001:0002310E  2458 0001:0002311E
  2459 0001:00023124  2461 0001:0002312D  2462 0001:0002313D  2465 0001:00023151
  2466 0001:00023161  2470 0001:00023173  2473 0001:00023183  2476 0001:000231A3
  2477 0001:000231B1  2480 0001:00023213  2481 0001:00023221  2482 0001:0002323A
  2485 0001:00023298  2488 0001:000232A3  2489 0001:000232C7  2490 0001:000232E4
  2491 0001:000232FE  2492 0001:00023375  2489 0001:00023378  2496 0001:00023381
  2499 0001:00023395  2442 0001:0002339E  2501 0001:000233A8  2503 0001:000233D8
  2504 0001:000233E3  2505 0001:000233F2  2506 0001:000233FE  2510 0001:00023454
  2511 0001:0002345D  2512 0001:0002346E

Line numbers for cx_parse(cx_parse.pas) segment .text

   122 0001:00023470   124 0001:0002347F   127 0001:0002348C   130 0001:0002349C
   131 0001:000234A9   144 0001:000234B0   146 0001:000234BF   149 0001:000234CC
   152 0001:000234DC   153 0001:000234E9   167 0001:000234F0   169 0001:000234FF
   170 0001:0002350A   174 0001:0002351F   177 0001:0002352C   183 0001:00023543
   186 0001:00023550   192 0001:0002355B   195 0001:00023568   201 0001:00023573
   204 0001:00023580   209 0001:0002358B   210 0001:0002359C   212 0001:000235A6
   216 0001:000235B0   217 0001:000235BB   218 0001:000235CF   219 0001:000235E1
   220 0001:000235F3   234 0001:00023600   237 0001:0002360F   240 0001:0002361C
   243 0001:0002362E   246 0001:00023644   249 0001:00023656   252 0001:00023664
   253 0001:00023672   254 0001:00023683   256 0001:0002368D   258 0001:00023697
   272 0001:000236A4   274 0001:000236B3   277 0001:000236C0   280 0001:000236CC
   281 0001:000236DE   298 0001:000236E8   300 0001:000236F7   301 0001:00023704
   304 0001:00023718   317 0001:0002372A   318 0001:00023735   319 0001:0002373F
   320 0001:00023744   323 0001:00023748   325 0001:0002374E   326 0001:0002375B
   327 0001:00023766   328 0001:00023776   331 0001:00023783   332 0001:00023793
   336 0001:0002379C   340 0001:000237AA   345 0001:000237B8   351 0001:000237C1
   354 0001:000237C8   355 0001:000237CD   359 0001:000237DB   360 0001:000237E9
   361 0001:000237FA   366 0001:00023804   372 0001:0002380A   375 0001:00023811
   376 0001:00023817   377 0001:00023828   378 0001:00023837   380 0001:00023841
   385 0001:0002384B   388 0001:0002385C   392 0001:00023871   396 0001:0002388C
   397 0001:0002389A   398 0001:000238AB   400 0001:000238B5   404 0001:000238BF
   405 0001:000238D1   419 0001:0002391C   421 0001:0002392B   424 0001:00023938
   427 0001:0002394A   428 0001:00023955   437 0001:00023962   438 0001:00023974
   455 0001:00023980   457 0001:00023992   460 0001:0002399F   463 0001:000239B1
   465 0001:000239B5   468 0001:000239BA   469 0001:000239C5   470 0001:000239CB
   471 0001:000239D0   475 0001:000239D5   477 0001:000239DB   478 0001:000239E8
   481 0001:000239F8   482 0001:00023A08   485 0001:00023A11   489 0001:00023A25
   490 0001:00023A2B   491 0001:00023A3C   492 0001:00023A4B   494 0001:00023A55
   498 0001:00023A5F   501 0001:00023A6F   507 0001:00023A79   510 0001:00023A89
   511 0001:00023A94   512 0001:00023A9F   513 0001:00023AB0   515 0001:00023ABA
   517 0001:00023AC4   520 0001:00023AE5   521 0001:00023AF0   522 0001:00023AF6
   523 0001:00023B07   525 0001:00023B11   529 0001:00023B1B   531 0001:00023B28
   532 0001:00023B2F   534 0001:00023B3C   535 0001:00023B45   539 0001:00023B51
   542 0001:00023B62   545 0001:00023B72   546 0001:00023B78   547 0001:00023B83
   548 0001:00023B8D   549 0001:00023B9E   550 0001:00023BAD   552 0001:00023BB7
   554 0001:00023BC1   558 0001:00023BC6   564 0001:00023BCC   567 0001:00023BD1
   568 0001:00023BD7   569 0001:00023BE8   570 0001:00023BF7   572 0001:00023C01
   576 0001:00023C0B   579 0001:00023C12   582 0001:00023C22   585 0001:00023C33
   590 0001:00023C43   593 0001:00023C5E   594 0001:00023C6C   595 0001:00023C7D
   597 0001:00023C87   601 0001:00023C91   602 0001:00023CA3   616 0001:00023D2C
   619 0001:00023D3B   621 0001:00023D46   623 0001:00023D8F   626 0001:00023D9F
   629 0001:00023DAF   634 0001:00023DC2   636 0001:00023DCD   638 0001:00023DD3
   643 0001:00023DE6   646 0001:00023DEB   651 0001:00023DFE   655 0001:00023E11
   660 0001:00023E16   675 0001:00023E1C   677 0001:00023E2B   680 0001:00023E38
   683 0001:00023E4A   686 0001:00023E55   687 0001:00023E5B   688 0001:00023E77
   689 0001:00023E8A   690 0001:00023E9B   691 0001:00023EA5   695 0001:00023EAF
   698 0001:00023EBA   699 0001:00023ECC   714 0001:00023ED8   720 0001:00023EE7
   722 0001:00023EF2   726 0001:00023FA7   729 0001:00023FAC   735 0001:00023FBF
   736 0001:00023FCC   739 0001:00023FD5   742 0001:00023FE7   748 0001:0002400A
   749 0001:00024017   752 0001:00024020   755 0001:00024032   761 0001:00024055
   762 0001:00024062   765 0001:0002406B   768 0001:0002407D   774 0001:0002408F
   775 0001:0002409C   778 0001:000240A5   781 0001:000240B7   787 0001:000240DA
   788 0001:000240E7   791 0001:000240F0   794 0001:00024102   800 0001:00024136
   801 0001:00024143   804 0001:0002414C   807 0001:0002415E   808 0001:00024170
   814 0001:00024185   817 0001:00024192   821 0001:000241A9   824 0001:000241BC
   829 0001:000241CC   832 0001:000241DA   833 0001:000241E5   834 0001:000241EB
   835 0001:000241FC   837 0001:00024206   841 0001:00024210   848 0001:0002421B
   849 0001:0002422C   851 0001:00024236   856 0001:00024240   859 0001:0002424E
   860 0001:00024257   877 0001:00024260   879 0001:0002426F   882 0001:0002427A
   885 0001:0002428D   888 0001:00024297   890 0001:000242A4   893 0001:000242AA
   894 0001:000242AF   896 0001:000242B5   898 0001:000242BB   899 0001:000242C8
   902 0001:000242D2   903 0001:000242E2   907 0001:000242EB   910 0001:000242FB
   894 0001:00024306   914 0001:0002430C   917 0001:00024311   918 0001:00024317
   921 0001:00024327   924 0001:00024338   928 0001:00024342   930 0001:00024355
   932 0001:00024371   949 0001:0002437C   952 0001:0002438D   953 0001:00024397
   956 0001:000243AD   959 0001:000243C3   960 0001:000243CE   950 0001:000243D9
   964 0001:000243E2   965 0001:000243E7   979 0001:000243F0   981 0001:000243FF
   984 0001:0002440D   987 0001:00024418   988 0001:00024433  1003 0001:00024438
  1007 0001:00024447  1010 0001:00024455  1012 0001:00024460  1017 0001:00024466
  1018 0001:00024470  1021 0001:00024484  1025 0001:0002449C  1026 0001:000244A1
  1043 0001:000244A8  1046 0001:000244B9  1047 0001:000244C3  1050 0001:000244D9
  1053 0001:000244EF  1054 0001:000244FA  1044 0001:00024505  1058 0001:00024512
  1059 0001:00024517  1071 0001:00024520  1073 0001:0002452F  1075 0001:0002453A
  1080 0001:00024543  1081 0001:0002454D  1084 0001:00024569  1090 0001:0002457E
  1093 0001:00024583  1097 0001:00024591  1100 0001:0002459C  1101 0001:000245B7
  1115 0001:000245BC  1117 0001:000245CB  1120 0001:000245D9  1125 0001:000245E7
  1128 0001:000245F4  1131 0001:00024606  1133 0001:0002461C  1147 0001:00024624
  1149 0001:00024633  1152 0001:00024641  1153 0001:0002464C  1158 0001:00024652
  1161 0001:0002465F  1164 0001:00024671  1168 0001:00024689  1169 0001:0002468E
  1185 0001:00024698  1187 0001:000246A7  1190 0001:000246B5  1193 0001:000246C0
  1195 0001:000246C9  1196 0001:000246D3  1199 0001:000246EF  1203 0001:0002470A
  1205 0001:00024719  1208 0001:00024725  1209 0001:0002472B  1210 0001:00024736
  1211 0001:0002473C  1212 0001:0002474D  1214 0001:00024757  1219 0001:00024761
  1222 0001:0002476D  1225 0001:00024789  1229 0001:000247A1  1230 0001:000247A6
  1253 0001:000247AC  1254 0001:000247BE  1258 0001:000247C7  1261 0001:000247D1
  1262 0001:000247D7  1263 0001:000247E2  1265 0001:000247E8  1266 0001:000247F4
  1268 0001:000247FC  1272 0001:00024803  1273 0001:00024809  1274 0001:00024814
  1276 0001:0002481A  1277 0001:00024826  1279 0001:0002482E  1282 0001:00024833
  1286 0001:00024839  1289 0001:0002483F  1295 0001:0002484F  1296 0001:0002485B
  1297 0001:0002486C  1298 0001:000248D8  1299 0001:000248E3  1300 0001:000248EF
  1302 0001:000248F9  1307 0001:00024903  1310 0001:00024919  1313 0001:0002492F
  1255 0001:0002493A  1317 0001:00024955  1318 0001:0002495A  1332 0001:000249B0
  1334 0001:000249BF  1337 0001:000249CD  1340 0001:000249D8  1341 0001:000249EC
  1359 0001:000249F0  1360 0001:000249FF  1361 0001:00024A03  1364 0001:00024A07
  1367 0001:00024A12  1368 0001:00024A1D  1370 0001:00024A23  1373 0001:00024A2A
  1376 0001:00024A34  1379 0001:00024A42  1385 0001:00024A4D  1388 0001:00024A58
  1389 0001:00024A5E  1390 0001:00024A69  1404 0001:00024A74  1405 0001:00024A80
  1406 0001:00024A91  1407 0001:00024A9B  1409 0001:00024AAA  1416 0001:00024AB4
  1417 0001:00024ABD  1418 0001:00024ACE  1419 0001:00024ADD  1421 0001:00024AE7
  1427 0001:00024AF1  1428 0001:00024B1B  1433 0001:00024B30  1440 0001:00024B8F
  1441 0001:00024B99  1444 0001:00024BAD  1449 0001:00024BC8  1454 0001:00024BE1
  1460 0001:00024BFA  1461 0001:00024C04  1464 0001:00024C19  1470 0001:00024C31
  1476 0001:00024C47  1477 0001:00024C51  1480 0001:00024C65  1483 0001:00024C7D
  1487 0001:00024C89  1488 0001:00024CB3  1490 0001:00024CC8  1494 0001:00024D7B

Line numbers for cx_util(cx_util.pas) segment .text

   217 0001:00024D7C   219 0001:00024D8B   220 0001:00024DAF   221 0001:00024DC0
   222 0001:00024DC8   223 0001:00024DD0   225 0001:00024DD8   230 0001:00024DE2
   231 0001:00024E06   232 0001:00024E17   233 0001:00024E1F   234 0001:00024E27
   236 0001:00024E2F   241 0001:00024E39   242 0001:00024E41   250 0001:00024E50
   252 0001:00024E5F   253 0001:00024E71   254 0001:00024E78   256 0001:00024E80
   261 0001:00024E8A   262 0001:00024E9C   263 0001:00024EA3   265 0001:00024EAB
   270 0001:00024EB5   271 0001:00024EBD   284 0001:00024ECC   286 0001:00024EDB
   290 0001:00024EF9   291 0001:00024F0B   296 0001:00024F1F   297 0001:00024F2D
   301 0001:00024F3B   312 0001:00024FB3   313 0001:00024FDA   314 0001:00024FED
   318 0001:00025000   321 0001:00025018   322 0001:00025030   323 0001:00025043
   327 0001:00025056   328 0001:00025072   332 0001:00025085   333 0001:000250A1
   337 0001:000250B4   338 0001:000250CC   342 0001:000250DF   343 0001:000250F7
   347 0001:0002510A   348 0001:00025122   354 0001:00025132   355 0001:0002514C
   359 0001:0002515C   360 0001:00025169   364 0001:00025179   365 0001:00025186
   368 0001:00025196   369 0001:000251A2   379 0001:000251A8   381 0001:000251B7
   384 0001:000251D8   387 0001:000251F9   396 0001:0002521A   399 0001:0002523E
   401 0001:00025274   404 0001:000252B0   406 0001:00025307   409 0001:00025319
   412 0001:0002535C   416 0001:0002536E   421 0001:00025380   422 0001:00025390
   435 0001:00025398   436 0001:000253A4   440 0001:000253BC   445 0001:000253C8
   449 0001:000253E3   450 0001:000253FE   454 0001:0002540E   459 0001:00025424
   460 0001:00025445   466 0001:00025452   468 0001:00025467   469 0001:0002547C
   471 0001:00025489   473 0001:0002549A   482 0001:000254A0   484 0001:000254AF
   487 0001:000254BF   490 0001:000254CD   491 0001:000254D8   494 0001:000254E9
   495 0001:000254F6   504 0001:000254FC   506 0001:0002550B   509 0001:0002551B
   512 0001:00025524   513 0001:00025534   525 0001:0002553C   526 0001:0002554B
   527 0001:00025556   528 0001:00025568   537 0001:00025570   539 0001:0002557F
   542 0001:0002558F   543 0001:00025598   551 0001:0002559C   553 0001:000255AB
   556 0001:000255BB   557 0001:000255C6   560 0001:000255D7   563 0001:000255E0
   566 0001:000255EB   567 0001:00025607   575 0001:00025610   577 0001:0002561F
   580 0001:0002562F   583 0001:00025638   584 0001:00025648   622 0001:00025650
   623 0001:00025660   626 0001:00025691   628 0001:0002569F   632 0001:000256E8
   633 0001:000256F6   636 0001:00025704   639 0001:00025719   640 0001:00025725
   641 0001:00025733   642 0001:0002573F   643 0001:00025756   644 0001:0002576D
   647 0001:000257B1   652 0001:000257C0   660 0001:000257CF   661 0001:000257DD
   664 0001:000257EB   667 0001:00025800   668 0001:00025816   669 0001:0002583B
   670 0001:00025860   671 0001:00025877   672 0001:0002588E   675 0001:000258A8
   678 0001:000258B4   680 0001:000258C0   832 0001:000258CC   833 0001:000258DB
   835 0001:000258F8   838 0001:00025907   842 0001:00025912   846 0001:0002595D
   848 0001:0002598D   850 0001:00025998   854 0001:000259A0   859 0001:000259A8
   861 0001:000259D8   863 0001:000259E0   867 0001:000259E8   873 0001:000259F0
   875 0001:00025A02   877 0001:00025A0A   881 0001:00025A12   884 0001:00025A18
   892 0001:00025A28   893 0001:00025A36   894 0001:00025A57   895 0001:00025A5F
   903 0001:00025A64   904 0001:00025A6D   905 0001:00025A81   906 0001:00025A87
   907 0001:00025A8D   908 0001:00025A93   910 0001:00025AA2   918 0001:00025AA8
   919 0001:00025AB1   920 0001:00025AD4   928 0001:00025AD8   929 0001:00025AE1
   930 0001:00025AEE   938 0001:00025AF4   939 0001:00025AFD   940 0001:00025B15
   941 0001:00025B3D   949 0001:00025B4C   950 0001:00025B55   951 0001:00025B70
   962 0001:00025B7C   963 0001:00025B88   964 0001:00025B90   965 0001:00025B9A
   966 0001:00025BA2   974 0001:00025BA8   975 0001:00025BB7   976 0001:00025BCE
   977 0001:00025BEA   978 0001:00025C06   979 0001:00025C12   981 0001:00025C2C
   985 0001:00025C67

Line numbers for cx_resolve(cx_resolve.pas) segment .text

    48 0001:00025C68    49 0001:00025C77    50 0001:00025C88    63 0001:00025C90
    64 0001:00025C9F    65 0001:00025CA9    66 0001:00025CC8    67 0001:00025CE4
    80 0001:00025CEC    81 0001:00025CFB    82 0001:00025D02   107 0001:00025D08
   108 0001:00025D1A   109 0001:00025D1F   110 0001:00025D24   112 0001:00025D3D
   115 0001:00025D57   116 0001:00025D6B   120 0001:00025D71   121 0001:00025D74
   126 0001:00025D7C   127 0001:00025D7F   130 0001:00025D85   110 0001:00025D88
   133 0001:00025D8D   134 0001:00025D93   135 0001:00025D99   139 0001:00025DA6
   140 0001:00025DAC   141 0001:00025DB2   145 0001:00025DBF   147 0001:00025DCF
   148 0001:00025DE8   149 0001:00025E02   150 0001:00025E16   151 0001:00025E1C
   154 0001:00025E3F   147 0001:00025E42   157 0001:00025E47   158 0001:00025E58
   160 0001:00025E60   164 0001:00025E6C   165 0001:00025E72   178 0001:00025E78
   180 0001:00025E81   183 0001:00025E92   184 0001:00025E9B   186 0001:00025EA9
   189 0001:00025EB4   193 0001:00025EBC   194 0001:00025EC5   196 0001:00025ED9
   199 0001:00025EE4   201 0001:00025EEC   215 0001:00025EF0   217 0001:00025EFF
   218 0001:00025F0B   219 0001:00025F24   223 0001:00025F29   237 0001:00025F3B
   241 0001:00025F47   244 0001:00025F62   248 0001:00025F85   251 0001:00025F89
   254 0001:00025FAA   258 0001:00025FB0   259 0001:00025FC1   261 0001:00025FC9
   265 0001:00025FD3   269 0001:00025FDE   270 0001:00025FE6   274 0001:00026023

Line numbers for cx_rta(cx_rta.pas) segment .text

    72 0001:00026024    73 0001:00026030    77 0001:00026082    78 0001:0002608B
    81 0001:0002609C    87 0001:000260BA    88 0001:000260D7    89 0001:000260DE
    93 0001:000260EA    94 0001:000260F6    99 0001:00026110   100 0001:00026129
   143 0001:00026135   145 0001:00026147   146 0001:00026160   154 0001:0002616C
   158 0001:0002617E   165 0001:00026194   169 0001:000261A6   170 0001:000261BA
   171 0001:000261E0   172 0001:000261E7   180 0001:000261F3   183 0001:00026205
   184 0001:00026227   185 0001:0002622E   193 0001:0002623A   196 0001:0002624C
   197 0001:00026261   198 0001:00026268   206 0001:00026274   209 0001:00026282
   210 0001:000262B3   211 0001:000262BA   219 0001:000262C3   222 0001:000262D1
   223 0001:000262F3   230 0001:000262FA   280 0001:0002630C   282 0001:0002631E
   283 0001:00026331   288 0001:0002633E   289 0001:0002634D   297 0001:00026371
   305 0001:0002637E   306 0001:00026391   307 0001:000263A2   308 0001:000263CB
   309 0001:000263D3   313 0001:000263DD   315 0001:000263F0   318 0001:00026401
   321 0001:00026410   322 0001:00026419   328 0001:0002642C   329 0001:00026435
   342 0001:00026449   355 0001:00026454   356 0001:00026463   359 0001:00026481
   362 0001:00026495   364 0001:000264A7   366 0001:000264B5   373 0001:000264D6
   375 0001:00026514   379 0001:00026523   380 0001:00026538   385 0001:00026545
   387 0001:00026583   391 0001:00026595   392 0001:000265B6   404 0001:000265C8
   406 0001:000265F7   408 0001:00026606   409 0001:00026617   413 0001:00026624
   414 0001:00026639   422 0001:0002664B   423 0001:0002665C   425 0001:00026669
   426 0001:0002667E   440 0001:00026690   441 0001:0002669E   442 0001:000266A8
   445 0001:000266D0   446 0001:000266F0   450 0001:00026700   452 0001:00026713
   453 0001:00026724   457 0001:00026739   458 0001:0002674A   462 0001:0002675F
   463 0001:00026788   467 0001:0002679A   469 0001:000267C4   470 0001:000267D5
   471 0001:000267F9   472 0001:00026804   477 0001:0002680E   479 0001:00026821
   480 0001:00026832   484 0001:00026847   485 0001:00026858   489 0001:0002686D
   490 0001:00026896   494 0001:000268A8   496 0001:000268D2   497 0001:000268E3
   498 0001:00026907   499 0001:00026912   504 0001:0002691C   441 0001:00026925
   512 0001:00026931   513 0001:00026956   519 0001:00026966   527 0001:0002697C
   528 0001:00026988   530 0001:00026995   533 0001:000269AF   536 0001:000269C9
   538 0001:000269E3   542 0001:00026A2B

Line numbers for cx_type(cx_type.pas) segment .text

    45 0001:00026A2C    47 0001:00026A3B    51 0001:00026A52    52 0001:00026A5D
    53 0001:00026A6E    55 0001:00026A78    57 0001:00026A82    79 0001:00026A88
    81 0001:00026A97    82 0001:00026AA4    83 0001:00026AB0    84 0001:00026AB9
    85 0001:00026AD6    88 0001:00026ADD    89 0001:00026AF1    92 0001:00026AF5
    93 0001:00026B02    96 0001:00026B0B    97 0001:00026B14    98 0001:00026B1F
   100 0001:00026B25   103 0001:00026B2E   106 0001:00026B36   107 0001:00026B43
   108 0001:00026B4A   111 0001:00026B53   112 0001:00026B5C   115 0001:00026B62
    98 0001:00026B68   119 0001:00026B6E   122 0001:00026B76   123 0001:00026B8A
   127 0001:00026B97   150 0001:00026BA0   152 0001:00026BAF   155 0001:00026BC8
   158 0001:00026BD9   161 0001:00026BED   163 0001:00026C0F   165 0001:00026C1B
   172 0001:00026C24   174 0001:00026C33   177 0001:00026C43   179 0001:00026C65
   184 0001:00026C70   187 0001:00026C85   190 0001:00026C93   193 0001:00026C9E
   196 0001:00026CB5   199 0001:00026CCC   205 0001:00026CE5   207 0001:00026D10
   208 0001:00026D21   209 0001:00026D31   211 0001:00026D3B   215 0001:00026D45
   218 0001:00026D5C   219 0001:00026D94   220 0001:00026DC3   221 0001:00026DEF
   222 0001:00026E18   223 0001:00026E3E   224 0001:00026E68   228 0001:00026E74
   230 0001:00026E94   237 0001:00026EA5   240 0001:00026EB7   244 0001:00026EC0
   245 0001:00026ED0   260 0001:00026ED8   262 0001:00026EE7   265 0001:00026EFB
   266 0001:00026F0A   269 0001:00026F10   272 0001:00026F28   275 0001:00026F3A
   294 0001:00026F40   296 0001:00026F4F   299 0001:00026F5C   304 0001:00026F67
   307 0001:00026F7C   310 0001:00026F8A   316 0001:00026FA3   318 0001:00026FCE
   319 0001:00026FDF   320 0001:00026FEC   322 0001:00026FF6   326 0001:00027000
   329 0001:00027017   332 0001:00027029   334 0001:00027049   341 0001:0002705A
   345 0001:00027063   346 0001:00027070   361 0001:00027078   363 0001:00027087
   366 0001:0002709B   368 0001:000270AA   371 0001:000270B0   374 0001:000270C8
   377 0001:000270DA   392 0001:000270E0   394 0001:000270EF   396 0001:000270FA
   399 0001:00027114   403 0001:00027122   405 0001:0002714D   406 0001:0002715E
   408 0001:00027168   414 0001:00027172   417 0001:0002717B   435 0001:00027184
   437 0001:00027193   439 0001:0002719C   441 0001:000271A8   443 0001:000271C7
   444 0001:000271D8   446 0001:000271E2   466 0001:000271EC   483 0001:000271F4
   484 0001:00027203   486 0001:0002720E   514 0001:0002722A   520 0001:00027238
   524 0001:0002724B   525 0001:00027254   545 0001:00027258   547 0001:00027267
   550 0001:00027277   553 0001:0002728C   564 0001:00027299   565 0001:0002729D
   566 0001:000272A3   569 0001:000272A9   570 0001:000272B7   573 0001:000272CF
   566 0001:000272D8   577 0001:000272DE   582 0001:000272E9   584 0001:000272F9
   585 0001:0002730A   586 0001:0002731A   588 0001:00027324   597 0001:00027330
   599 0001:0002735B   600 0001:0002736C   601 0001:0002737C   603 0001:00027386
   610 0001:00027390   613 0001:00027396   617 0001:0002739F   618 0001:000273AF
   636 0001:000273B8   638 0001:000273C7   641 0001:000273DB   646 0001:000273EB
   648 0001:00027416   649 0001:00027427   650 0001:00027437   652 0001:00027441
   656 0001:0002744B   657 0001:0002745D   660 0001:0002746F   666 0001:0002748E
   669 0001:000274A0   673 0001:000274A9   674 0001:000274B9   692 0001:000274C0
   694 0001:000274CF   697 0001:000274DF   699 0001:0002750A   700 0001:0002751B
   701 0001:0002752B   703 0001:00027535   707 0001:0002753F   710 0001:00027554
   715 0001:00027577   718 0001:00027589   722 0001:00027592   723 0001:000275A2
   741 0001:000275A8   743 0001:000275B7   746 0001:000275C4   748 0001:000275EF
   749 0001:00027600   750 0001:0002760D   752 0001:00027617   756 0001:00027621
   761 0001:00027636   764 0001:0002763F   768 0001:00027648   769 0001:00027655
   787 0001:0002765C   789 0001:0002766B   792 0001:00027678   794 0001:000276A3
   795 0001:000276B4   796 0001:000276C1   798 0001:000276CB   802 0001:000276D5
   807 0001:000276EA   810 0001:000276F3   814 0001:000276FC   815 0001:00027709
   834 0001:00027710   836 0001:0002771F   839 0001:0002772F   841 0001:0002775A
   842 0001:0002776B   843 0001:0002777B   845 0001:00027785   849 0001:0002778F
   852 0001:000277A4   857 0001:000277AD   861 0001:000277B6   862 0001:000277C6
   880 0001:000277CC   882 0001:000277DB   885 0001:000277EB   887 0001:00027816
   888 0001:00027827   889 0001:00027837   891 0001:00027841   895 0001:0002784B
   898 0001:00027860   899 0001:00027878   902 0001:00027887   907 0001:00027899
   911 0001:000278A2   912 0001:000278B2   936 0001:000278B8   938 0001:000278C7
   941 0001:000278D7   945 0001:000278E8   948 0001:000278F9   949 0001:0002790B
   953 0001:00027920   954 0001:00027932   959 0001:0002793E   960 0001:00027948
   963 0001:0002794D   969 0001:00027953   970 0001:00027968   974 0001:00027973
   978 0001:00027999   981 0001:000279B7   982 0001:000279BD   984 0001:000279C7
   987 0001:000279D5   991 0001:000279F0   992 0001:000279F6   993 0001:00027A07
   994 0001:00027A15   995 0001:00027A1D   999 0001:00027A27  1002 0001:00027A30
  1005 0001:00027A4A  1011 0001:00027A57  1012 0001:00027A77  1013 0001:00027A88
  1014 0001:00027A96  1015 0001:00027A9E  1019 0001:00027AA8  1020 0001:00027AAF
  1023 0001:00027ABB  1024 0001:00027ADD  1025 0001:00027AE3  1026 0001:00027AF4
  1027 0001:00027B06  1028 0001:00027B14  1029 0001:00027B1C  1033 0001:00027B26
  1036 0001:00027B2F  1040 0001:00027B4B  1042 0001:00027B57  1046 0001:00027B63
  1047 0001:00027B75  1050 0001:00027B8D  1053 0001:00027B9B   982 0001:00027BA4
  1060 0001:00027BB3  1063 0001:00027BD2  1066 0001:00027BF1  1067 0001:00027BF7
  1069 0001:00027C01  1072 0001:00027C0F  1078 0001:00027C23  1079 0001:00027C37
  1094 0001:00027C51  1098 0001:00027C5D  1099 0001:00027C6F  1102 0001:00027C87
  1105 0001:00027C95  1067 0001:00027C9E  1113 0001:00027CAD  1116 0001:00027CCC
  1117 0001:00027CD2  1119 0001:00027CDC  1122 0001:00027CEA  1123 0001:00027CF3
  1124 0001:00027D04  1125 0001:00027D0C  1129 0001:00027D16  1130 0001:00027D28
  1133 0001:00027D40  1136 0001:00027D4E  1117 0001:00027D57  1140 0001:00027D63
  1144 0001:00027D6F  1149 0001:00027D75  1153 0001:00027D7E  1154 0001:00027D8E
  1174 0001:00027DA4  1176 0001:00027DB3  1180 0001:00027DC3  1181 0001:00027DCF
  1182 0001:00027DE0  1183 0001:00027DF0  1185 0001:00027DFA  1189 0001:00027E04
  1192 0001:00027E19  1193 0001:00027E1D  1194 0001:00027E23  1195 0001:00027E29
  1194 0001:00027E33  1199 0001:00027E39  1204 0001:00027E48  1208 0001:00027E51
  1209 0001:00027E61  1221 0001:00027E68  1223 0001:00027E77  1225 0001:00027EA2
  1226 0001:00027EB3  1228 0001:00027EBD  1234 0001:00027EC7  1235 0001:00027ED0
  1246 0001:00027ED8  1247 0001:00027EE7  1250 0001:00027EFA  1253 0001:00027F09
  1255 0001:00027F71  1258 0001:00027F88  1261 0001:00027F9F  1264 0001:00027FB6
  1267 0001:00027FCD  1270 0001:00027FE4  1273 0001:00027FFB  1276 0001:00028012
  1279 0001:00028029  1282 0001:00028040  1285 0001:00028054  1288 0001:00028068
  1291 0001:0002807C  1294 0001:00028090  1297 0001:000280A4  1300 0001:000280B8
  1304 0001:000280C4  1307 0001:000280CF  1309 0001:000280DD  1312 0001:000280EA
  1316 0001:00028106  1317 0001:0002811C  1321 0001:00028132  1322 0001:0002813B
  1326 0001:00028145  1330 0001:000281D3

Line numbers for cx_opt(cx_opt.pas) segment .text

    98 0001:000281D4    99 0001:000281E3   100 0001:000281F7   101 0001:00028213
    99 0001:00028216   102 0001:0002821C   118 0001:00028224   119 0001:00028233
   120 0001:00028247   121 0001:0002825B   122 0001:00028277   120 0001:0002827A
   123 0001:00028280   119 0001:00028283   124 0001:00028289   139 0001:00028290
   140 0001:0002829F   141 0001:000282B3   142 0001:000282CF   140 0001:000282D2
   143 0001:000282D8   173 0001:000282E0   174 0001:000282F0   175 0001:00028304
   176 0001:00028318   177 0001:00028334   175 0001:00028337   178 0001:0002833D
   174 0001:00028340   179 0001:00028346   196 0001:0002834C   197 0001:0002835B
   198 0001:00028360   199 0001:0002836B   200 0001:00028371   202 0001:00028377
   203 0001:00028380   206 0001:00028388   209 0001:00028396   212 0001:000283B2
   213 0001:000283B8   214 0001:000283C3   215 0001:000283CE   216 0001:000283D4
   200 0001:000283DA   218 0001:000283E0   227 0001:000283E8   228 0001:000283EF
   230 0001:00028405   233 0001:00028413   235 0001:0002842D   237 0001:00028436
   240 0001:00028446   241 0001:0002844F   252 0001:00028454   253 0001:00028463
   254 0001:0002846C   255 0001:0002847A   289 0001:00028480   290 0001:0002848C
   291 0001:000284A0   302 0001:000284A4   303 0001:000284B0   304 0001:000284C6
   331 0001:000284CC   333 0001:000284DC   342 0001:00028534   343 0001:0002853C
   344 0001:00028544   347 0001:00028546   350 0001:0002854F   351 0001:0002855A
   352 0001:00028566   357 0001:00028580   358 0001:0002858E   359 0001:000285A4
   360 0001:000285BA   362 0001:000285C3   368 0001:000285CC   370 0001:000285DB
   373 0001:000285E6   374 0001:000285F6   375 0001:00028609   376 0001:0002861C
   377 0001:00028627   380 0001:00028630   381 0001:00028639   395 0001:00028640
   396 0001:00028649   397 0001:00028653   398 0001:0002865D   401 0001:00028668
   402 0001:0002868C   403 0001:00028692   404 0001:00028698   405 0001:000286A1
   409 0001:000286A9   411 0001:000286AF   412 0001:000286B8   415 0001:000286C0
   418 0001:000286C8   419 0001:000286CE   420 0001:000286D9   421 0001:000286DF
   426 0001:000286E7   427 0001:000286ED   428 0001:000286F8   429 0001:000286FE
   433 0001:00028704   409 0001:0002870A   437 0001:00028710   438 0001:0002871B
   439 0001:00028721   443 0001:00028745   444 0001:00028751   449 0001:0002875C
   450 0001:00028762   451 0001:0002876D   454 0001:00028778   505 0001:0002877C
   506 0001:0002878B   507 0001:00028791   509 0001:00028798   512 0001:00028804
   513 0001:00028810   516 0001:0002881D   517 0001:0002882F   518 0001:00028850
   521 0001:00028869   522 0001:0002887F   523 0001:000288A0   527 0001:000288B9
   531 0001:000288BF   532 0001:000288CF   533 0001:000288EE   539 0001:00028907
   540 0001:00028913   543 0001:00028920   544 0001:00028932   545 0001:0002893C
   546 0001:0002895D   550 0001:00028976   551 0001:0002898C   552 0001:00028996
   553 0001:000289B7   560 0001:000289D0   561 0001:000289DC   562 0001:000289E4
   565 0001:000289EF   566 0001:00028A01   569 0001:00028A0E   570 0001:00028A20
   571 0001:00028A41   574 0001:00028A5A   575 0001:00028A6D   576 0001:00028A78
   577 0001:00028AA3   582 0001:00028ABC   586 0001:00028AC2   587 0001:00028AD2
   588 0001:00028ADA   594 0001:00028AE5   595 0001:00028AF1   597 0001:00028B02
   600 0001:00028B11   601 0001:00028B23   604 0001:00028B30   605 0001:00028B42
   606 0001:00028B63   609 0001:00028B7C   610 0001:00028B8F   611 0001:00028B9A
   612 0001:00028BC5   618 0001:00028BDE   622 0001:00028BE4   623 0001:00028BF4
   624 0001:00028BFC   630 0001:00028C07   631 0001:00028C13   633 0001:00028C24
   636 0001:00028C33   637 0001:00028C57   638 0001:00028C74   641 0001:00028C7F
   642 0001:00028C92   643 0001:00028CAB   644 0001:00028CD6   650 0001:00028CEF
   654 0001:00028CF5   655 0001:00028D05   656 0001:00028D0D   662 0001:00028D18
   663 0001:00028D24   666 0001:00028D31   667 0001:00028D57   668 0001:00028D74
   673 0001:00028D7F   677 0001:00028D85   678 0001:00028D95   679 0001:00028D9D
   685 0001:00028DA8   686 0001:00028DB4   689 0001:00028DC1   690 0001:00028DE7
   693 0001:00028DFB   694 0001:00028E19   695 0001:00028E32   698 0001:00028E4E
   699 0001:00028E6B   746 0001:00028E73   748 0001:00028E7F   760 0001:00028E88
   762 0001:00028E97   765 0001:00028EB4   768 0001:00028EC6   772 0001:00028ED0
   774 0001:00028F00   779 0001:00028F08   780 0001:00028F0D   781 0001:00028F12
   782 0001:00028F1D   783 0001:00028F21   784 0001:00028F25   786 0001:00028F2F
   788 0001:00028F38   790 0001:00028F44   793 0001:00028F52   799 0001:00028F97
   802 0001:00028FA5   803 0001:0002900E   805 0001:0002901E   807 0001:00029024
   809 0001:00029034   811 0001:00029044   814 0001:00029054   815 0001:00029060
   817 0001:00029071   819 0001:0002907B   821 0001:00029081   823 0001:00029091
   826 0001:000290A1   828 0001:000290B1   832 0001:000290C1   833 0001:000290CD
   835 0001:000290DE   837 0001:000290E8   841 0001:000290EE   844 0001:000290FE
   847 0001:0002910E   851 0001:0002911E   852 0001:0002912A   854 0001:0002913B
   856 0001:00029145   860 0001:0002914B   863 0001:0002915B   866 0001:00029168
   868 0001:00029175   869 0001:00029182   870 0001:0002918F   871 0001:0002919C
   875 0001:000291A8   797 0001:000291B1   880 0001:000291C3   883 0001:000291D7
   884 0001:000291DD   885 0001:000291E8   886 0001:000291F3   887 0001:000291FC
   891 0001:00029202   892 0001:0002920B   896 0001:00029211   898 0001:00029221
   899 0001:00029237   900 0001:00029255   906 0001:00029273   910 0001:0002929D
   911 0001:000292A3   914 0001:000292A9   915 0001:000292B1   920 0001:000292B3
   921 0001:000292C6   922 0001:000292D7   923 0001:000292E2   929 0001:000292EB
   930 0001:000292F1   931 0001:000292F7   932 0001:000292FD   933 0001:00029303
   784 0001:00029307   937 0001:00029311   940 0001:00029319   961 0001:00029320
   962 0001:0002932F   965 0001:00029334   968 0001:00029344   969 0001:00029352
   972 0001:00029360   975 0001:0002937A   976 0001:00029382   980 0001:00029390
   981 0001:00029398   985 0001:000293A6   987 0001:000293B6   990 0001:000293DE
   993 0001:000293EB   997 0001:00029401  1003 0001:00029409  1008 0001:0002940F
  1009 0001:00029415  1010 0001:00029420  1013 0001:00029427  1015 0001:0002942D
  1017 0001:0002943F  1018 0001:00029447  1038 0001:0002944C  1040 0001:0002945B
  1043 0001:00029474  1046 0001:00029486  1049 0001:00029490  1050 0001:0002949B
  1051 0001:000294A0  1052 0001:000294A4  1054 0001:000294AA  1057 0001:000294B3
  1059 0001:000294BB  1060 0001:000294C1  1061 0001:000294CC  1064 0001:000294D7
  1067 0001:000294E5  1069 0001:000294EB  1072 0001:000294F8  1073 0001:000294FE
  1078 0001:00029502  1052 0001:00029508  1082 0001:0002950E  1083 0001:00029519
  1087 0001:0002952F  1088 0001:00029535  1089 0001:00029549  1090 0001:00029557
  1094 0001:00029562  1095 0001:0002956B  1145 0001:00029574  1146 0001:00029580
  1147 0001:0002958E  1148 0001:00029593  1150 0001:00029599  1153 0001:000295A2
  1155 0001:000295AA  1158 0001:000295B2  1159 0001:000295C0  1162 0001:000295CF
  1166 0001:000295D5  1167 0001:000295E3  1171 0001:000295E5  1172 0001:000295EB
  1173 0001:000295F6  1178 0001:00029604  1148 0001:0002960A  1182 0001:00029610
  1184 0001:0002961E  1185 0001:00029629  1186 0001:0002963A  1190 0001:00029659
  1192 0001:0002966A  1193 0001:00029675  1197 0001:00029688  1199 0001:0002969F
  1204 0001:000296A4  1206 0001:000296B3  1209 0001:000296CC  1212 0001:000296DE
  1215 0001:000296E4  1218 0001:00029710  1219 0001:00029719  1236 0001:00029724
  1238 0001:00029733  1241 0001:00029743  1242 0001:00029751  1245 0001:0002975F
  1248 0001:00029771  1252 0001:0002977A  1253 0001:0002978A  1273 0001:00029790
  1274 0001:0002979F  1277 0001:000297A4  1280 0001:000297B4  1281 0001:000297C2
  1284 0001:000297D0  1287 0001:000297EA  1289 0001:000297FA  1292 0001:00029822
  1295 0001:0002982F  1299 0001:00029845  1304 0001:0002984D  1309 0001:00029853
  1310 0001:00029859  1311 0001:00029864  1314 0001:0002986B  1316 0001:00029871
  1318 0001:00029883  1319 0001:0002988B  1337 0001:00029890  1339 0001:0002989F
  1340 0001:000298A7  1343 0001:000298BF  1346 0001:000298D1  1351 0001:000298D7
  1352 0001:000298DF  1373 0001:000298E8  1374 0001:000298F7  1376 0001:000298FC
  1379 0001:00029918  1382 0001:00029928  1383 0001:00029936  1386 0001:00029944
  1389 0001:0002995E  1391 0001:0002996E  1394 0001:00029996  1397 0001:000299A3
  1401 0001:000299B9  1403 0001:000299C1  1409 0001:000299CE  1414 0001:000299D4
  1415 0001:000299DA  1416 0001:000299E5  1419 0001:000299EC  1421 0001:000299F2
  1423 0001:00029A04  1424 0001:00029A0C  1445 0001:00029A10  1446 0001:00029A1F
  1448 0001:00029A24  1451 0001:00029A40  1454 0001:00029A50  1455 0001:00029A5E
  1458 0001:00029A6C  1461 0001:00029A86  1463 0001:00029A96  1466 0001:00029ABE
  1469 0001:00029ACB  1473 0001:00029AE1  1478 0001:00029AE9  1482 0001:00029AF5
  1487 0001:00029AFB  1488 0001:00029B01  1489 0001:00029B0C  1492 0001:00029B13
  1494 0001:00029B19  1496 0001:00029B2B  1497 0001:00029B33  1518 0001:00029B38
  1519 0001:00029B47  1521 0001:00029B4C  1524 0001:00029B68  1527 0001:00029B78
  1528 0001:00029B86  1531 0001:00029B94  1534 0001:00029BAE  1536 0001:00029BBE
  1539 0001:00029BE6  1542 0001:00029BF3  1546 0001:00029C09  1551 0001:00029C11
  1555 0001:00029C1D  1560 0001:00029C23  1561 0001:00029C29  1562 0001:00029C34
  1565 0001:00029C3B  1567 0001:00029C41  1569 0001:00029C53  1570 0001:00029C5B
  1594 0001:00029C60  1595 0001:00029C6F  1596 0001:00029C75  1598 0001:00029C7C
  1602 0001:00029C9C  1603 0001:00029CAB  1607 0001:00029CB8  1608 0001:00029CDD
  1609 0001:00029CE5  1615 0001:00029CF0  1619 0001:00029CF6  1620 0001:00029D09
  1621 0001:00029D11  1628 0001:00029D1C  1629 0001:00029D2B  1632 0001:00029D38
  1633 0001:00029D59  1634 0001:00029D6A  1635 0001:00029D77  1643 0001:00029D7F
  1644 0001:00029D8E  1645 0001:00029D96  1649 0001:00029D9E  1650 0001:00029DBF
  1654 0001:00029DC9  1656 0001:00029DD5  1666 0001:00029DDC  1668 0001:00029DEB
  1669 0001:00029DF3  1672 0001:00029E0B  1675 0001:00029E1D  1679 0001:00029E27
  1681 0001:00029E57  1686 0001:00029E5F  1687 0001:00029E64  1688 0001:00029E69
  1689 0001:00029E74  1690 0001:00029E78  1692 0001:00029E82  1694 0001:00029E8B
  1696 0001:00029E97  1702 0001:00029EE9  1705 0001:00029EF9  1710 0001:00029F0C
  1712 0001:00029F22  1715 0001:00029F35  1718 0001:00029F48  1720 0001:00029F54
  1724 0001:00029F60  1708 0001:00029F69  1728 0001:00029F77  1729 0001:00029F7D
  1730 0001:00029F88  1731 0001:00029F93  1732 0001:00029F9C  1736 0001:00029FA2
  1737 0001:00029FAB  1740 0001:00029FB1  1742 0001:00029FBD  1743 0001:00029FD3
  1744 0001:00029FEC  1750 0001:0002A005  1754 0001:0002A028  1755 0001:0002A02E
  1760 0001:0002A034  1765 0001:0002A03F  1766 0001:0002A048  1769 0001:0002A051
  1772 0001:0002A05F  1778 0001:0002A061  1781 0001:0002A069  1787 0001:0002A06B
  1788 0001:0002A07E  1789 0001:0002A08F  1790 0001:0002A09A  1796 0001:0002A0A3
  1797 0001:0002A0A9  1798 0001:0002A0AF  1799 0001:0002A0B5  1690 0001:0002A0B9
  1803 0001:0002A0C3  1806 0001:0002A0CB  1824 0001:0002A0D4  1825 0001:0002A0E3
  1828 0001:0002A0E8  1831 0001:0002A0F8  1832 0001:0002A106  1835 0001:0002A114
  1838 0001:0002A126  1843 0001:0002A136  1848 0001:0002A13E  1853 0001:0002A144
  1854 0001:0002A14A  1855 0001:0002A155  1858 0001:0002A15C  1860 0001:0002A162
  1862 0001:0002A174  1863 0001:0002A17C  1881 0001:0002A180  1882 0001:0002A18F
  1885 0001:0002A194  1888 0001:0002A1A4  1889 0001:0002A1B2  1892 0001:0002A1C0
  1895 0001:0002A1D2  1900 0001:0002A1E2  1905 0001:0002A1EA  1910 0001:0002A1F0
  1911 0001:0002A1F6  1912 0001:0002A201  1915 0001:0002A208  1917 0001:0002A20E
  1919 0001:0002A220  1920 0001:0002A228  1938 0001:0002A22C  1939 0001:0002A23B
  1942 0001:0002A240  1945 0001:0002A250  1946 0001:0002A25E  1949 0001:0002A26C
  1952 0001:0002A27E  1957 0001:0002A28C  1958 0001:0002A292  1959 0001:0002A29D
  1962 0001:0002A2A4  1964 0001:0002A2AA  1966 0001:0002A2BC  1967 0001:0002A2C4
  1986 0001:0002A2C8  1988 0001:0002A2D7  1991 0001:0002A2E7  1992 0001:0002A2F9
  1996 0001:0002A308  1997 0001:0002A31F  2001 0001:0002A32E  2003 0001:0002A35A
  2008 0001:0002A36D  2012 0001:0002A388  2013 0001:0002A3B3  2016 0001:0002A3C4
  2024 0001:0002A3D2  2025 0001:0002A3E4  2030 0001:0002A3EA  2033 0001:0002A3F5
  2036 0001:0002A401  2052 0001:0002A408  2054 0001:0002A417  2057 0001:0002A41E
  2059 0001:0002A42C  2062 0001:0002A43C  2065 0001:0002A473  2067 0001:0002A47D
  2068 0001:0002A487  2069 0001:0002A497  2071 0001:0002A4A7  2072 0001:0002A4B1
  2076 0001:0002A4BD  2079 0001:0002A4CD  2082 0001:0002A4E3  2087 0001:0002A4EF
  2088 0001:0002A524  2095 0001:0002A530  2098 0001:0002A53C  2114 0001:0002A544
  2116 0001:0002A553  2119 0001:0002A55A  2121 0001:0002A568  2124 0001:0002A578
  2127 0001:0002A595  2128 0001:0002A5A1  2129 0001:0002A5B6  2135 0001:0002A5CB
  2136 0001:0002A5DD  2137 0001:0002A5EE  2138 0001:0002A5F8  2142 0001:0002A602
  2148 0001:0002A614  2149 0001:0002A626  2150 0001:0002A637  2151 0001:0002A641
  2155 0001:0002A64B  2158 0001:0002A65D  2162 0001:0002A669  2165 0001:0002A679
  2168 0001:0002A68F  2173 0001:0002A69B  2177 0001:0002A6AF  2180 0001:0002A6BB
  2199 0001:0002A6C4  2200 0001:0002A6D3  2203 0001:0002A6D8  2206 0001:0002A6E5
  2209 0001:0002A6F3  2212 0001:0002A6FC  2215 0001:0002A728  2216 0001:0002A72E
  2220 0001:0002A742  2221 0001:0002A748  2222 0001:0002A753  2225 0001:0002A75A
  2227 0001:0002A760  2229 0001:0002A76F  2230 0001:0002A777  2250 0001:0002A77C
  2252 0001:0002A78B  2254 0001:0002A796  2257 0001:0002A7A9  2261 0001:0002A7BB
  2262 0001:0002A7D1  2266 0001:0002A848  2267 0001:0002A868  2274 0001:0002A877
  2277 0001:0002A889  2284 0001:0002A8A8  2286 0001:0002A8AF  2288 0001:0002A8B7
  2296 0001:0002A937  2299 0001:0002A949  2306 0001:0002A962  2308 0001:0002A969
  2338 0001:0002A973  2342 0001:0002A97F  2345 0001:0002A988  2362 0001:0002A98C
  2364 0001:0002A99B  2367 0001:0002A9A4  2386 0001:0002A9A8  2388 0001:0002A9B7
  2398 0001:0002A9C7  2399 0001:0002A9D5  2402 0001:0002A9E0  2403 0001:0002A9E6
  2405 0001:0002A9EC  2406 0001:0002A9F5  2407 0001:0002AA06  2411 0001:0002AA21
  2403 0001:0002AA2A  2415 0001:0002AA30  2418 0001:0002AA36  2422 0001:0002AA3F
  2423 0001:0002AA4F  2434 0001:0002AA54  2436 0001:0002AA63  2437 0001:0002AA71
  2454 0001:0002AA78  2456 0001:0002AA87  2459 0001:0002AA97  2460 0001:0002AAA5
  2463 0001:0002AAB3  2466 0001:0002AACD  2467 0001:0002AAD5  2471 0001:0002AAE3
  2472 0001:0002AAEB  2476 0001:0002AAF9  2478 0001:0002AB09  2481 0001:0002AB26
  2484 0001:0002AB43  2488 0001:0002AB51  2490 0001:0002AB59  2494 0001:0002AB81
  2496 0001:0002AB89  2502 0001:0002ABB1  2506 0001:0002ABE7  2510 0001:0002ABF0
  2511 0001:0002AC00  2527 0001:0002AC04  2529 0001:0002AC13  2532 0001:0002AC23
  2533 0001:0002AC31  2536 0001:0002AC3F  2542 0001:0002AC51  2545 0001:0002AC59
  2559 0001:0002AC61  2560 0001:0002AC69  2563 0001:0002AC73  2564 0001:0002AC84
  2570 0001:0002AC8E  2574 0001:0002AC95  2578 0001:0002AC9E  2579 0001:0002ACAE
  2595 0001:0002ACB4  2597 0001:0002ACC3  2600 0001:0002ACD0  2603 0001:0002ACDE
  2606 0001:0002ACE7  2610 0001:0002ACF0  2611 0001:0002ACFD  2627 0001:0002AD04
  2629 0001:0002AD13  2632 0001:0002AD20  2635 0001:0002AD2E  2638 0001:0002AD37
  2642 0001:0002AD40  2643 0001:0002AD4D  2664 0001:0002AD54  2665 0001:0002AD66
  2668 0001:0002AD6B  2671 0001:0002AD7B  2674 0001:0002AD89  2675 0001:0002AD8F
  2674 0001:0002AD99  2679 0001:0002AD9F  2681 0001:0002ADAC  2685 0001:0002ADB7
  2691 0001:0002ADC6  2692 0001:0002ADD5  2695 0001:0002AE7A  2696 0001:0002AE99
  2701 0001:0002AEB2  2702 0001:0002AEC5  2706 0001:0002AEDE  2709 0001:0002AEFC
  2712 0001:0002AF1A  2714 0001:0002AF5B  2715 0001:0002AF6E  2716 0001:0002AF7C
  2721 0001:0002AF95  2722 0001:0002AFD6  2726 0001:0002B003  2727 0001:0002B044
  2731 0001:0002B071  2732 0001:0002B07F  2737 0001:0002B098  2738 0001:0002B0B7
  2764 0001:0002B0D0  2765 0001:0002B0EC  2770 0001:0002B108  2771 0001:0002B118
  2772 0001:0002B123  2778 0001:0002B18C  2784 0001:0002B198  2785 0001:0002B19E
  2786 0001:0002B1A9  2789 0001:0002B1B0  2791 0001:0002B1B6  2793 0001:0002B1C8
  2794 0001:0002B1D0  2813 0001:0002B1D4  2814 0001:0002B1E5  2817 0001:0002B1EA
  2820 0001:0002B1FA  2821 0001:0002B208  2824 0001:0002B219  2827 0001:0002B232
  2830 0001:0002B23B  2832 0001:0002B243  2835 0001:0002B255  2838 0001:0002B25C
  2841 0001:0002B272  2845 0001:0002B291  2846 0001:0002B297  2847 0001:0002B2A0
  2850 0001:0002B2A9  2852 0001:0002B2AF  2854 0001:0002B2B9  2855 0001:0002B2C9
  2886 0001:0002B2D0  2887 0001:0002B2D9  2888 0001:0002B2E0  2889 0001:0002B2E9
  2890 0001:0002B2F0  2892 0001:0002B2FA  2895 0001:0002B308  2896 0001:0002B311
  2897 0001:0002B330  2901 0001:0002B34E  2902 0001:0002B36D  2905 0001:0002B38B
  2908 0001:0002B399  2910 0001:0002B3C3  2914 0001:0002B3C8  2890 0001:0002B3D1
  2916 0001:0002B3DB  2931 0001:0002B3E0  2932 0001:0002B3F1  2935 0001:0002B3F6
  2938 0001:0002B406  2940 0001:0002B40C  2943 0001:0002B41A  2947 0001:0002B427
  2951 0001:0002B44D  2952 0001:0002B453  2953 0001:0002B457  2955 0001:0002B461
  2958 0001:0002B46F  2959 0001:0002B478  2960 0001:0002B48A  2963 0001:0002B4A7
  2964 0001:0002B4BD  2967 0001:0002B4D5  2970 0001:0002B4E3  2953 0001:0002B4EC
  2972 0001:0002B4F6  2975 0001:0002B500  2978 0001:0002B50D  2979 0001:0002B512
  2980 0001:0002B518  2982 0001:0002B522  2985 0001:0002B52B  2988 0001:0002B539
  2992 0001:0002B54A  2994 0001:0002B552  2997 0001:0002B56B  3004 0001:0002B572
  3006 0001:0002B57A  3009 0001:0002B58D  3013 0001:0002B594  3017 0001:0002B5A0
  3019 0001:0002B5A6  3020 0001:0002B5AC  3021 0001:0002B5B7  3024 0001:0002B5BF
  3025 0001:0002B5C8  3026 0001:0002B5CE  3027 0001:0002B5D9  3028 0001:0002B5DF
  3032 0001:0002B5E5  2980 0001:0002B5EB  3039 0001:0002B5FA  3042 0001:0002B619
  3045 0001:0002B638  3046 0001:0002B642  3049 0001:0002B64C  3052 0001:0002B65C
  3055 0001:0002B667  3056 0001:0002B66C  3057 0001:0002B672  3059 0001:0002B67C
  3062 0001:0002B685  3065 0001:0002B693  3069 0001:0002B6B2  3070 0001:0002B6CC
  3071 0001:0002B6DD  3073 0001:0002B6E5  3077 0001:0002B6EF  3079 0001:0002B6F7
  3082 0001:0002B70D  3086 0001:0002B712  3092 0001:0002B725  3094 0001:0002B731
  3096 0001:0002B739  3097 0001:0002B747  3100 0001:0002B75D  3104 0001:0002B767
  3106 0001:0002B773  3107 0001:0002B77C  3110 0001:0002B7BA  3111 0001:0002B7CB
  3114 0001:0002B7E1  3118 0001:0002B7EB  3119 0001:0002B7F8  3122 0001:0002B836
  3123 0001:0002B847  3124 0001:0002B85B  3127 0001:0002B875  3131 0001:0002B87C
  3133 0001:0002B885  3143 0001:0002B88C  3145 0001:0002B894  3148 0001:0002B8A7
  3152 0001:0002B8AE  3156 0001:0002B8BA  3158 0001:0002B8C0  3159 0001:0002B8C6
  3160 0001:0002B8D1  3163 0001:0002B8D9  3164 0001:0002B8E2  3165 0001:0002B8E8
  3166 0001:0002B8F3  3170 0001:0002B8F9  3057 0001:0002B8FF  3177 0001:0002B90E
  3180 0001:0002B92D  3181 0001:0002B937  3184 0001:0002B941  3187 0001:0002B94E
  3188 0001:0002B953  3189 0001:0002B959  3191 0001:0002B963  3194 0001:0002B96C
  3197 0001:0002B97A  3200 0001:0002B98E  3202 0001:0002B996  3203 0001:0002B9A4
  3206 0001:0002B9B4  3210 0001:0002B9BE  3211 0001:0002B9D5  3214 0001:0002BA13
  3215 0001:0002BA24  3216 0001:0002BA38  3219 0001:0002BA4B  3223 0001:0002BA52
  3225 0001:0002BA63  3229 0001:0002BA6A  3231 0001:0002BA73  3234 0001:0002BAA4
  3238 0001:0002BAA9  3240 0001:0002BAAF  3241 0001:0002BAB5  3242 0001:0002BAC0
  3245 0001:0002BAC8  3246 0001:0002BAD1  3247 0001:0002BAD7  3248 0001:0002BAE2
  3252 0001:0002BAE8  3189 0001:0002BAEE  3258 0001:0002BAFA  3262 0001:0002BB06
  3264 0001:0002BB0C  3267 0001:0002BB1E  3270 0001:0002BB25  3274 0001:0002BB3D
  3275 0001:0002BB43  3276 0001:0002BB4C  3279 0001:0002BB55  3281 0001:0002BB5B
  3283 0001:0002BB65  3284 0001:0002BB75  3295 0001:0002BB7C  3297 0001:0002BB8B
  3298 0001:0002BB99  3309 0001:0002BBA0  3313 0001:0002BBAF  3314 0001:0002BBB8
  3325 0001:0002BBBC  3326 0001:0002BBCB  3329 0001:0002BBDE  3332 0001:0002BBED
  3334 0001:0002BC55  3337 0001:0002BC68  3340 0001:0002BC7B  3343 0001:0002BC8E
  3346 0001:0002BCA1  3349 0001:0002BCB4  3352 0001:0002BCC7  3355 0001:0002BCDA
  3358 0001:0002BCEA  3361 0001:0002BCFA  3364 0001:0002BD0A  3367 0001:0002BD1A
  3370 0001:0002BD2A  3373 0001:0002BD3A  3376 0001:0002BD4A  3379 0001:0002BD5A
  3383 0001:0002BD66  3392 0001:0002BD6C  3396 0001:0002BD7B  3399 0001:0002BD96
  3402 0001:0002BDB1  3403 0001:0002BDCC  3406 0001:0002BDE3  3409 0001:0002BDFA
  3412 0001:0002BE15  3415 0001:0002BE30  3418 0001:0002BE4B  3421 0001:0002BE66
  3424 0001:0002BE81  3427 0001:0002BE9C  3430 0001:0002BEB3  3431 0001:0002BECE
  3440 0001:0002BF08  3443 0001:0002BF17  3446 0001:0002BF33  3449 0001:0002BF4F
  3450 0001:0002BF6B  3459 0001:0002BF84  3460 0001:0002BF89  3461 0001:0002BF8E
  3465 0001:0002BFC7

Line numbers for cx_final(cx_final.pas) segment .text

    56 0001:0002BFC8    57 0001:0002BFD2    58 0001:0002BFD8    59 0001:0002BFDE
    60 0001:0002BFE7    83 0001:0002BFEC    90 0001:0002BFFB    93 0001:0002C00C
    96 0001:0002C024    98 0001:0002C04A   100 0001:0002C056   106 0001:0002C05C
   108 0001:0002C06B   111 0001:0002C07B   115 0001:0002C086   116 0001:0002C091
   117 0001:0002C0AD   122 0001:0002C0C9   123 0001:0002C101   124 0001:0002C11A
   125 0001:0002C135   126 0001:0002C14E   127 0001:0002C169   128 0001:0002C186
   134 0001:0002C192   135 0001:0002C198   136 0001:0002C19C   138 0001:0002C1A6
   139 0001:0002C1DE   140 0001:0002C1F7   141 0001:0002C210   142 0001:0002C22B
   143 0001:0002C246   144 0001:0002C263   148 0001:0002C26F   151 0001:0002C287
   136 0001:0002C290   155 0001:0002C29A   156 0001:0002C2A9   157 0001:0002C2AE
   190 0001:0002C2B0   191 0001:0002C2B9   207 0001:0002C2C0   209 0001:0002C2CF
   212 0001:0002C2DC   215 0001:0002C2E7   218 0001:0002C300   221 0001:0002C319
   229 0001:0002C322   230 0001:0002C32B   247 0001:0002C334   257 0001:0002C343
   261 0001:0002C377   264 0001:0002C385   266 0001:0002C390   268 0001:0002C3A5
   270 0001:0002C3C5   274 0001:0002C3E1   276 0001:0002C3EE   277 0001:0002C3F8
   282 0001:0002C40E   288 0001:0002C427   289 0001:0002C438   290 0001:0002C442
   295 0001:0002C451   296 0001:0002C46B   297 0001:0002C47C   298 0001:0002C486
   302 0001:0002C495   309 0001:0002C4A6   310 0001:0002C4B6   311 0001:0002C4C7
   312 0001:0002C4D1   317 0001:0002C4E0   326 0001:0002C4F1   327 0001:0002C4FC
   331 0001:0002C51A   337 0001:0002C53B   340 0001:0002C549   342 0001:0002C554
   345 0001:0002C564   347 0001:0002C582   349 0001:0002C5A0   353 0001:0002C5BC
   359 0001:0002C5DF   360 0001:0002C5EA   364 0001:0002C606   370 0001:0002C629
   371 0001:0002C634   375 0001:0002C650   381 0001:0002C67A   382 0001:0002C685
   386 0001:0002C6A3   391 0001:0002C6BC   410 0001:0002C6D5   411 0001:0002C6DE
   427 0001:0002C6E4   428 0001:0002C6F3   432 0001:0002C703   434 0001:0002C717
   439 0001:0002C737   440 0001:0002C75A   445 0001:0002C76D   446 0001:0002C78F
   447 0001:0002C79D   450 0001:0002C7D8   451 0001:0002C7E2   454 0001:0002C7E9
   455 0001:0002C7F3   475 0001:0002C7FF   480 0001:0002C808   490 0001:0002C886
   491 0001:0002C88F   509 0001:0002C89C   511 0001:0002C8AB   514 0001:0002C8BB
   517 0001:0002C8D2   518 0001:0002C8D6   520 0001:0002C8E0   522 0001:0002C8F8
   525 0001:0002C914   528 0001:0002C930   530 0001:0002C94C   532 0001:0002C958
   535 0001:0002C967   543 0001:0002C97F   518 0001:0002C988   547 0001:0002C992
   555 0001:0002C9A1   556 0001:0002C9AA   572 0001:0002C9B0   574 0001:0002C9BF
   577 0001:0002C9CF   580 0001:0002C9EA   583 0001:0002CA05   591 0001:0002CA17
   592 0001:0002CA20   608 0001:0002CA28   610 0001:0002CA37   613 0001:0002CA47
   616 0001:0002CA60   619 0001:0002CA85   622 0001:0002CA97   642 0001:0002CAA7
   644 0001:0002CAB3   648 0001:0002CABF   649 0001:0002CAC8   662 0001:0002CAD0
   664 0001:0002CADF   667 0001:0002CAFB   675 0001:0002CB09   676 0001:0002CB12
   689 0001:0002CB18   691 0001:0002CB27   694 0001:0002CB4C   697 0001:0002CB59
   703 0001:0002CB79   704 0001:0002CB8A   705 0001:0002CB94   710 0001:0002CBA0
   711 0001:0002CBC3   712 0001:0002CBD4   713 0001:0002CBDE   717 0001:0002CBEA
   722 0001:0002CBF6   730 0001:0002CC04   731 0001:0002CC0D   749 0001:0002CC14
   751 0001:0002CC23   754 0001:0002CC33   755 0001:0002CC37   759 0001:0002CC42
   767 0001:0002CC4E   769 0001:0002CC5E   771 0001:0002CC77   773 0001:0002CC92
   775 0001:0002CC9E   779 0001:0002CCB6   780 0001:0002CCBC   779 0001:0002CCC6
   784 0001:0002CCCC   792 0001:0002CCD2   793 0001:0002CCDB   810 0001:0002CCE4
   812 0001:0002CCF3   815 0001:0002CD03   818 0001:0002CD1A   819 0001:0002CD36
   822 0001:0002CD45   832 0001:0002CD57   833 0001:0002CD60   851 0001:0002CD68
   853 0001:0002CD77   856 0001:0002CD87   858 0001:0002CD8D   859 0001:0002CDA4
   861 0001:0002CDB1   867 0001:0002CDB5   877 0001:0002CDBB   878 0001:0002CDC4
   896 0001:0002CDCC   898 0001:0002CDDB   901 0001:0002CDEB   904 0001:0002CE02
   905 0001:0002CE06   907 0001:0002CE10   909 0001:0002CE21   912 0001:0002CE3D
   914 0001:0002CE59   916 0001:0002CE65   919 0001:0002CE74   922 0001:0002CE8C
   905 0001:0002CE95   926 0001:0002CE9F   934 0001:0002CEAE   935 0001:0002CEB7
   948 0001:0002CEC0   958 0001:0002CECF   959 0001:0002CED8   967 0001:0002CEE0
   968 0001:0002CEEF   971 0001:0002CF02   974 0001:0002CF11   976 0001:0002CF79
   979 0001:0002CF94   982 0001:0002CFAF   985 0001:0002CFCA   988 0001:0002CFE5
   991 0001:0002D000   994 0001:0002D01B   997 0001:0002D036  1000 0001:0002D051
  1003 0001:0002D06C  1006 0001:0002D087  1009 0001:0002D09F  1012 0001:0002D0B7
  1015 0001:0002D0CF  1018 0001:0002D0E7  1021 0001:0002D0FF  1023 0001:0002D10B
  1027 0001:0002D14B

Line numbers for cb_choice(CC_CHOICE0.pas) segment .text

    14 0001:0002D14C    15 0001:0002D158    16 0001:0002D169    23 0001:0002D191
    35 0001:0002D198    37 0001:0002D1A9    39 0001:0002D1B2    42 0001:0002D1BF
    43 0001:0002D1C9    44 0001:0002D1DB    51 0001:0002D1F3    54 0001:0002D20A
    56 0001:0002D228    60 0001:0002D237    66 0001:0002D24E    69 0001:0002D25B
    72 0001:0002D276    73 0001:0002D27C    74 0001:0002D28E    82 0001:0002D2A6
    85 0001:0002D2C7    87 0001:0002D2F0    91 0001:0002D2FF    97 0001:0002D321
   100 0001:0002D32E   101 0001:0002D334   102 0001:0002D351   113 0001:0002D373
   116 0001:0002D37A   119 0001:0002D3AE   122 0001:0002D3BF   127 0001:0002D3C7
   135 0001:0002D3CC   138 0001:0002D3E9   139 0001:0002D40F   142 0001:0002D434
   144 0001:0002D443   145 0001:0002D467   146 0001:0002D498   150 0001:0002D4A3
   152 0001:0002D4B2   156 0001:0002D4D1   158 0001:0002D4E0   164 0001:0002D4FB
   167 0001:0002D508   168 0001:0002D534   171 0001:0002D53A   172 0001:0002D553
   179 0001:0002D56D   183 0001:0002D56F   184 0001:0002D572   186 0001:0002D577
   199 0001:0002D580   200 0001:0002D58C   201 0001:0002D5C1   202 0001:0002D5D1
   217 0001:0002D5D8   219 0001:0002D5E9   221 0001:0002D5F2   224 0001:0002D5FF
   225 0001:0002D609   226 0001:0002D61B   233 0001:0002D633   236 0001:0002D64A
   238 0001:0002D668   242 0001:0002D677   248 0001:0002D68E   251 0001:0002D69B
   254 0001:0002D6B6   255 0001:0002D6BC   256 0001:0002D6CE   264 0001:0002D6E6
   267 0001:0002D707   269 0001:0002D730   273 0001:0002D73F   279 0001:0002D761
   282 0001:0002D76E   283 0001:0002D774   284 0001:0002D791   297 0001:0002D7B3
   298 0001:0002D7BA   301 0001:0002D7D6   302 0001:0002D7F0   303 0001:0002D7F4
   307 0001:0002D7F6   308 0001:0002D810   309 0001:0002D814   313 0001:0002D816
   314 0001:0002D830   315 0001:0002D834   319 0001:0002D836   320 0001:0002D839
   321 0001:0002D84F   324 0001:0002D851   325 0001:0002D85A   328 0001:0002D876
   329 0001:0002D890   330 0001:0002D894   334 0001:0002D896   335 0001:0002D8B0
   336 0001:0002D8B4   340 0001:0002D8B6   341 0001:0002D8D0   342 0001:0002D8D4
   346 0001:0002D8D6   347 0001:0002D8D9   348 0001:0002D8EA   351 0001:0002D8EC
   353 0001:0002D8F8   355 0001:0002D904   358 0001:0002D928   363 0001:0002D93B
   370 0001:0002D95F   373 0001:0002D983   377 0001:0002D996   379 0001:0002D9B3
   382 0001:0002D9C0   385 0001:0002D9ED   386 0001:0002D9F3   387 0001:0002DA0D
   391 0001:0002DA2C   393 0001:0002DA40   394 0001:0002DA5A   397 0001:0002DA74
   398 0001:0002DA80   403 0001:0002DA93   405 0001:0002DAA1   408 0001:0002DABB
   409 0001:0002DAC3   414 0001:0002DAD3   416 0001:0002DAE1   419 0001:0002DAFB
   420 0001:0002DB03   425 0001:0002DB13   501 0001:0002DB1F

Line numbers for cb_choice(cb_choice.pas) segment .text

    61 0001:0002DB5F

Line numbers for cb_def(cb_def.pas) segment .text

   483 0001:0002DCC0   485 0001:0002DCCF   486 0001:0002DCDE   487 0001:0002DD01
   488 0001:0002DD22   492 0001:0002DD32   493 0001:0002DD43   494 0001:0002DD5B
   500 0001:0002DD67   501 0001:0002DDD8   502 0001:0002DDED   503 0001:0002DE02
   504 0001:0002DE17   505 0001:0002DE2C   506 0001:0002DE41   507 0001:0002DE56
   508 0001:0002DE6B   509 0001:0002DE80   510 0001:0002DE95   511 0001:0002DEAA
   512 0001:0002DEBF   513 0001:0002DED4   514 0001:0002DEE9   515 0001:0002DEFE
   516 0001:0002DF13   517 0001:0002DF25   518 0001:0002DF37   519 0001:0002DF49
   520 0001:0002DF5B   521 0001:0002DF6D   522 0001:0002DF7F   523 0001:0002DF91
   525 0001:0002DF9D   526 0001:0002DFA7   527 0001:0002DFB4   528 0001:0002DFC1
   536 0001:0002DFC8   537 0001:0002DFD4   540 0001:0002DFDA   541 0001:0002DFE3
   542 0001:0002DFEA   550 0001:0002DFF0   551 0001:0002E006   559 0001:0002E00C
   560 0001:0002E026   561 0001:0002E03F   569 0001:0002E048   570 0001:0002E054
   571 0001:0002E06D   589 0001:0002E074   590 0001:0002E082   591 0001:0002E08F
   599 0001:0002E09C   600 0001:0002E0AA   601 0001:0002E0B7   609 0001:0002E0C8
   610 0001:0002E0D6   611 0001:0002E0E4   619 0001:0002E0F4   620 0001:0002E102
   621 0001:0002E10F   629 0001:0002E120   630 0001:0002E12E   631 0001:0002E13A
   639 0001:0002E148   640 0001:0002E156   641 0001:0002E162   649 0001:0002E170
   650 0001:0002E17C   651 0001:0002E185   659 0001:0002E18C   660 0001:0002E19A
   661 0001:0002E1A6   669 0001:0002E1B4   670 0001:0002E1C2   671 0001:0002E1CF
   679 0001:0002E1E0   680 0001:0002E1EE   681 0001:0002E1FB   689 0001:0002E208
   690 0001:0002E216   691 0001:0002E222   699 0001:0002E230   700 0001:0002E23C
   701 0001:0002E245   709 0001:0002E24C   710 0001:0002E25A   711 0001:0002E267
   719 0001:0002E278   720 0001:0002E286   721 0001:0002E292   729 0001:0002E2A0
   730 0001:0002E2AE   731 0001:0002E2BC   739 0001:0002E2CC   740 0001:0002E2DA
   741 0001:0002E2E8   749 0001:0002E2FC   750 0001:0002E30A   751 0001:0002E316
   759 0001:0002E324   760 0001:0002E332   761 0001:0002E33F   769 0001:0002E350
   770 0001:0002E35E   771 0001:0002E36B   779 0001:0002E380   780 0001:0002E38E
   781 0001:0002E39C   789 0001:0002E3B0   790 0001:0002E3BE   791 0001:0002E3CA
   799 0001:0002E3D8   800 0001:0002E3E6   801 0001:0002E3F4   822 0001:0002E404
   823 0001:0002E413   824 0001:0002E41D   827 0001:0002E424   828 0001:0002E436
   829 0001:0002E44A   830 0001:0002E45C   831 0001:0002E46C   827 0001:0002E46F
   833 0001:0002E474   834 0001:0002E47A   836 0001:0002E483   837 0001:0002E493
   840 0001:0002E4A7   841 0001:0002E4B7   845 0001:0002E4C9   848 0001:0002E4D9
   854 0001:0002E514   823 0001:0002E51D   856 0001:0002E527   858 0001:0002E540
   859 0001:0002E54B   860 0001:0002E55A   861 0001:0002E566   865 0001:0002E5C3

Line numbers for cb_parse(cb_parse.pas) segment .text

    57 0001:0002E5C4    66 0001:0002E5D3    67 0001:0002E5E8    68 0001:0002E5F2
    71 0001:0002E5FE    72 0001:0002E60C    73 0001:0002E61D    78 0001:0002E627
    79 0001:0002E633    80 0001:0002E644    81 0001:0002E651    83 0001:0002E65B
    87 0001:0002E665    88 0001:0002E671    91 0001:0002E67D    94 0001:0002E68A
    97 0001:0002E694   100 0001:0002E6A1   103 0001:0002E6AC   104 0001:0002E6BB
   118 0001:0002E6C8   120 0001:0002E6D7   123 0001:0002E6E4   126 0001:0002E6F0
   135 0001:0002E702   138 0001:0002E70E   139 0001:0002E71D   155 0001:0002E724
   157 0001:0002E733   160 0001:0002E740   161 0001:0002E74D   162 0001:0002E758
   166 0001:0002E763   169 0001:0002E76F   172 0001:0002E77F   173 0001:0002E78D
   174 0001:0002E79E   179 0001:0002E7A8   182 0001:0002E7B4   185 0001:0002E7C1
   188 0001:0002E7D2   191 0001:0002E7DD   192 0001:0002E7E6   193 0001:0002E7F3
   194 0001:0002E801   197 0001:0002E80C   200 0001:0002E816   202 0001:0002E81C
   205 0001:0002E82F   208 0001:0002E834   211 0001:0002E840   212 0001:0002E84E
   213 0001:0002E85F   218 0001:0002E869   221 0001:0002E875   222 0001:0002E884
   237 0001:0002E888   239 0001:0002E897   242 0001:0002E8A4   245 0001:0002E8AE
   248 0001:0002E8BD   251 0001:0002E8D0   254 0001:0002E8DB   256 0001:0002E8E7
   260 0001:0002E8F4   261 0001:0002E8F9   262 0001:0002E907   263 0001:0002E918
   271 0001:0002E924   276 0001:0002E938   277 0001:0002E949   279 0001:0002E953
   283 0001:0002E966   286 0001:0002E972   287 0001:0002E981   303 0001:0002E988
   305 0001:0002E997   308 0001:0002E9A3   311 0001:0002E9B0   314 0001:0002E9C2
   315 0001:0002E9CD   316 0001:0002E9DF   317 0001:0002E9ED   319 0001:0002E9F7
   323 0001:0002EA0C   324 0001:0002EA17   326 0001:0002EA22   329 0001:0002EA2D
   332 0001:0002EA38   333 0001:0002EA41   337 0001:0002EA46   341 0001:0002EA5A
   344 0001:0002EA65   348 0001:0002EA70   351 0001:0002EA79   356 0001:0002EA80
   357 0001:0002EA91   362 0001:0002EA9B   363 0001:0002EAA9   364 0001:0002EABA
   369 0001:0002EAC4   372 0001:0002EAD0   375 0001:0002EADF   378 0001:0002EAF2
   381 0001:0002EAFE   382 0001:0002EB0C   383 0001:0002EB1D   385 0001:0002EB27
   389 0001:0002EB31   392 0001:0002EB3D   393 0001:0002EB4C   408 0001:0002EB50
   410 0001:0002EB5F   413 0001:0002EB6B   416 0001:0002EB78   419 0001:0002EB8A
   420 0001:0002EB98   421 0001:0002EBA9   426 0001:0002EBB3   429 0001:0002EBBF
   432 0001:0002EBCE   435 0001:0002EBE1   438 0001:0002EBED   439 0001:0002EBFB
   440 0001:0002EC0C   445 0001:0002EC16   448 0001:0002EC22   449 0001:0002EC31
   465 0001:0002EC38   467 0001:0002EC47   470 0001:0002EC53   473 0001:0002EC60
   476 0001:0002EC72   479 0001:0002EC7E   483 0001:0002EC8D   484 0001:0002EC97
   485 0001:0002ECA1   488 0001:0002ECAB   491 0001:0002ECB7   492 0001:0002ECC4
   493 0001:0002ECCF   494 0001:0002ECDC   495 0001:0002ECEA   498 0001:0002ECF5
   502 0001:0002ED03   507 0001:0002ED0C   508 0001:0002ED13   512 0001:0002ED23
   513 0001:0002ED31   514 0001:0002ED42   519 0001:0002ED4C   522 0001:0002ED58
   525 0001:0002ED65   486 0001:0002ED76   529 0001:0002ED97   532 0001:0002EDA3
   533 0001:0002EDB1   534 0001:0002EDC2   539 0001:0002EDCC   542 0001:0002EDD8
   543 0001:0002EDE7   559 0001:0002EDEC   561 0001:0002EDFB   564 0001:0002EE07
   567 0001:0002EE14   572 0001:0002EE22   573 0001:0002EE2D   577 0001:0002EE42
   580 0001:0002EE4B   584 0001:0002EE5F   588 0001:0002EE6A   591 0001:0002EE73
   594 0001:0002EE7F   597 0001:0002EE8E   598 0001:0002EE98   601 0001:0002EEA7
   604 0001:0002EEB3   605 0001:0002EEC0   606 0001:0002EECB   607 0001:0002EED8
   608 0001:0002EEE6   614 0001:0002EEF1   615 0001:0002EEFF   616 0001:0002EF10
   621 0001:0002EF1A   624 0001:0002EF26   627 0001:0002EF33   599 0001:0002EF44
   631 0001:0002EF56   634 0001:0002EF62   635 0001:0002EF70   636 0001:0002EF81
   641 0001:0002EF8B   644 0001:0002EF97   645 0001:0002EFA6   660 0001:0002EFBC
   662 0001:0002EFCB   665 0001:0002EFD9   666 0001:0002EFE7   667 0001:0002EFF8
   670 0001:0002F002   686 0001:0002F008   688 0001:0002F017   691 0001:0002F023
   694 0001:0002F030   695 0001:0002F03B   696 0001:0002F050   700 0001:0002F062
   701 0001:0002F070   705 0001:0002F082   708 0001:0002F08E   709 0001:0002F09D
   728 0001:0002F0B4   730 0001:0002F0C3   733 0001:0002F0CF   736 0001:0002F0DC
   737 0001:0002F0E7   739 0001:0002F0FC   743 0001:0002F10E   745 0001:0002F11C
   749 0001:0002F12E   752 0001:0002F13A   755 0001:0002F149   756 0001:0002F154
   759 0001:0002F161   760 0001:0002F16C   765 0001:0002F181   768 0001:0002F18A
   772 0001:0002F19E   778 0001:0002F1A9   781 0001:0002F1B2   787 0001:0002F1C7
   789 0001:0002F1D0   794 0001:0002F1D5   795 0001:0002F1E7   796 0001:0002F1F2
   800 0001:0002F202   801 0001:0002F20D   802 0001:0002F21E   804 0001:0002F228
   808 0001:0002F232   809 0001:0002F240   810 0001:0002F251   815 0001:0002F25B
   818 0001:0002F264   821 0001:0002F277   827 0001:0002F27C   828 0001:0002F28A
   829 0001:0002F29B   834 0001:0002F2A5   837 0001:0002F2AE   842 0001:0002F2C3
   843 0001:0002F2D4   845 0001:0002F2DE   850 0001:0002F2E8   851 0001:0002F2F6
   852 0001:0002F307   855 0001:0002F311   870 0001:0002F328   872 0001:0002F337
   875 0001:0002F343   878 0001:0002F350   883 0001:0002F362   884 0001:0002F370
   888 0001:0002F382   889 0001:0002F390   893 0001:0002F3A2   896 0001:0002F3AE
   897 0001:0002F3BD   912 0001:0002F3C4   914 0001:0002F3D3   917 0001:0002F3DF
   920 0001:0002F3EC   923 0001:0002F3FE   926 0001:0002F40A   927 0001:0002F419
   942 0001:0002F420   944 0001:0002F42F   947 0001:0002F43C   950 0001:0002F446
   951 0001:0002F455   966 0001:0002F45C   968 0001:0002F46B   971 0001:0002F478
   974 0001:0002F482   975 0001:0002F491   992 0001:0002F498   994 0001:0002F4AA
   997 0001:0002F4B9  1000 0001:0002F4C6  1001 0001:0002F4D4  1002 0001:0002F4E5
  1004 0001:0002F4EF  1006 0001:0002F4F9  1014 0001:0002F514  1015 0001:0002F529
  1016 0001:0002F52F  1017 0001:0002F540  1018 0001:0002F54D  1020 0001:0002F557
  1022 0001:0002F561  1023 0001:0002F569  1024 0001:0002F57A  1026 0001:0002F584
  1030 0001:0002F58E  1033 0001:0002F599  1036 0001:0002F5A2  1039 0001:0002F5B1
  1040 0001:0002F5C3  1056 0001:0002F5CC  1058 0001:0002F5DB  1061 0001:0002F5E7
  1064 0001:0002F5F4  1067 0001:0002F606  1070 0001:0002F612  1071 0001:0002F621
  1086 0001:0002F628  1088 0001:0002F638  1091 0001:0002F642  1092 0001:0002F64F
  1093 0001:0002F659  1096 0001:0002F663  1099 0001:0002F672  1102 0001:0002F685
  1105 0001:0002F68F  1108 0001:0002F69E  1109 0001:0002F6A5  1110 0001:0002F6AA
  1125 0001:0002F6B0  1126 0001:0002F6C2  1127 0001:0002F6C9  1129 0001:0002F6D1
  1132 0001:0002F6DF  1134 0001:0002F6ED  1135 0001:0002F6F8  1138 0001:0002F70B
  1139 0001:0002F710  1141 0001:0002F72A  1144 0001:0002F730  1145 0001:0002F738
  1146 0001:0002F742  1147 0001:0002F74E  1151 0001:0002F759  1157 0001:0002F786
  1160 0001:0002F78B  1161 0001:0002F790  1165 0001:0002F7A5  1166 0001:0002F7AA
  1170 0001:0002F7BD  1171 0001:0002F867  1172 0001:0002F87A  1173 0001:0002F88D
  1174 0001:0002F8A0  1175 0001:0002F8B3  1176 0001:0002F8C6  1177 0001:0002F8D9
  1178 0001:0002F8EC  1179 0001:0002F8FF  1180 0001:0002F912  1181 0001:0002F922
  1182 0001:0002F932  1183 0001:0002F942  1184 0001:0002F952  1185 0001:0002F962
  1186 0001:0002F972  1187 0001:0002F982  1188 0001:0002F989  1192 0001:0002F993
  1193 0001:0002F999  1194 0001:0002F9A1  1195 0001:0002F9AB  1196 0001:0002F9B7
  1200 0001:0002F9C0  1203 0001:0002F9E6  1206 0001:0002F9FE  1209 0001:0002FA08
  1211 0001:0002FA0D  1227 0001:0002FA24  1229 0001:0002FA33  1230 0001:0002FA3A
  1231 0001:0002FA42  1234 0001:0002FA4C  1237 0001:0002FA58  1238 0001:0002FA65
  1239 0001:0002FA6D  1240 0001:0002FA77  1241 0001:0002FA83  1244 0001:0002FA8C
  1248 0001:0002FA9A  1253 0001:0002FAA3  1254 0001:0002FAAA  1258 0001:0002FABA
  1259 0001:0002FAC8  1260 0001:0002FAD9  1265 0001:0002FAE3  1268 0001:0002FAEF
  1271 0001:0002FAFC  1232 0001:0002FB0D  1273 0001:0002FB2E  1285 0001:0002FB34
  1287 0001:0002FB43  1290 0001:0002FB4D  1293 0001:0002FB5A  1296 0001:0002FB69
  1299 0001:0002FB7C  1301 0001:0002FB8A  1304 0001:0002FB99  1308 0001:0002FBAC
  1310 0001:0002FBBA  1313 0001:0002FBC9  1317 0001:0002FBDC  1320 0001:0002FBE6
  1321 0001:0002FBF5  1325 0001:0002FC33

Line numbers for cb_opt(cb_opt.pas) segment .text

    48 0001:0002FC34    50 0001:0002FC43    53 0001:0002FC49    54 0001:0002FC4E
    55 0001:0002FC56    57 0001:0002FC60    60 0001:0002FC69    63 0001:0002FC71
    65 0001:0002FC7F    70 0001:0002FC85    71 0001:0002FC8B    72 0001:0002FC96
    75 0001:0002FCA0    78 0001:0002FCB2    79 0001:0002FCBB    82 0001:0002FCCA
    85 0001:0002FCD9    91 0001:0002FCE1    92 0001:0002FCE7    93 0001:0002FCF2
    94 0001:0002FCFA   100 0001:0002FD09    55 0001:0002FD0F   102 0001:0002FD19
   116 0001:0002FD20   120 0001:0002FD2F   121 0001:0002FD3A   122 0001:0002FD41
   126 0001:0002FD43   127 0001:0002FD4C   138 0001:0002FD50   142 0001:0002FD5F
   143 0001:0002FD68   154 0001:0002FD6C   157 0001:0002FD7B   158 0001:0002FD84
   169 0001:0002FD88   172 0001:0002FD97   173 0001:0002FDA0   184 0001:0002FDA4
   187 0001:0002FDB3   188 0001:0002FDBC   199 0001:0002FDC0   202 0001:0002FDCF
   203 0001:0002FDD8   214 0001:0002FDDC   217 0001:0002FDEB   218 0001:0002FDF4
   229 0001:0002FDF8   232 0001:0002FE07   233 0001:0002FE10   244 0001:0002FE14
   247 0001:0002FE23   248 0001:0002FE2C   265 0001:0002FE30   267 0001:0002FE3F
   270 0001:0002FE43   271 0001:0002FE4E   272 0001:0002FE54   275 0001:0002FE67
   277 0001:0002FE7F   278 0001:0002FE8B   279 0001:0002FE99   294 0001:0002FEA4
   295 0001:0002FEB9   298 0001:0002FEC2   271 0001:0002FECB   302 0001:0002FED1
   305 0001:0002FED7   306 0001:0002FEE0   320 0001:0002FEE4   322 0001:0002FEF3
   325 0001:0002FF0A   328 0001:0002FF10   330 0001:0002FF2C   331 0001:0002FF38
   332 0001:0002FF46   339 0001:0002FF53   340 0001:0002FF5C   354 0001:0002FF60
   356 0001:0002FF6F   359 0001:0002FF86   362 0001:0002FF8C   363 0001:0002FF95
   377 0001:0002FF9C   379 0001:0002FFAB   382 0001:0002FFC2   385 0001:0002FFC8
   387 0001:0002FFD9   388 0001:0002FFE5   389 0001:0002FFF3   396 0001:00030000
   397 0001:00030009   417 0001:00030010   431 0001:0003001F   434 0001:00030023
   435 0001:00030027   436 0001:00030032   437 0001:00030037   439 0001:00030041
   445 0001:00030056   446 0001:0003005E   447 0001:00030066   450 0001:00030077
   451 0001:0003008B   454 0001:000300A3   457 0001:000300B3   458 0001:000300BB
   459 0001:000300C9   463 0001:000300DF   465 0001:000300EB   468 0001:00030106
   469 0001:0003012F   470 0001:00030140   471 0001:00030154   476 0001:0003016E
   477 0001:00030197   478 0001:000301A8   483 0001:000301BB   484 0001:000301CC
   487 0001:000301D6   492 0001:000301E4   493 0001:000301ED   496 0001:00030222
   497 0001:0003022E   451 0001:00030231   503 0001:0003023A   508 0001:00030243
   509 0001:00030249   510 0001:00030259   511 0001:00030265   521 0001:0003027F
   528 0001:00030287   531 0001:0003028B   534 0001:00030293   538 0001:0003029F
   539 0001:000302B4   542 0001:000302BD   437 0001:000302C6   546 0001:000302D0
   551 0001:000302D4   554 0001:000302DA   555 0001:000302E3   566 0001:000302E8
   569 0001:000302F7   570 0001:00030300   586 0001:00030304   588 0001:00030313
   589 0001:0003031B   590 0001:00030321   591 0001:00030327   594 0001:00030349
   595 0001:0003035E   598 0001:00030375   601 0001:00030384   590 0001:0003038D
   603 0001:00030393   617 0001:0003039C   619 0001:000303AB   622 0001:000303C2
   625 0001:000303D9   628 0001:000303F0   631 0001:000303FE   632 0001:00030407
   643 0001:0003040C   646 0001:0003041B   647 0001:00030424   658 0001:00030428
   660 0001:00030437   661 0001:00030440   669 0001:00030444   670 0001:00030453
   673 0001:00030466   676 0001:00030475   678 0001:000304D9   681 0001:000304EC
   684 0001:000304FF   687 0001:00030512   690 0001:00030525   693 0001:00030538
   696 0001:0003054B   699 0001:0003055E   702 0001:00030571   705 0001:00030584
   708 0001:00030597   711 0001:000305A7   714 0001:000305B7   717 0001:000305C7
   720 0001:000305D7   723 0001:000305E7   726 0001:000305F7   729 0001:00030607
   732 0001:00030617   734 0001:00030623   738 0001:0003065F

Line numbers for cb_form(cb_form.pas) segment .text

    71 0001:00030660    73 0001:0003066F    78 0001:00030675    79 0001:0003067D
    80 0001:00030683    81 0001:00030698    79 0001:000306A1    85 0001:000306A7
    86 0001:000306AF    88 0001:000306B5    91 0001:000306C7    94 0001:000306D6
    86 0001:000306DF    98 0001:000306E5    99 0001:000306ED   100 0001:000306F3
   101 0001:000306FB   102 0001:00030708    99 0001:00030711   104 0001:00030717
   119 0001:00030720   121 0001:0003072F   123 0001:00030750   126 0001:00030760
   127 0001:00030769   139 0001:00030770   141 0001:0003077F   142 0001:00030785
   143 0001:00030796   144 0001:000307A5   146 0001:000307B1   150 0001:000307BB
   151 0001:000307CD   152 0001:000307DB   156 0001:000307E7   157 0001:000307F0
   169 0001:00030828   173 0001:00030837   174 0001:00030840   189 0001:00030848
   191 0001:00030857   195 0001:00030862   196 0001:00030883   201 0001:00030895
   202 0001:0003089B   203 0001:000308AC   204 0001:000308BB   206 0001:000308C7
   211 0001:000308D1   212 0001:000308DC   216 0001:000308E6   217 0001:000308EF
   229 0001:0003093C   232 0001:0003094B   233 0001:00030954   245 0001:0003095C
   256 0001:0003096E   257 0001:0003097F   258 0001:00030990   259 0001:000309BD
   261 0001:000309C9   265 0001:000309CB   266 0001:000309DC   267 0001:000309ED
   268 0001:000309FC   270 0001:00030A08   274 0001:00030A0A   275 0001:00030A13
   291 0001:00030A98   293 0001:00030AA7   295 0001:00030AC8   298 0001:00030ADC
   299 0001:00030AEF   302 0001:00030B06   308 0001:00030B1B   313 0001:00030B27
   314 0001:00030B38   315 0001:00030B45   318 0001:00030B51   322 0001:00030B5D
   324 0001:00030B68   325 0001:00030B74   326 0001:00030B85   327 0001:00030B92
   331 0001:00030B9C   333 0001:00030BBD   337 0001:00030BD1   342 0001:00030BE0
   343 0001:00030BFD   345 0001:00030C1E   349 0001:00030C37   350 0001:00030C52
   352 0001:00030C89   357 0001:00030CA2   358 0001:00030CB3   359 0001:00030CC0
   368 0001:00030CCC   371 0001:00030D0F   372 0001:00030D20   373 0001:00030D2D
   378 0001:00030D37   379 0001:00030D40   394 0001:00030D48   396 0001:00030D57
   398 0001:00030D78   401 0001:00030D88   402 0001:00030D91   414 0001:00030D98
   417 0001:00030DA7   418 0001:00030DB0   435 0001:00030DB8   437 0001:00030DC7
   440 0001:00030DCB   441 0001:00030DD6   442 0001:00030DDC   445 0001:00030DEF
   446 0001:00030DF8   448 0001:00030E17   452 0001:00030E27   453 0001:00030E40
   456 0001:00030E49   441 0001:00030E52   460 0001:00030E58   463 0001:00030E5E
   464 0001:00030E67   481 0001:00030E70   483 0001:00030E7F   484 0001:00030E85
   485 0001:00030E89   488 0001:00030E8D   491 0001:00030EA8   493 0001:00030EB3
   495 0001:00030ED4   499 0001:00030EE4   502 0001:00030EEA   503 0001:00030EF3
   521 0001:00030EFC   523 0001:00030F0B   524 0001:00030F11   525 0001:00030F15
   528 0001:00030F19   530 0001:00030F35   533 0001:00030F49   534 0001:00030F59
   535 0001:00030F66   536 0001:00030F77   537 0001:00030F84   541 0001:00030F8E
   542 0001:00030F9A   543 0001:00030FAB   544 0001:00030FB8   548 0001:00030FC2
   549 0001:00030FE4   551 0001:0003100F   552 0001:00031020   553 0001:0003102D
   557 0001:00031037   558 0001:00031042   560 0001:0003106A   564 0001:0003107A
   567 0001:00031095   570 0001:0003109B   571 0001:000310A4   588 0001:000310AC
   590 0001:000310BB   591 0001:000310C1   592 0001:000310C5   595 0001:000310C9
   597 0001:000310EA   600 0001:000310FA   603 0001:00031115   606 0001:0003111B
   607 0001:00031124   626 0001:0003112C   628 0001:0003113B   630 0001:00031157
   633 0001:0003116B   634 0001:0003116F   635 0001:0003117A   636 0001:00031184
   639 0001:00031196   640 0001:000311AA   641 0001:000311BE   642 0001:000311F3
   643 0001:00031203   640 0001:00031206   649 0001:0003120D   653 0001:00031219
   654 0001:00031232   657 0001:0003123B   660 0001:00031248   635 0001:00031251
   668 0001:0003125B   671 0001:00031261   672 0001:0003126A   684 0001:00031270
   687 0001:0003127F   688 0001:00031288   708 0001:00031290   712 0001:0003129F
   713 0001:000312A5   716 0001:000312A9   717 0001:000312AF   718 0001:000312B7
   719 0001:000312C1   722 0001:000312CF   723 0001:000312E3   724 0001:000312F7
   725 0001:0003131D   726 0001:0003132D   723 0001:00031330   732 0001:00031337
   736 0001:00031343   737 0001:0003135C   740 0001:00031369   743 0001:00031378
   718 0001:00031381   745 0001:0003138B   761 0001:00031394   763 0001:000313A3
   764 0001:000313A9   767 0001:000313AD   770 0001:000313C8   773 0001:000313E3
   776 0001:000313FE   779 0001:0003140C   780 0001:00031415   792 0001:0003141C
   796 0001:0003142B   797 0001:00031434   809 0001:0003143C   813 0001:0003144B
   814 0001:00031454   822 0001:0003145C   823 0001:0003146B   826 0001:0003147E
   829 0001:0003148D   831 0001:000314F1   834 0001:00031508   837 0001:0003151F
   840 0001:00031536   843 0001:0003154D   846 0001:00031564   849 0001:0003157B
   852 0001:00031592   855 0001:000315A9   858 0001:000315C0   861 0001:000315D7
   864 0001:000315EE   867 0001:00031605   870 0001:00031619   873 0001:0003162D
   876 0001:00031641   879 0001:00031655   882 0001:00031669   885 0001:0003167D
   887 0001:00031689   898 0001:00031690   900 0001:0003169F   903 0001:000316AC
   904 0001:000316BE   908 0001:000316FB

Line numbers for cb_block(cb_block.pas) segment .text

    47 0001:000316FC    49 0001:00031708    53 0001:0003171E    57 0001:00031728
    59 0001:0003173E    60 0001:00031742    62 0001:00031750    64 0001:00031766
    78 0001:0003180C    80 0001:0003181B    84 0001:00031831    88 0001:0003183B
    90 0001:00031851    91 0001:00031855    93 0001:00031863    98 0001:00031879
   100 0001:0003188F   101 0001:00031893   103 0001:000318A1   107 0001:000318B7
   108 0001:000318BF   112 0001:000319EF

Line numbers for cd_idl(cd_idl.pas) segment .text

   250 0001:000319F0   251 0001:000319F7   252 0001:000319FE   253 0001:00031A06
   270 0001:00031A0C   271 0001:00031A15   272 0001:00031A22   283 0001:00031A28
   285 0001:00031A39   288 0001:00031A4B   289 0001:00031A54   292 0001:00031A66
   293 0001:00031A6E   294 0001:00031A78   295 0001:00031A83   296 0001:00031A8C
   304 0001:00031A94   305 0001:00031AA5   306 0001:00031AB2   307 0001:00031AC6
   308 0001:00031AD2   321 0001:00031AD8   322 0001:00031AE7   326 0001:00031AEF
   329 0001:00031B01   332 0001:00031B0F   333 0001:00031B1A   334 0001:00031B2C
   335 0001:00031B3A   338 0001:00031B44   341 0001:00031B4A   342 0001:00031B4F
   346 0001:00031B8B

Line numbers for cd_util(cd_util.pas) segment .text

    52 0001:00031B8C    53 0001:00031B98    54 0001:00031BA3    58 0001:00031BB6
    59 0001:00031BBE    60 0001:00031BDB    61 0001:00031BEE    62 0001:00031BFF
    63 0001:00031C0E    65 0001:00031C18    69 0001:00031C1A    70 0001:00031C23
    71 0001:00031C34    72 0001:00031C43    74 0001:00031C4D    77 0001:00031C4F
    81 0001:00031C57    86 0001:00031C5F    90 0001:00031C64    92 0001:00031C6A
   103 0001:00031CF8   105 0001:00031D09   108 0001:00031D21   111 0001:00031D2D
   114 0001:00031D3D   117 0001:00031D47   119 0001:00031D56   121 0001:00031D62
   124 0001:00031D6C   125 0001:00031D78   126 0001:00031D84   129 0001:00031D8E
   130 0001:00031DA0   133 0001:00031DB2   136 0001:00031DC5   142 0001:00031DCC
   155 0001:00031DD4   157 0001:00031DDD   160 0001:00031DED   163 0001:00031E03
   204 0001:00031E1D   161 0001:00031E25   206 0001:00031E2B   220 0001:00031E34
   222 0001:00031E3D   225 0001:00031E57   228 0001:00031E6D   231 0001:00031E7D
   234 0001:00031E8B   226 0001:00031E93   236 0001:00031E99   241 0001:00031EDB

Line numbers for cd_attr(cd_attr.pas) segment .text

    43 0001:00031EDC    47 0001:00031EE8    49 0001:00031EFA    52 0001:00031F06
    53 0001:00031F11    54 0001:00031F17    55 0001:00031F28    57 0001:00031F32
    59 0001:00031F3C    62 0001:00031F57    63 0001:00031F63    64 0001:00031F74
    65 0001:00031F81    67 0001:00031F8B    71 0001:00031F95    74 0001:00031FAC
    75 0001:00031FBA    76 0001:00031FCB    80 0001:00031FD5    81 0001:00031FE2
    82 0001:00031FF9    85 0001:0003200A    89 0001:0003201A    91 0001:0003202C
    94 0001:00032037    97 0001:00032041    98 0001:0003204C    99 0001:00032058
   100 0001:00032069   102 0001:00032073   106 0001:0003207D   107 0001:0003208B
   108 0001:0003209C   112 0001:000320A6   117 0001:000320B3   121 0001:000320FC
   122 0001:00032104   123 0001:00032115   124 0001:00032122   126 0001:0003212F
   130 0001:00032139   136 0001:0003214E   137 0001:0003216A   138 0001:0003217B
   139 0001:00032188   141 0001:00032195   145 0001:0003219F   151 0001:000321B4
   152 0001:000321CB   153 0001:000321DC   154 0001:000321E9   156 0001:000321F6
   160 0001:00032200   166 0001:00032215   167 0001:00032231   168 0001:00032242
   169 0001:0003224F   171 0001:0003225C   175 0001:00032266   181 0001:0003227B
   182 0001:00032295   183 0001:000322A6   184 0001:000322B3   186 0001:000322C0
   190 0001:000322CA   194 0001:000322DF   195 0001:000322F0   196 0001:000322FD
   197 0001:00032320   199 0001:0003232D   206 0001:00032337   207 0001:0003233C
   211 0001:000323C3

Line numbers for cd_type(cd_type.pas) segment .text

   175 0001:000323C4   177 0001:000323D3   180 0001:000323DF   181 0001:000323F2
   194 0001:000323F8   196 0001:00032404   199 0001:0003240E   200 0001:00032419
   201 0001:00032426   202 0001:00032435   204 0001:00032444   205 0001:00032455
   207 0001:0003245F   209 0001:00032469   219 0001:00032470   221 0001:0003247C
   224 0001:00032486   225 0001:00032499   243 0001:000324A0   245 0001:000324AC
   248 0001:000324B6   251 0001:000324BB   252 0001:000324C6   255 0001:000324D0
   258 0001:000324E1   259 0001:000324ED   262 0001:000324F9   265 0001:0003250F
   268 0001:00032517   269 0001:00032525   270 0001:00032536   275 0001:00032540
   278 0001:0003254B   279 0001:0003254E   282 0001:00032553   283 0001:00032561
   284 0001:00032572   287 0001:0003257C   298 0001:00032580   300 0001:0003258F
   303 0001:00032599   306 0001:000325A5   307 0001:000325B8   320 0001:000325BC
   322 0001:000325C8   325 0001:000325D2   326 0001:000325DD   328 0001:000325E8
   331 0001:000325F4   334 0001:00032600   338 0001:00032605   341 0001:00032616
   342 0001:00032621   346 0001:00032636   352 0001:0003264C   353 0001:00032658
   354 0001:00032669   355 0001:00032678   357 0001:00032682   360 0001:0003268C
   370 0001:000326EC   372 0001:000326F8   375 0001:00032702   376 0001:00032710
   377 0001:00032721   382 0001:0003272B   383 0001:0003273F   398 0001:00032744
   399 0001:00032753   404 0001:00032761   406 0001:00032767   407 0001:00032778
   409 0001:00032782   413 0001:0003278C   416 0001:00032796   422 0001:000327AF
   425 0001:000327B9   428 0001:000327CC   430 0001:000327D7   434 0001:000327E2
   444 0001:000327F8   447 0001:00032816   450 0001:00032829   455 0001:0003283C
   456 0001:0003284D   458 0001:00032857   461 0001:00032861   471 0001:0003286C
   472 0001:00032878   477 0001:00032886   483 0001:00032892   486 0001:0003289C
   489 0001:000328AF   490 0001:000328BD   491 0001:000328CE   497 0001:000328D8
   498 0001:000328EC   522 0001:000328F0   525 0001:000328FC   527 0001:00032907
   531 0001:00032914   534 0001:00032919   537 0001:0003292A   540 0001:00032934
   541 0001:00032942   542 0001:00032953   547 0001:0003295D   550 0001:00032971
   553 0001:00032979   593 0001:00032986   613 0001:00032992   614 0001:00032997
   618 0001:00032999   619 0001:000329AB   620 0001:000329BC   624 0001:000329C6
   625 0001:000329CB   639 0001:000329D0   641 0001:000329DC   645 0001:000329E6
   651 0001:000329F1   652 0001:000329FF   653 0001:00032A10   656 0001:00032A1A
   682 0001:00032A20   683 0001:00032A31   686 0001:00032A38   688 0001:00032A4A
   690 0001:00032A4F   693 0001:00032A5C   696 0001:00032A69   697 0001:00032A77
   698 0001:00032A88   702 0001:00032A92   705 0001:00032A98   719 0001:00032AAB
   725 0001:00032AB6   727 0001:00032ABC   728 0001:00032AC7   732 0001:00032ACD
   733 0001:00032AD1   736 0001:00032AD5   741 0001:00032AE2   742 0001:00032AE6
   747 0001:00032AEC   748 0001:00032AF2   749 0001:00032AF6   752 0001:00032AFA
   757 0001:00032B07   758 0001:00032B0B   762 0001:00032B0F   765 0001:00032B33
   766 0001:00032B3B   767 0001:00032B4C   768 0001:00032B5B   770 0001:00032B65
   772 0001:00032B67   774 0001:00032B6D   775 0001:00032B73   776 0001:00032B79
   778 0001:00032B7F   781 0001:00032B83   783 0001:00032B8F   788 0001:00032B94
   789 0001:00032B9F   794 0001:00032BAE   795 0001:00032BB4   796 0001:00032BC5
   797 0001:00032BD4   799 0001:00032BDE   806 0001:00032BEA   811 0001:00032BF8
   812 0001:00032C06   820 0001:00032C15   823 0001:00032C23   824 0001:00032C38
   825 0001:00032C44   826 0001:00032C50   827 0001:00032C5C   828 0001:00032C6C
   831 0001:00032C6F   818 0001:00032C7A   834 0001:00032C86   837 0001:00032C98
   838 0001:00032CA6   839 0001:00032CB7   844 0001:00032CC1   845 0001:00032CC9
   859 0001:00032D58   861 0001:00032D64   864 0001:00032D6E   867 0001:00032D84
   869 0001:00032D96   872 0001:00032DB4   875 0001:00032DC4   876 0001:00032DCF
   877 0001:00032DDC   878 0001:00032DEE   882 0001:00032E00   883 0001:00032E10
   887 0001:00032E15   890 0001:00032E2F   892 0001:00032E40   902 0001:00032E4C
   904 0001:00032E58   907 0001:00032E62   908 0001:00032E78   918 0001:00032E7C
   920 0001:00032E88   923 0001:00032E92   924 0001:00032EA8   934 0001:00032EAC
   936 0001:00032EB8   937 0001:00032EC2   948 0001:00032EC8   949 0001:00032ED7
   950 0001:00032F95   951 0001:00032FA7   952 0001:00032FB9   953 0001:00032FC9
   954 0001:00032FD9   955 0001:00032FEB   956 0001:00032FFD   957 0001:0003300D
   958 0001:0003301F   959 0001:00033031   960 0001:0003303E   961 0001:0003304B
   962 0001:0003305A   963 0001:00033067   964 0001:00033074   965 0001:00033081
   966 0001:0003308E   967 0001:0003309B   968 0001:000330A8   970 0001:000330B4
   983 0001:000330B8   985 0001:000330C7   987 0001:000330D2   992 0001:000330E7
   995 0001:000330F1  1000 0001:00033104  1003 0001:00033109  1006 0001:00033116
  1009 0001:00033124  1010 0001:0003312F  1013 0001:0003313F  1016 0001:00033149
  1017 0001:00033156  1023 0001:0003316B  1026 0001:00033175  1027 0001:00033180
  1032 0001:00033186  1034 0001:0003319D  1035 0001:000331AE  1037 0001:000331BD
  1041 0001:000331C7  1047 0001:000331D3  1049 0001:000331DD  1052 0001:000331F2
  1056 0001:00033202  1057 0001:00033207  1064 0001:00033213  1065 0001:0003321D
  1068 0001:00033222  1079 0001:00033294  1081 0001:000332A0  1084 0001:000332AB
  1085 0001:000332B9  1097 0001:000332C0  1098 0001:000332CF  1101 0001:000332DC
  1102 0001:000332E7  1109 0001:000332FC  1112 0001:00033317  1115 0001:00033328
  1120 0001:00033338  1123 0001:0003333D  1127 0001:0003334B  1128 0001:00033356
  1132 0001:0003335D  1136 0001:00033369  1137 0001:0003336E  1145 0001:00033384
  1146 0001:00033393  1149 0001:000333A0  1150 0001:000333B0  1177 0001:000333EB

Line numbers for ca_def(ca_def.pas) segment .text

    21 0001:00033423

Line numbers for cd_unit(cd_unit.pas) segment .text

    76 0001:00033424    78 0001:00033433    80 0001:00033441    83 0001:00033445
    85 0001:00033459    89 0001:00033462    90 0001:00033474    91 0001:00033485
    92 0001:00033494   100 0001:000334A0   101 0001:000334AB   104 0001:000334B8
   109 0001:000334C8   112 0001:000334D6   117 0001:000334DC   118 0001:000334ED
   119 0001:000334FC   121 0001:00033506   126 0001:00033510   129 0001:0003351D
   133 0001:00033529   139 0001:00033536   142 0001:00033541   144 0001:0003354C
   147 0001:00033552   150 0001:00033558   151 0001:0003355C   155 0001:00033561
   158 0001:0003356F   162 0001:00033577   164 0001:00033585   165 0001:00033592
   169 0001:000335A2   170 0001:000335B0   171 0001:000335C1   176 0001:000335CB
   179 0001:000335E5   183 0001:0003360E   187 0001:00033626   188 0001:00033631
   189 0001:0003363B   206 0001:00033698   208 0001:000336A7   210 0001:000336B5
   212 0001:000336C9   217 0001:000336D6   220 0001:000336E1   222 0001:000336E7
   225 0001:000336F1   228 0001:00033705   231 0001:00033710   234 0001:0003371B
   239 0001:0003372E   240 0001:0003373A   241 0001:0003374B   242 0001:0003375A
   244 0001:00033764   248 0001:0003376E   253 0001:00033781   255 0001:0003378D
   256 0001:0003379E   259 0001:000337AF   260 0001:000337C0   262 0001:000337CF
   264 0001:000337D9   272 0001:000337E8   273 0001:000337F3   279 0001:00033800
   280 0001:00033811   281 0001:00033820   283 0001:0003382A   288 0001:0003383F
   289 0001:00033850   290 0001:0003385F   292 0001:00033869   297 0001:00033873
   299 0001:0003387C   302 0001:0003388F   303 0001:0003389D   304 0001:000338AE
   309 0001:000338B8   313 0001:000338E1   317 0001:000338F9   318 0001:00033904
   319 0001:0003390E   344 0001:000339BC   346 0001:000339CB   348 0001:000339D9
   351 0001:000339E6   352 0001:000339F4   353 0001:00033A05   358 0001:00033A0F
   359 0001:00033A1A   363 0001:00033A32   364 0001:00033A3B   365 0001:00033A4C
   366 0001:00033A5B   368 0001:00033A65   371 0001:00033A6A   378 0001:00033A73
   379 0001:00033A7C   380 0001:00033A8D   381 0001:00033A9C   383 0001:00033AA6
   393 0001:00033AAB   394 0001:00033AB9   395 0001:00033ACA   396 0001:00033AD9
   398 0001:00033AE3   401 0001:00033AE5   407 0001:00033AEE   408 0001:00033AF7
   409 0001:00033B08   410 0001:00033B17   412 0001:00033B21   415 0001:00033B23
   421 0001:00033B2C   425 0001:00033B31   426 0001:00033B93   427 0001:00033B99
   428 0001:00033B9F   429 0001:00033BA5   430 0001:00033BAB   431 0001:00033BB1
   432 0001:00033BB7   433 0001:00033BBD   434 0001:00033BC3   435 0001:00033BC9
   436 0001:00033BCF   437 0001:00033BD5   442 0001:00033BE1   445 0001:00033BEC
   448 0001:00033BFA   451 0001:00033C08   454 0001:00033C17   457 0001:00033C1C
   458 0001:00033C2A   459 0001:00033C3B   464 0001:00033C45   469 0001:00033C54
   472 0001:00033C65   473 0001:00033C71   474 0001:00033C7D   475 0001:00033C92
   478 0001:00033CA2   480 0001:00033CB0   483 0001:00033CD7   487 0001:00033CEF
   488 0001:00033CFA   489 0001:00033D04   506 0001:00033DD0   508 0001:00033DDC
   510 0001:00033DEA   513 0001:00033DFB   514 0001:00033E09   515 0001:00033E1A
   520 0001:00033E24   523 0001:00033E38   524 0001:00033E43   525 0001:00033E4E
   526 0001:00033E5F   528 0001:00033E69   532 0001:00033E73   534 0001:00033E79
   535 0001:00033E84   538 0001:00033E8F   539 0001:00033E9C   540 0001:00033EAC
   543 0001:00033EC2   544 0001:00033EC8   545 0001:00033ED3   550 0001:00033EDE
   552 0001:00033EE4   553 0001:00033EF1   557 0001:00033F01   558 0001:00033F0F
   559 0001:00033F20   564 0001:00033F2A   567 0001:00033F50   571 0001:00033F68
   572 0001:00033F73   573 0001:00033F7D   589 0001:00033F84   591 0001:00033F8D
   592 0001:00033F9A   593 0001:00033FAB   594 0001:00033FBA   596 0001:00033FC4
   601 0001:00033FCE   604 0001:00033FDF   605 0001:00033FED   606 0001:00033FFE
   611 0001:00034008   614 0001:00034013   615 0001:0003401E   616 0001:00034024
   642 0001:00034058   644 0001:00034067   647 0001:00034097   650 0001:000340A5
   651 0001:000340B2   652 0001:000340D2   655 0001:000340E3   658 0001:000340EE
   659 0001:000340FD   660 0001:00034117   661 0001:00034126   663 0001:0003412E
   669 0001:00034133   670 0001:00034142   671 0001:0003415C   672 0001:0003416B
   674 0001:00034173   678 0001:00034178   679 0001:00034187   680 0001:000341A1
   681 0001:000341B0   683 0001:000341B8   687 0001:000341BA   688 0001:000341C9
   689 0001:000341E3   690 0001:000341F2   692 0001:000341FA   699 0001:000341FC
   701 0001:00034205   703 0001:0003421B   707 0001:0003422F   710 0001:00034241
   711 0001:0003424F   712 0001:00034260   717 0001:00034285   719 0001:0003429D
   734 0001:00034358   736 0001:00034364   738 0001:00034376   740 0001:00034384
   741 0001:00034391   742 0001:000343A8   745 0001:000343B9   748 0001:000343C4
   749 0001:000343D3   750 0001:000343E4   751 0001:000343F3   753 0001:000343FB
   757 0001:00034405   758 0001:00034414   759 0001:00034425   760 0001:00034434
   762 0001:0003443C   766 0001:00034446   767 0001:00034461   768 0001:00034472
   770 0001:0003447A   778 0001:00034484   779 0001:00034492   782 0001:000344A0
   783 0001:000344AE   784 0001:000344BF   789 0001:000344E4   791 0001:000344FC
   824 0001:0003455C   826 0001:00034568   827 0001:0003457C   828 0001:00034596
   833 0001:000345A0   836 0001:000345D6   839 0001:000345E2   840 0001:000345F2
   841 0001:000345FE   842 0001:0003460A   846 0001:00034616   847 0001:00034626
   848 0001:00034632   849 0001:0003463E   853 0001:0003464A   854 0001:00034655
   858 0001:00034675   859 0001:00034686   860 0001:00034697   865 0001:000346A1
   868 0001:000346B1   869 0001:000346C6   870 0001:000346E0   875 0001:000346EA
   876 0001:000346FB   877 0001:0003470C   882 0001:00034716   883 0001:00034721
   885 0001:00034728   886 0001:00034731   889 0001:00034739   891 0001:00034744
   893 0001:00034755   896 0001:00034760   901 0001:0003476B   902 0001:00034773
   903 0001:00034784   908 0001:0003478E   913 0001:00034799   917 0001:0003479E
   930 0001:000347A8   932 0001:000347B7   934 0001:000347BD   937 0001:000347C7
   941 0001:000347D1   942 0001:000347D7   946 0001:000347DF   949 0001:000347E7
   950 0001:000347ED   954 0001:000347F5   956 0001:000347FB   957 0001:00034809
   958 0001:0003481A   963 0001:00034824   969 0001:00034835   978 0001:0003483C
   980 0001:00034843   981 0001:00034857   982 0001:00034868   983 0001:0003487A
   988 0001:00034884   989 0001:00034892   990 0001:000348A3   993 0001:000348AD
  1012 0001:000348B0  1014 0001:000348BF  1015 0001:000348CD  1016 0001:000348DE
  1017 0001:000348ED  1019 0001:000348F7  1023 0001:000348FD  1024 0001:00034911
  1025 0001:00034922  1026 0001:00034931  1028 0001:0003493B  1032 0001:0003493F
  1034 0001:00034954  1039 0001:00034961  1041 0001:0003496C  1047 0001:00034985
  1048 0001:00034996  1049 0001:000349A5  1051 0001:000349AF  1056 0001:000349BE
  1057 0001:000349CF  1058 0001:000349DE  1060 0001:000349E8  1068 0001:000349F7
  1069 0001:000349FF  1070 0001:00034A1D  1071 0001:00034A2F  1074 0001:00034A3B
  1076 0001:00034A51  1078 0001:00034A65  1080 0001:00034A70  1081 0001:00034A7C
  1082 0001:00034A88  1084 0001:00034A9C  1086 0001:00034AA8  1089 0001:00034AB6
  1094 0001:00034ACC  1097 0001:00034AED  1100 0001:00034AFE  1104 0001:00034B12
  1105 0001:00034B1D  1108 0001:00034B28  1111 0001:00034B38  1115 0001:00034B48
  1116 0001:00034B59  1117 0001:00034B68  1119 0001:00034B72  1124 0001:00034B7C
  1126 0001:00034B85  1129 0001:00034B8C  1132 0001:00034B94  1133 0001:00034BA4
  1136 0001:00034BAC  1138 0001:00034BBA  1153 0001:00034CE4  1155 0001:00034CED
  1156 0001:00034CFB  1157 0001:00034D0C  1158 0001:00034D1B  1159 0001:00034D25
  1163 0001:00034D2F  1166 0001:00034D40  1167 0001:00034D4D  1168 0001:00034D64
  1169 0001:00034D75  1172 0001:00034D85  1173 0001:00034D93  1177 0001:00034D9D
  1178 0001:00034DAB  1179 0001:00034DBC  1184 0001:00034DC6  1185 0001:00034DD1
  1188 0001:00034DDC  1191 0001:00034DE3  1194 0001:00034DEB  1200 0001:00034DFB
  1201 0001:00034E19  1202 0001:00034E2A  1203 0001:00034E46  1208 0001:00034E50
  1209 0001:00034E5E  1210 0001:00034E6F  1215 0001:00034E79  1216 0001:00034E84
  1234 0001:00034EEC  1235 0001:00034EF8  1237 0001:00034F06  1240 0001:00034F11
  1242 0001:00034F17  1245 0001:00034F1C  1249 0001:00034F32  1251 0001:00034F4E
  1252 0001:00034F54  1253 0001:00034F77  1258 0001:00034F88  1259 0001:00034F8F
  1260 0001:00034FAA  1263 0001:00034FAF  1266 0001:00034FC0  1271 0001:00034FCE
  1272 0001:00034FDF  1274 0001:00034FE9  1278 0001:00034FF3  1279 0001:00035001
  1280 0001:00035012  1287 0001:0003501C  1288 0001:00035029  1289 0001:00035040
  1292 0001:00035051  1294 0001:0003505C  1296 0001:00035067  1297 0001:00035074
  1301 0001:00035098  1302 0001:0003509E  1303 0001:000350B7  1306 0001:000350D0
  1309 0001:000350E2  1310 0001:000350F0  1311 0001:00035101  1316 0001:0003510B
  1319 0001:00035131  1321 0001:00035149  1339 0001:00035150  1341 0001:0003515F
  1344 0001:00035174  1346 0001:00035181  1347 0001:0003518C  1352 0001:00035197
  1355 0001:000351A5  1356 0001:000351B5  1359 0001:000351BD  1363 0001:000351D0
  1367 0001:000351E3  1368 0001:000351F4  1369 0001:00035203  1371 0001:0003520D
  1376 0001:0003521C  1378 0001:0003522E  1379 0001:0003523C  1380 0001:0003524D
  1384 0001:00035257  1385 0001:00035267  1388 0001:0003526F  1392 0001:00035282
  1394 0001:0003528B  1395 0001:00035299  1396 0001:000352AA  1400 0001:000352B4
  1401 0001:000352C4  1404 0001:000352CC  1408 0001:000352DC  1410 0001:000352EE
  1411 0001:000352FC  1412 0001:0003530D  1416 0001:00035317  1417 0001:00035327
  1420 0001:0003532F  1423 0001:0003533F  1426 0001:0003534B  1427 0001:0003535C
  1429 0001:00035369  1449 0001:0003539C  1451 0001:000353A8  1453 0001:000353B6
  1456 0001:000353C7  1457 0001:000353D2  1460 0001:000353E2  1466 0001:000353FB
  1467 0001:00035408  1468 0001:0003541F  1471 0001:00035430  1477 0001:0003543B
  1480 0001:00035452  1481 0001:00035460  1487 0001:00035470  1490 0001:00035475
  1493 0001:00035493  1496 0001:000354A4  1500 0001:000354B5  1501 0001:000354C3
  1502 0001:000354D4  1507 0001:000354DE  1510 0001:00035504  1514 0001:0003551C
  1515 0001:00035527  1516 0001:00035531  1533 0001:0003553C  1535 0001:00035548
  1538 0001:0003555C  1539 0001:0003556A  1540 0001:0003557B  1542 0001:00035585
  1546 0001:0003558F  1549 0001:00035596  1550 0001:000355A6  1553 0001:000355AE
  1554 0001:000355BC  1563 0001:000355C0  1565 0001:000355C7  1566 0001:000355D4
  1567 0001:000355E5  1568 0001:000355F4  1570 0001:000355FE  1574 0001:00035601
  1575 0001:0003560A  1576 0001:0003561B  1577 0001:0003562A  1579 0001:00035634
  1583 0001:00035637  1584 0001:00035640  1585 0001:00035651  1587 0001:0003565B
  1591 0001:0003565E  1592 0001:00035665  1601 0001:000356DC  1603 0001:000356E3
  1604 0001:000356F0  1605 0001:00035701  1606 0001:00035710  1608 0001:0003571A
  1612 0001:0003571D  1613 0001:00035726  1614 0001:00035737  1615 0001:00035746
  1617 0001:00035750  1621 0001:00035753  1622 0001:0003575A  1633 0001:000357C8
  1635 0001:000357D4  1637 0001:000357E2  1640 0001:000357ED  1644 0001:00035942
  1645 0001:0003594F  1646 0001:0003595C  1647 0001:00035969  1648 0001:00035978
  1649 0001:00035987  1650 0001:00035996  1651 0001:000359A5  1652 0001:000359B4
  1653 0001:000359C1  1654 0001:000359D0  1656 0001:000359DC  1657 0001:000359E6
  1658 0001:000359F0  1659 0001:000359FA  1660 0001:00035A04  1663 0001:00035A10
  1664 0001:00035A1A  1669 0001:00035A24  1670 0001:00035A29  1675 0001:00035A36
  1676 0001:00035A47  1678 0001:00035A51  1684 0001:00035A79  1685 0001:00035A84
  1686 0001:00035A9E  1690 0001:00035AB3  1693 0001:00035ABD  1698 0001:00035AC2
  1714 0001:00035AD8  1716 0001:00035AEA  1718 0001:00035B00  1721 0001:00035B09
  1724 0001:00035B18  1727 0001:00035B20  1728 0001:00035B2B  1729 0001:00035B31
  1730 0001:00035B42  1735 0001:00035B4C  1737 0001:00035B51  1738 0001:00035B57
  1750 0001:00035B60  1752 0001:00035B6C  1753 0001:00035B74  1754 0001:00035B8B
  1757 0001:00035B9C  1760 0001:00035BA0  1763 0001:00035BB4  1765 0001:00035BBA
  1768 0001:00035BCE  1772 0001:00035BE2  1773 0001:00035BE8  1774 0001:00035BF9
  1775 0001:00035C20  1778 0001:00035C2A  1795 0001:00035C48  1796 0001:00035C57
  1797 0001:00035C6F  1798 0001:00035C7D  1799 0001:00035C96  1800 0001:00035CA0
  1811 0001:00035CA8  1812 0001:00035CB8  1813 0001:00035CCE  1814 0001:00035CDC
  1815 0001:00035D17  1816 0001:00035D21  1825 0001:00035D28  1826 0001:00035D2F
  1827 0001:00035D46  1828 0001:00035D52  1829 0001:00035D5C  1842 0001:00035D64
  1843 0001:00035D73  1844 0001:00035D8A  1845 0001:00035D96  1846 0001:00035DA8
  1847 0001:00035DB6  1848 0001:00035DC4  1849 0001:00035DD2  1850 0001:00035DDC
  1858 0001:00035DE8  1860 0001:00035DF1  1863 0001:00035E06  1866 0001:00035E1B
  1869 0001:00035E30  1872 0001:00035E45  1873 0001:00035E5A  1876 0001:00035E73
  1879 0001:00035E88  1882 0001:00035E94  1885 0001:00035EA8  1886 0001:00035EC1
  1898 0001:00035ED0  1900 0001:00035EDB  1903 0001:00035EF5  1906 0001:00035EFA
  1911 0001:00035F0B  1912 0001:00035F22  1918 0001:00035F39  1921 0001:00035F43
  1925 0001:00035F5C  1928 0001:00035F6D  1931 0001:00035F77  1934 0001:00035F84
  1935 0001:00035F8A  1938 0001:00035F94  1942 0001:00035FA1  1943 0001:00035FA7
  1944 0001:00035FB8  1949 0001:00035FC2  1952 0001:00035FCB  1954 0001:00035FD8
  1958 0001:00036033

Line numbers for cx_phase(cx_phase.pas) segment .text

    54 0001:00036034    55 0001:00036043    56 0001:0003605A    57 0001:0003606A
    58 0001:0003607E    59 0001:0003608E    60 0001:000360A6    62 0001:000360B2
    73 0001:000360B8    75 0001:000360C7    76 0001:000360DD    79 0001:000360EC
    83 0001:00036102    86 0001:00036105    89 0001:0003611B    81 0001:00036128
    91 0001:00036130   107 0001:00036138   109 0001:00036147   110 0001:0003615B
   114 0001:00036161   117 0001:00036177   120 0001:00036184   112 0001:00036187
   124 0001:00036191   125 0001:000361A7   126 0001:000361B4   130 0001:000361F3

Line numbers for cx_form(cx_form.pas) segment .text

    51 0001:000361F4    53 0001:00036203    54 0001:00036209    57 0001:00036212
    58 0001:00036223    59 0001:00036230    63 0001:00036238    64 0001:0003624B
    65 0001:00036253    69 0001:0003625F    85 0001:00036266    98 0001:0003626C
    99 0001:0003627C   101 0001:0003628F   102 0001:000362A1   104 0001:000362A9
   106 0001:000362B3   120 0001:000362BC   121 0001:000362CB   123 0001:000362DD
   124 0001:000362EF   125 0001:000362FC   127 0001:00036304   129 0001:0003630E
   143 0001:00036314   144 0001:00036323   146 0001:0003633B   147 0001:0003634D
   148 0001:0003635A   150 0001:00036362   152 0001:0003636C   164 0001:00036374
   165 0001:00036383   166 0001:00036391   168 0001:000363A3   205 0001:000363AC
   206 0001:000363BB   207 0001:000363D7   223 0001:000363E0   224 0001:000363F0
   225 0001:00036404   226 0001:00036418   227 0001:00036434   225 0001:00036437
   228 0001:0003643D   224 0001:00036440   229 0001:00036446   244 0001:0003644C
   245 0001:0003645B   246 0001:0003646F   247 0001:0003648B   245 0001:0003648E
   248 0001:00036494   263 0001:0003649C   264 0001:000364AC   265 0001:000364C0
   266 0001:000364DC   264 0001:000364DF   267 0001:000364E5   276 0001:000364EC
   279 0001:000364FB   282 0001:0003650F   283 0001:0003651F   284 0001:0003652F
   287 0001:00036543   290 0001:00036557   291 0001:00036567   294 0001:00036577
   297 0001:00036587   298 0001:00036597   299 0001:000365A7   302 0001:000365BB
   303 0001:000365D4   304 0001:000365ED   305 0001:00036606   306 0001:0003661B
   322 0001:00036634   324 0001:00036643   327 0001:00036649   329 0001:0003665C
   332 0001:0003666C   334 0001:00036678   338 0001:00036684   339 0001:0003669B
   340 0001:000366B5   343 0001:000366CF   344 0001:000366D5   374 0001:000366DC
   376 0001:000366EF   379 0001:000366FF   382 0001:0003670D   385 0001:0003671B
   388 0001:0003672B   391 0001:00036745   392 0001:00036757   401 0001:00036766
   402 0001:0003677D   406 0001:0003678C   407 0001:000367A3   413 0001:000367B2
   414 0001:000367CD   426 0001:000367E8   429 0001:000367FE   430 0001:0003681B
   432 0001:00036838   433 0001:00036846   436 0001:00036854   439 0001:0003686F
   440 0001:000368A0   442 0001:000368AA   444 0001:000368DF   447 0001:000368FD
   450 0001:0003691A   454 0001:00036937   455 0001:0003694A   496 0001:00036962
   497 0001:00036975   502 0001:0003698D   503 0001:000369A0   506 0001:000369B8
   511 0001:000369C4   518 0001:000369F6   522 0001:00036A1C   524 0001:00036A37
   527 0001:00036A4B   529 0001:00036A6C   532 0001:00036A77   535 0001:00036A8C
   538 0001:00036A9C   539 0001:00036AB3   540 0001:00036AC7   543 0001:00036AE0
   545 0001:00036AEA   546 0001:00036AF5   547 0001:00036B09   550 0001:00036B22
   551 0001:00036B28   554 0001:00036B33   559 0001:00036B4F   562 0001:00036B6F
   568 0001:00036B87   522 0001:00036B8A   571 0001:00036B93   519 0001:00036BB1
   574 0001:00036BBB   430 0001:00036BBE   575 0001:00036BC7   429 0001:00036BCA
   578 0001:00036BD3   580 0001:00036BE2   581 0001:00036BF3   583 0001:00036BFD
   587 0001:00036C07   591 0001:00036C10   592 0001:00036C19   619 0001:00036C2C
   621 0001:00036C3F   624 0001:00036C4C   627 0001:00036C5A   630 0001:00036C67
   633 0001:00036C74   636 0001:00036C8F   639 0001:00036CA5   641 0001:00036CC2
   644 0001:00036CD0   646 0001:00036CE2   649 0001:00036CF7   654 0001:00036D1E
   656 0001:00036D36   661 0001:00036D42   668 0001:00036D62   672 0001:00036D88
   674 0001:00036DA3   677 0001:00036DB7   679 0001:00036DD8   682 0001:00036DE3
   685 0001:00036DF3   686 0001:00036E0A   687 0001:00036E1E   690 0001:00036E37
   691 0001:00036E3D   694 0001:00036E48   699 0001:00036E62   702 0001:00036E82
   706 0001:00036E98   672 0001:00036E9B   709 0001:00036EA4   669 0001:00036EC2
   712 0001:00036ECC   639 0001:00036ECF   715 0001:00036ED8   717 0001:00036EE7
   718 0001:00036EF8   720 0001:00036F02   755 0001:00036F0C   758 0001:00036F15
   759 0001:00036F1E   771 0001:00036F34   773 0001:00036F43   774 0001:00036F51
   775 0001:00036F6D   777 0001:00036F89   780 0001:00036FB4   784 0001:00036FCC
   787 0001:00036FEC   789 0001:00037017   790 0001:00037028   792 0001:00037032
   799 0001:00037041   802 0001:00037061   804 0001:0003708C   805 0001:0003709D
   807 0001:000370A7   812 0001:000370B6   819 0001:000370C7   825 0001:000370E7
   839 0001:000370FB   842 0001:0003711B   844 0001:00037142   845 0001:00037153
   847 0001:0003715D   853 0001:00037169   855 0001:00037175   857 0001:00037181
   875 0001:00037190   883 0001:000371A4   886 0001:000371B7   887 0001:000371C5
   888 0001:000371CE   889 0001:000371DD   892 0001:000371E9   893 0001:0003720E
   894 0001:00037214   895 0001:00037225   896 0001:0003724E   898 0001:00037256
   902 0001:00037260   905 0001:00037269   908 0001:00037277   914 0001:00037285
   915 0001:00037296   916 0001:000372A7   918 0001:000372AF   925 0001:000372BB
   928 0001:000372CF   932 0001:000372DB   935 0001:000372E9   936 0001:000372F2
   890 0001:000372F5   941 0001:0003730B   940 0001:00037315   945 0001:00037324
   946 0001:00037333   949 0001:0003733D   952 0001:0003734E   953 0001:00037366
   958 0001:0003737B   963 0001:00037387   966 0001:000373A9   972 0001:000373B4
   976 0001:000373BD   979 0001:000373C5   980 0001:000373CE   996 0001:000373F4
  1001 0001:00037403  1004 0001:00037413  1007 0001:00037428  1010 0001:00037447
  1013 0001:00037462  1014 0001:00037468  1015 0001:0003746E  1014 0001:00037478
  1019 0001:0003747E  1022 0001:00037486  1023 0001:0003748F  1039 0001:000374B8
  1044 0001:000374C7  1047 0001:000374D7  1050 0001:000374EC  1053 0001:0003750B
  1056 0001:00037526  1057 0001:0003752C  1058 0001:00037532  1057 0001:0003753C
  1062 0001:00037542  1065 0001:0003754A  1066 0001:00037553  1081 0001:0003757C
  1083 0001:0003758B  1086 0001:00037598  1089 0001:000375A6  1092 0001:000375B3
  1095 0001:000375C0  1098 0001:000375D5  1101 0001:000375F0  1104 0001:0003760F
  1105 0001:0003762C  1106 0001:00037657  1108 0001:00037663  1110 0001:00037676
  1113 0001:00037686  1116 0001:00037696  1117 0001:0003769F  1131 0001:000376B0
  1133 0001:000376BF  1134 0001:000376C7  1135 0001:000376E4  1137 0001:000376F2
  1138 0001:00037703  1140 0001:0003770D  1144 0001:00037717  1147 0001:00037720
  1150 0001:00037730  1151 0001:00037739  1167 0001:00037740  1169 0001:00037743
  1172 0001:0003775B  1173 0001:00037777  1179 0001:0003777C  1181 0001:0003778B
  1184 0001:00037799  1189 0001:000377FD  1195 0001:0003780C  1196 0001:00037821
  1198 0001:00037827  1200 0001:0003784A  1204 0001:0003785A  1206 0001:00037884
  1209 0001:0003788D  1213 0001:00037899  1216 0001:000378C6  1220 0001:000378D1
  1221 0001:000378ED  1226 0001:000378F8  1229 0001:00037927  1233 0001:00037930
  1239 0001:0003793E  1242 0001:0003795F  1245 0001:00037968  1251 0001:00037976
  1254 0001:00037991  1257 0001:0003799A  1267 0001:000379A8  1268 0001:000379BD
  1270 0001:000379C3  1272 0001:000379E6  1275 0001:000379F6  1278 0001:000379FF
  1284 0001:00037A0D  1287 0001:00037A22  1290 0001:00037A2B  1296 0001:00037A39
  1299 0001:00037A44  1302 0001:00037A60  1304 0001:00037A79  1309 0001:00037A87
  1313 0001:00037A90  1314 0001:00037AAD  1323 0001:00037AB6  1325 0001:00037AC1
  1329 0001:00037ACF  1330 0001:00037AD8  1334 0001:00037AE1  1338 0001:00037AEC
  1341 0001:00037B0A  1344 0001:00037B15  1348 0001:00037B21  1351 0001:00037B2A
  1358 0001:00037B66  1361 0001:00037B73  1368 0001:00037B86  1371 0001:00037BA7
  1374 0001:00037BB0  1377 0001:00037BB9  1379 0001:00037BDF  1382 0001:00037BEC
  1384 0001:00037BFC  1387 0001:00037C0C  1389 0001:00037C1C  1403 0001:00037C2A
  1406 0001:00037C33  1412 0001:00037C3E  1415 0001:00037C47  1420 0001:00037C52
  1421 0001:00037C63  1423 0001:00037C6D  1425 0001:00037C77  1444 0001:00037C80
  1446 0001:00037C83  1454 0001:00037CA9  1455 0001:00037CB7  1456 0001:00037CC8
  1458 0001:00037CD5  1462 0001:00037CDF  1463 0001:00037D0F  1471 0001:00037D18
  1473 0001:00037D1B  1474 0001:00037D45  1475 0001:00037D56  1477 0001:00037D63
  1481 0001:00037D6D  1485 0001:00037D91  1487 0001:00037D9F  1488 0001:00037DB0
  1490 0001:00037DBD  1494 0001:00037DC7  1495 0001:00037DF5  1499 0001:00037DFC
  1501 0001:00037E10  1503 0001:00037E1B  1506 0001:00037E2E  1509 0001:00037E40
  1512 0001:00037E5A  1516 0001:00037E7A  1524 0001:00037E89  1529 0001:00037E94
  1532 0001:00037EA9  1534 0001:00037EC3  1537 0001:00037ED5  1543 0001:00037EEF
  1545 0001:00037F2A  1549 0001:00037F36  1551 0001:00037F54  1554 0001:00037F80
  1557 0001:00037F8C  1561 0001:00037F98  1562 0001:00037FA9  1563 0001:00037FF9
  1565 0001:00038003  1571 0001:00038012  1575 0001:00038026  1581 0001:0003802F
  1582 0001:00038040  1583 0001:0003804F  1585 0001:00038059  1592 0001:00038065
  1593 0001:00038076  1594 0001:00038085  1596 0001:0003808F  1599 0001:0003809B
  1604 0001:000380A7  1619 0001:000380C4  1620 0001:000380CA  1621 0001:000380EC
  1625 0001:000380EE  1628 0001:00038103  1629 0001:00038111  1640 0001:00038190
  1641 0001:0003819F  1644 0001:000381B5  1646 0001:000381EA  1649 0001:00038201
  1652 0001:00038218  1655 0001:0003822F  1658 0001:00038246  1661 0001:0003825D
  1663 0001:00038274  1707 0001:00038280  1710 0001:00038289  1711 0001:00038292
  1726 0001:00038298  1728 0001:000382A7  1731 0001:000382B7  1732 0001:000382CF
  1733 0001:000382E0  1734 0001:000382F0  1736 0001:000382F8  1740 0001:00038302
  1743 0001:00038316  1746 0001:00038324  1747 0001:00038335  1748 0001:00038344
  1751 0001:0003834D  1754 0001:0003835D  1757 0001:00038377  1758 0001:0003838C
  1761 0001:000383A1  1762 0001:000383BC  1765 0001:000383D7  1768 0001:000383F6
  1769 0001:00038405  1773 0001:00038424  1775 0001:00038444  1776 0001:00038455
  1778 0001:0003845F  1782 0001:00038469  1785 0001:00038471  1790 0001:00038485
  1792 0001:00038498  1799 0001:000384A6  1802 0001:000384CF  1805 0001:000384EF
  1808 0001:00038527  1811 0001:00038532  1815 0001:0003853E  1816 0001:00038547
  1833 0001:000385B4  1847 0001:000385C3  1850 0001:000385D3  1851 0001:000385E1
  1854 0001:000385EC  1855 0001:000385F2  1856 0001:000385F8  1857 0001:0003860B
  1859 0001:00038614  1860 0001:00038625  1863 0001:00038640  1864 0001:00038655
  1868 0001:00038664  1855 0001:0003866D  1872 0001:00038673  1875 0001:00038683
  1878 0001:0003868D  1880 0001:000386A2  1883 0001:000386E1  1887 0001:000386F6
  1889 0001:00038706  1892 0001:00038719  1894 0001:0003872C  1899 0001:0003873D
  1903 0001:00038750  1907 0001:00038763  1910 0001:00038778  1916 0001:0003878B
  1917 0001:0003879C  1919 0001:000387A4  1926 0001:000387B0  1927 0001:000387C1
  1929 0001:000387C9  1934 0001:000387D5  1935 0001:000387E6  1937 0001:000387EE
  1940 0001:000387FA  1944 0001:00038808  1945 0001:00038819  1947 0001:00038821
  1949 0001:0003882B  1966 0001:00038838  1970 0001:00038848  1973 0001:00038858
  1976 0001:00038866  1979 0001:00038874  1982 0001:00038884  1985 0001:0003889E
  1986 0001:000388B9  1989 0001:000388D4  1990 0001:000388F1  1992 0001:0003890E
  1993 0001:0003891C  1996 0001:0003892A  2000 0001:00038968  2003 0001:0003897B
  2005 0001:00038991  1990 0001:00038994  2006 0001:0003899D  1989 0001:000389A0
  2027 0001:000389A9  2030 0001:000389B2  2031 0001:000389BB  2046 0001:000389C8
  2048 0001:000389D7  2051 0001:000389E7  2054 0001:000389F5  2057 0001:00038A03
  2060 0001:00038A13  2063 0001:00038A2D  2066 0001:00038A42  2069 0001:00038A5D
  2075 0001:00038A78  2085 0001:00038A97  2088 0001:00038AB4  2091 0001:00038AC6
  2092 0001:00038AE3  2093 0001:00038AF4  2095 0001:00038AFC  2099 0001:00038B06
  2100 0001:00038B14  2101 0001:00038B1F  2104 0001:00038B28  2106 0001:00038B38
  2109 0001:00038B5C  2111 0001:00038B68  2115 0001:00038B74  2118 0001:00038B82
  2119 0001:00038B8B  2139 0001:00038BA0  2140 0001:00038BB0  2143 0001:00038BB8
  2146 0001:00038BC5  2149 0001:00038BD3  2152 0001:00038BE0  2155 0001:00038BED
  2158 0001:00038C02  2160 0001:00038C1D  2164 0001:00038C3C  2167 0001:00038C5B
  2174 0001:00038C76  2183 0001:00038C7C  2184 0001:00038C8B  2185 0001:00038C91
  2191 0001:00038C97  2192 0001:00038CA6  2193 0001:00038CAC  2198 0001:00038CB2
  2199 0001:00038CD1  2200 0001:00038CE0  2201 0001:00038CE6  2203 0001:00038CEC
  2207 0001:00038CF8  2210 0001:00038CFC  2241 0001:00038D02  2244 0001:00038D1C
  2250 0001:00038D20  2253 0001:00038D24  2260 0001:00038D2A  2263 0001:00038D44
  2269 0001:00038D48  2272 0001:00038D4C  2275 0001:00038D52  2279 0001:00038D5E
  2280 0001:00038D7A  2281 0001:00038D8D  2282 0001:00038DA0  2283 0001:00038DB0
  2284 0001:00038DBC  2285 0001:00038DC8  2286 0001:00038DD4  2287 0001:00038DE0
  2290 0001:00038DFA  2293 0001:00038E03  2294 0001:00038E0C  2344 0001:00038E24
  2345 0001:00038E33  2346 0001:00038E6E  2347 0001:00038E74  2348 0001:00038E82
  2349 0001:00038E8E  2350 0001:00038E9C  2352 0001:00038EA8  2366 0001:00038EB0
  2367 0001:00038EBF  2368 0001:00038F06  2381 0001:00038F0C  2382 0001:00038F19
  2383 0001:00038F2F  2384 0001:00038F35  2385 0001:00038F43  2386 0001:00038F4F
  2387 0001:00038F5D  2389 0001:00038F69  2404 0001:00038F70  2405 0001:00038F7F
  2406 0001:00038FBE  2407 0001:00038FC4  2409 0001:00038FD3  2424 0001:00038FDC
  2425 0001:00038FEB  2426 0001:00039028  2442 0001:00039030  2443 0001:0003903F
  2444 0001:0003907A  2445 0001:00039080  2447 0001:00039091  2463 0001:00039098
  2464 0001:000390A5  2465 0001:000390F9  2466 0001:000390FF  2467 0001:0003910D
  2468 0001:0003911B  2469 0001:00039129  2471 0001:00039135  2486 0001:0003913C
  2487 0001:00039149  2488 0001:0003918A  2489 0001:00039190  2490 0001:0003919E
  2491 0001:000391AC  2492 0001:000391BA  2494 0001:000391C6  2508 0001:000391CC
  2509 0001:000391D9  2512 0001:00039226  2513 0001:0003922C  2514 0001:0003923A
  2515 0001:00039246  2516 0001:00039254  2518 0001:00039260  2531 0001:00039268
  2532 0001:00039275  2533 0001:000392AB  2534 0001:000392B1  2535 0001:000392BF
  2536 0001:000392CB  2537 0001:000392D9  2539 0001:000392E5  2548 0001:000392EC
  2550 0001:000392FC  2553 0001:0003930C  2554 0001:00039325  2555 0001:0003932E
  2556 0001:0003933E  2564 0001:00039343  2567 0001:00039353  2569 0001:00039368
  2573 0001:00039373  2579 0001:00039382  2581 0001:00039403  2584 0001:0003941F
  2588 0001:00039458  2594 0001:00039491  2599 0001:000394E4  2602 0001:00039500
  2605 0001:0003951D  2610 0001:00039573  2618 0001:000395DC  2628 0001:000396C8
  2636 0001:00039777  2639 0001:00039793  2642 0001:000397AF  2645 0001:000397CE
  2649 0001:00039816  2652 0001:00039832  2655 0001:0003984E  2660 0001:000398B1
  2664 0001:000398E7  2668 0001:0003991D  2670 0001:00039936  2672 0001:00039942
  2673 0001:00039948  2674 0001:00039959  2676 0001:0003996D  2678 0001:00039977
  2682 0001:00039981  2684 0001:000399DE  2687 0001:000399FC  2692 0001:00039A28
  2693 0001:00039A3A  2697 0001:00039A52  2700 0001:00039A7E  2703 0001:00039AAA
  2706 0001:00039AC1  2709 0001:00039AE4  2714 0001:00039AFB  2716 0001:00039B25
  2718 0001:00039B64  2726 0001:00039B8F  2727 0001:00039BA1  2733 0001:00039BB9
  2734 0001:00039BD6  2737 0001:00039BFC  2738 0001:00039C20  2744 0001:00039C4F
  2745 0001:00039C61  2749 0001:00039C79  2750 0001:00039C90  2751 0001:00039CA7
  2752 0001:00039CBE  2755 0001:00039CD5  2757 0001:00039CEF  2762 0001:00039CFB
  2763 0001:00039D04  2781 0001:00039D48  2782 0001:00039D57  2785 0001:00039D5B
  2788 0001:00039D6B  2789 0001:00039D71  2790 0001:00039D7F  2794 0001:00039D97
  2799 0001:00039DA1  2802 0001:00039DB6  2805 0001:00039DD1  2808 0001:00039DF0
  2811 0001:00039E04  2814 0001:00039E17  2817 0001:00039E23  2823 0001:00039E2F
  2826 0001:00039E3C  2830 0001:00039E46  2831 0001:00039E4C  2832 0001:00039E56
  2835 0001:00039E69  2838 0001:00039E77  2841 0001:00039E8B  2844 0001:00039E99
  2852 0001:00039EC0  2855 0001:00039EDE  2831 0001:00039EE7  2859 0001:00039EF1
  2862 0001:00039F01  2865 0001:00039F07  2868 0001:00039F10  2869 0001:00039F19
  2883 0001:00039F30  2884 0001:00039F3F  2889 0001:00039F4E  2890 0001:00039F61
  2894 0001:00039F73  2898 0001:00039F8E  2909 0001:00039FB7  2910 0001:00039FC8
  2912 0001:00039FD2  2919 0001:00039FDE  2920 0001:00039FE6  2923 0001:0003A003
  2928 0001:0003A029  2929 0001:0003A03A  2931 0001:0003A044  2936 0001:0003A04E
  2939 0001:0003A057  2940 0001:0003A060  2955 0001:0003A06C  2957 0001:0003A07B
  2958 0001:0003A083  2959 0001:0003A0AC  2960 0001:0003A0B2  2961 0001:0003A0C3
  2962 0001:0003A0CD  2966 0001:0003A0D7  2969 0001:0003A0E4  2972 0001:0003A0ED
  2975 0001:0003A0FB  2976 0001:0003A103  2984 0001:0003A108  2985 0001:0003A117
  2988 0001:0003A12A  2991 0001:0003A139  2993 0001:0003A191  2996 0001:0003A1A4
  2999 0001:0003A1B7  3002 0001:0003A1CA  3005 0001:0003A1DD  3008 0001:0003A1F0
  3011 0001:0003A203  3014 0001:0003A213  3017 0001:0003A223  3020 0001:0003A233
  3023 0001:0003A243  3026 0001:0003A253  3029 0001:0003A263  3032 0001:0003A273
  3035 0001:0003A283  3037 0001:0003A28F  3046 0001:0003A294  3047 0001:0003A299
  3051 0001:0003A2D3

Line numbers for cx_expr(cx_expr.pas) segment .text

   129 0001:0003A2D4   130 0001:0003A2E3   132 0001:0003A2EA   134 0001:0003A2F8
   138 0001:0003A30E   142 0001:0003A31C   144 0001:0003A332   145 0001:0003A336
   146 0001:0003A35B   147 0001:0003A36B   148 0001:0003A37B   149 0001:0003A38B
   150 0001:0003A39B   151 0001:0003A3AB   154 0001:0003A3B7   158 0001:0003A3CD
   162 0001:0003A3F9   163 0001:0003A406   166 0001:0003A410   183 0001:0003A4B4
   185 0001:0003A4B8   191 0001:0003A4FD   199 0001:0003A500   201 0001:0003A504
   207 0001:0003A549   215 0001:0003A54C   217 0001:0003A550   223 0001:0003A595
   227 0001:0003A598   229 0001:0003A5A7   232 0001:0003A5BD   234 0001:0003A5CB
   236 0001:0003A5D9   240 0001:0003A5EF   241 0001:0003A600   245 0001:0003A606
   246 0001:0003A612   248 0001:0003A61C   249 0001:0003A620   251 0001:0003A62E
   256 0001:0003A644   258 0001:0003A65A   259 0001:0003A65E   261 0001:0003A670
   266 0001:0003A686   268 0001:0003A69C   269 0001:0003A6A0   271 0001:0003A6AE
   275 0001:0003A6C4   276 0001:0003A6D2   277 0001:0003A6D8   282 0001:0003A6E5
   284 0001:0003A6FB   285 0001:0003A6FF   287 0001:0003A715   292 0001:0003A73A
   293 0001:0003A750   295 0001:0003A766   299 0001:0003A770   300 0001:0003A77E
   301 0001:0003A791   303 0001:0003A797   305 0001:0003A7A3   314 0001:0003A82D
   315 0001:0003A83C   316 0001:0003A84D   318 0001:0003A857   324 0001:0003A866
   330 0001:0003A890   331 0001:0003A8A1   333 0001:0003A8AB   339 0001:0003A8BA
   347 0001:0003A8FB   348 0001:0003A90C   350 0001:0003A916   356 0001:0003A925
   362 0001:0003A959   363 0001:0003A96A   365 0001:0003A974   371 0001:0003A983
   377 0001:0003A9AE   378 0001:0003A9BF   380 0001:0003A9C9   386 0001:0003A9D8
   392 0001:0003A9F1   393 0001:0003AA02   395 0001:0003AA0C   401 0001:0003AA1B
   402 0001:0003AA2A   403 0001:0003AA3B   405 0001:0003AA45   411 0001:0003AA54
   412 0001:0003AA72   413 0001:0003AA83   415 0001:0003AA8D   421 0001:0003AA9C
   422 0001:0003AAAB   423 0001:0003AABC   425 0001:0003AAC6   431 0001:0003AAD5
   437 0001:0003AAF5   438 0001:0003AB06   440 0001:0003AB10   446 0001:0003AB1F
   452 0001:0003AB45   453 0001:0003AB56   455 0001:0003AB60   461 0001:0003AB6F
   467 0001:0003AB9A   468 0001:0003ABAB   470 0001:0003ABB5   476 0001:0003ABC4
   482 0001:0003ABEF   483 0001:0003AC00   485 0001:0003AC0A   491 0001:0003AC19
   497 0001:0003AC44   498 0001:0003AC55   500 0001:0003AC5F   506 0001:0003AC6E
   507 0001:0003AC7C   508 0001:0003AC8D   510 0001:0003AC97   516 0001:0003ACA6
   517 0001:0003ACCB   518 0001:0003ACDC   520 0001:0003ACE6   526 0001:0003ACF5
   527 0001:0003AD1A   528 0001:0003AD2B   530 0001:0003AD35   536 0001:0003AD44
   537 0001:0003AD69   538 0001:0003AD7A   540 0001:0003AD84   546 0001:0003AD93
   547 0001:0003ADB8   548 0001:0003ADC9   550 0001:0003ADD3   556 0001:0003ADE2
   563 0001:0003AE04   564 0001:0003AE15   566 0001:0003AE1F   572 0001:0003AE2E
   581 0001:0003AE75   582 0001:0003AE86   584 0001:0003AE90   590 0001:0003AE9F
   598 0001:0003AECE   599 0001:0003AEDF   601 0001:0003AEE9   607 0001:0003AEF8
   615 0001:0003AF1E   616 0001:0003AF2F   618 0001:0003AF39   624 0001:0003AF48
   632 0001:0003AF6E   633 0001:0003AF7F   635 0001:0003AF89   641 0001:0003AF98
   642 0001:0003AFA6   643 0001:0003AFB7   644 0001:0003AFC1   650 0001:0003AFD0
   651 0001:0003AFDE   652 0001:0003AFEF   653 0001:0003AFF9   660 0001:0003B005
   668 0001:0003B031   669 0001:0003B042   671 0001:0003B04C   675 0001:0003B058
   678 0001:0003B064   686 0001:0003B264   687 0001:0003B273   690 0001:0003B280
   691 0001:0003B28F   695 0001:0003B2B3   698 0001:0003B2B9   700 0001:0003B2D3
   701 0001:0003B2E1   709 0001:0003B2E8   711 0001:0003B2F4   712 0001:0003B2FC
   714 0001:0003B30D   718 0001:0003B317   719 0001:0003B325   727 0001:0003B32C
   729 0001:0003B338   730 0001:0003B346   738 0001:0003B34C   740 0001:0003B358
   741 0001:0003B366   749 0001:0003B36C   751 0001:0003B378   752 0001:0003B386
   765 0001:0003B38C   767 0001:0003B39B   768 0001:0003B3A4   769 0001:0003B3C0
   773 0001:0003B3DE   774 0001:0003B3E6   775 0001:0003B3FF   776 0001:0003B40D
   777 0001:0003B41B   780 0001:0003B42B   781 0001:0003B437   789 0001:0003B43C
   791 0001:0003B44B   792 0001:0003B45C   800 0001:0003B460   802 0001:0003B46F
   803 0001:0003B47A   807 0001:0003B48E   808 0001:0003B498   811 0001:0003B4AA
   812 0001:0003B4B6   822 0001:0003B4BC   823 0001:0003B4C8   824 0001:0003B4D8
   825 0001:0003B4EB   829 0001:0003B527

Line numbers for cd_eval(cd_eval.pas) segment .text

    99 0001:0003B578   101 0001:0003B584   106 0001:0003B594   107 0001:0003B5A4
   110 0001:0003B5C4   114 0001:0003B5CA   115 0001:0003B5FC   120 0001:0003B610
   127 0001:0003B639   128 0001:0003B653   131 0001:0003B682   144 0001:0003B688
   145 0001:0003B694   150 0001:0003B6A9   153 0001:0003B6BE   154 0001:0003B6CA
   155 0001:0003B6D8   157 0001:0003B6E5   158 0001:0003B6FC   162 0001:0003B6FE
   165 0001:0003B70F   166 0001:0003B723   167 0001:0003B731   169 0001:0003B73E
   170 0001:0003B755   175 0001:0003B757   176 0001:0003B76E   189 0001:0003B774
   190 0001:0003B780   195 0001:0003B791   198 0001:0003B7A6   199 0001:0003B7B8
   200 0001:0003B7C6   202 0001:0003B7D3   203 0001:0003B7EA   207 0001:0003B7EC
   211 0001:0003B7FF   212 0001:0003B816   225 0001:0003B81C   226 0001:0003B825
   227 0001:0003B831   228 0001:0003B83A   230 0001:0003B840   231 0001:0003B85E
   232 0001:0003B86C   233 0001:0003B87C   237 0001:0003B88E   228 0001:0003B897
   240 0001:0003B89D   248 0001:0003B8A4   249 0001:0003B8B0   250 0001:0003B8CA
   251 0001:0003B8D7   264 0001:0003B8DC   266 0001:0003B8EE   267 0001:0003B8F9
   270 0001:0003B8FF   271 0001:0003B910   272 0001:0003B92E   274 0001:0003B93B
   278 0001:0003B947   279 0001:0003B950   280 0001:0003B958   281 0001:0003B963
   286 0001:0003B965   287 0001:0003B977   289 0001:0003B98B   291 0001:0003B993
   292 0001:0003B99E   306 0001:0003B9A4   308 0001:0003B9B3   310 0001:0003B9BB
   312 0001:0003B9C4   314 0001:0003B9CC   315 0001:0003B9ED   326 0001:0003B9F4
   328 0001:0003BA03   330 0001:0003BA0B   332 0001:0003BA14   334 0001:0003BA1C
   335 0001:0003BA31   351 0001:0003BA38   353 0001:0003BA47   355 0001:0003BA55
   364 0001:0003BA6B   365 0001:0003BA80   368 0001:0003BA91   372 0001:0003BA9B
   373 0001:0003BABC   376 0001:0003BACD   380 0001:0003BAD7   382 0001:0003BAF2
   404 0001:0003BAF8   406 0001:0003BB07   408 0001:0003BB19   409 0001:0003BB32
   412 0001:0003BB48   416 0001:0003BB5C   421 0001:0003BB65   422 0001:0003BB73
   425 0001:0003BBAF   426 0001:0003BBB7   429 0001:0003BBBE   430 0001:0003BBC6
   441 0001:0003BBD0   455 0001:0003BBD6   468 0001:0003BBDC   470 0001:0003BBEB
   473 0001:0003BBF3   474 0001:0003BC0E   477 0001:0003BC20   478 0001:0003BC31
   490 0001:0003BC38   492 0001:0003BC47   495 0001:0003BC4F   497 0001:0003BC61
   498 0001:0003BC79   501 0001:0003BC8B   504 0001:0003BC9C   509 0001:0003BCA5
   513 0001:0003BCBC   514 0001:0003BCC2   529 0001:0003BCC8   531 0001:0003BCD7
   533 0001:0003BCDF   534 0001:0003BCF7   537 0001:0003BD09   540 0001:0003BD1D
   544 0001:0003BD32   545 0001:0003BD40   547 0001:0003BD74   549 0001:0003BD86
   564 0001:0003BD8C   566 0001:0003BD99   569 0001:0003BDA9   570 0001:0003BDC4
   573 0001:0003BDDE   574 0001:0003BDEF   577 0001:0003BDFA   580 0001:0003BE29
   583 0001:0003BE34   584 0001:0003BE45   600 0001:0003BE4C   602 0001:0003BE59
   605 0001:0003BE69   606 0001:0003BE7A   611 0001:0003BE92   612 0001:0003BEA2
   614 0001:0003BEB8   615 0001:0003BEE1   613 0001:0003BEE9   619 0001:0003BEEF
   620 0001:0003BF09   623 0001:0003BF1E   626 0001:0003BF44   627 0001:0003BF4F
   642 0001:0003BF58   644 0001:0003BF65   646 0001:0003BF75   650 0001:0003BF8D
   651 0001:0003BFA8   654 0001:0003BFC6   657 0001:0003BFDD   658 0001:0003BFF8
   659 0001:0003C009   660 0001:0003C018   661 0001:0003C025   668 0001:0003C034
   669 0001:0003C04F   672 0001:0003C06D   675 0001:0003C084   676 0001:0003C09B
   677 0001:0003C0AC   678 0001:0003C0BB   679 0001:0003C0C8   683 0001:0003C0D4
   687 0001:0003C0E0   690 0001:0003C102   691 0001:0003C10D   704 0001:0003C15C
   706 0001:0003C168   709 0001:0003C174   710 0001:0003C185   716 0001:0003C197
   732 0001:0003C19C   734 0001:0003C1A9   737 0001:0003C1B9   738 0001:0003C1DE
   748 0001:0003C1FC   753 0001:0003C20C   754 0001:0003C231   757 0001:0003C24F
   763 0001:0003C296   764 0001:0003C2AB   765 0001:0003C2B5   766 0001:0003C2BF
   767 0001:0003C2F1   768 0001:0003C2F9   771 0001:0003C309   774 0001:0003C319
   779 0001:0003C323   780 0001:0003C32E   798 0001:0003C348   800 0001:0003C358
   803 0001:0003C368   804 0001:0003C38D   805 0001:0003C3AB   815 0001:0003C3BB
   820 0001:0003C3CB   821 0001:0003C3E6   824 0001:0003C404   827 0001:0003C419
   828 0001:0003C440   829 0001:0003C451   830 0001:0003C48E   831 0001:0003C49B
   837 0001:0003C4A7   841 0001:0003C4AF   844 0001:0003C4D9   847 0001:0003C4E4
   848 0001:0003C4F0   849 0001:0003C500   852 0001:0003C514   855 0001:0003C51E
   873 0001:0003C558   875 0001:0003C565   878 0001:0003C575   879 0001:0003C586
   882 0001:0003C59E   883 0001:0003C5B3   884 0001:0003C5BF   885 0001:0003C5C8
   887 0001:0003C5D2   891 0001:0003C5E8   894 0001:0003C5FF   899 0001:0003C610
   900 0001:0003C625   903 0001:0003C630   907 0001:0003C656   911 0001:0003C679
   917 0001:0003C683   885 0001:0003C68C   921 0001:0003C696   924 0001:0003C6A1
   925 0001:0003C6AB   940 0001:0003C6B0   942 0001:0003C6BD   945 0001:0003C6CD
   946 0001:0003C6F2   947 0001:0003C70C   950 0001:0003C71C   951 0001:0003C731
   952 0001:0003C742   955 0001:0003C750   958 0001:0003C763   961 0001:0003C76E
   962 0001:0003C778   978 0001:0003C788   980 0001:0003C795   983 0001:0003C7A5
   984 0001:0003C7CA   985 0001:0003C7E8   988 0001:0003C7F8   989 0001:0003C809
   990 0001:0003C81E   994 0001:0003C834   999 0001:0003C84E  1000 0001:0003C865
  1001 0001:0003C871  1002 0001:0003C87D  1003 0001:0003C889  1007 0001:0003C893
  1009 0001:0003C8A3  1010 0001:0003C8AF  1011 0001:0003C8C0  1012 0001:0003C8CF
  1014 0001:0003C8DF  1018 0001:0003C8E9  1019 0001:0003C8F5  1020 0001:0003C906
  1021 0001:0003C915  1023 0001:0003C925  1030 0001:0003C931  1033 0001:0003C953
  1037 0001:0003C95D  1038 0001:0003C969  1039 0001:0003C987  1040 0001:0003C998
  1042 0001:0003C9A8  1047 0001:0003C9B2  1048 0001:0003C9CA  1049 0001:0003C9DB
  1051 0001:0003C9EA  1055 0001:0003C9F4  1056 0001:0003CA00  1060 0001:0003CA23
  1063 0001:0003CA3C  1066 0001:0003CA47  1067 0001:0003CA51  1081 0001:0003CB28
  1083 0001:0003CB35  1086 0001:0003CB41  1089 0001:0003CB53  1092 0001:0003CB5E
  1093 0001:0003CB68  1133 0001:0003CB70  1134 0001:0003CB7F  1136 0001:0003CB8F
  1141 0001:0003CB9B  1142 0001:0003CBAC  1143 0001:0003CBB6  1144 0001:0003CBC0
  1161 0001:0003CBCC  1162 0001:0003CBED  1165 0001:0003CC09  1166 0001:0003CC1A
  1167 0001:0003CC33  1170 0001:0003CC4F  1173 0001:0003CC64  1174 0001:0003CC70
  1175 0001:0003CC7E  1181 0001:0003CC8B  1182 0001:0003CC97  1183 0001:0003CCBA
  1187 0001:0003CCD4  1189 0001:0003CCE0  1203 0001:0003CCF0  1204 0001:0003CCFF
  1291 0001:0003CD09  1314 0001:0003CD10  1316 0001:0003CD22  1317 0001:0003CD44
  1320 0001:0003CD5D  1323 0001:0003CD6B  1326 0001:0003CD79  1327 0001:0003CD89
  1328 0001:0003CD9A  1329 0001:0003CDA9  1331 0001:0003CDB4  1335 0001:0003CDBE
  1336 0001:0003CDDE  1337 0001:0003CDEF  1338 0001:0003CDFB  1339 0001:0003CE0C
  1340 0001:0003CE1B  1341 0001:0003CE26  1345 0001:0003CE30  1348 0001:0003CE59
  1349 0001:0003CE77  1350 0001:0003CE95  1351 0001:0003CEA7  1353 0001:0003CEC5
  1357 0001:0003CEE8  1358 0001:0003CEFA  1359 0001:0003CF0C  1360 0001:0003CF1E
  1361 0001:0003CF3C  1362 0001:0003CF5A  1363 0001:0003CF78  1364 0001:0003CF8A
  1365 0001:0003CF9C  1366 0001:0003CFB5  1368 0001:0003CFD0  1369 0001:0003CFE2
  1370 0001:0003CFF4  1371 0001:0003D006  1372 0001:0003D018  1373 0001:0003D02A
  1374 0001:0003D03C  1375 0001:0003D05A  1376 0001:0003D06C  1377 0001:0003D087
  1380 0001:0003D0A2  1386 0001:0003D0B8  1387 0001:0003D0C4  1388 0001:0003D0D5
  1389 0001:0003D0E4  1391 0001:0003D0EF  1395 0001:0003D0F9  1396 0001:0003D10B
  1397 0001:0003D11D  1399 0001:0003D12F  1403 0001:0003D170  1404 0001:0003D18E
  1407 0001:0003D1A0  1408 0001:0003D1BD  1411 0001:0003D1D9  1418 0001:0003D202
  1421 0001:0003D20C  1430 0001:0003D227  1433 0001:0003D23C  1436 0001:0003D254
  1439 0001:0003D25E  1440 0001:0003D281  1443 0001:0003D29D  1446 0001:0003D2A8
  1449 0001:0003D2B8  1452 0001:0003D2FA  1459 0001:0003D30A  1462 0001:0003D314
  1465 0001:0003D32F  1466 0001:0003D34A  1469 0001:0003D368  1472 0001:0003D37D
  1473 0001:0003D3BB  1474 0001:0003D3CC  1475 0001:0003D3D9  1479 0001:0003D3E3
  1484 0001:0003D417  1487 0001:0003D425  1490 0001:0003D452  1496 0001:0003D45F
  1497 0001:0003D470  1498 0001:0003D47F  1500 0001:0003D48A  1504 0001:0003D494
  1510 0001:0003D4A3  1513 0001:0003D4AD  1515 0001:0003D4CB  1519 0001:0003D4E0
  1520 0001:0003D4FF  1521 0001:0003D518  1526 0001:0003D539  1531 0001:0003D551
  1532 0001:0003D55C  1537 0001:0003D576  1538 0001:0003D587  1540 0001:0003D592
  1546 0001:0003D59E  1547 0001:0003D5AF  1549 0001:0003D5BA  1560 0001:0003D5C6
  1562 0001:0003D5D2  1576 0001:0003D724  1577 0001:0003D734  1581 0001:0003D744
  1583 0001:0003D757  1596 0001:0003D763  1601 0001:0003D773  1605 0001:0003D78F
  1606 0001:0003D79E  1607 0001:0003D7AD  1615 0001:0003D7BC  1616 0001:0003D7CF
  1617 0001:0003D7E0  1618 0001:0003D7EC  1620 0001:0003D7FB  1622 0001:0003D80B
  1629 0001:0003D817  1630 0001:0003D826  1631 0001:0003D837  1632 0001:0003D846
  1634 0001:0003D856  1643 0001:0003D860  1644 0001:0003D879  1645 0001:0003D895
  1646 0001:0003D8AE  1647 0001:0003D8CA  1648 0001:0003D8E3  1651 0001:0003D8FF
  1654 0001:0003D911  1655 0001:0003D930  1656 0001:0003D949  1661 0001:0003D963
  1665 0001:0003D973  1667 0001:0003D97F  1678 0001:0003DA34  1679 0001:0003DA43
  1682 0001:0003DA53  1687 0001:0003DA5F  1688 0001:0003DA87  1692 0001:0003DAA8
  1697 0001:0003DAB4  1702 0001:0003DAC4  1703 0001:0003DAEC  1706 0001:0003DB08
  1707 0001:0003DB30  1713 0001:0003DB4A  1714 0001:0003DB66  1717 0001:0003DB7E
  1721 0001:0003DB9A  1723 0001:0003DBA6  1734 0001:0003DBB8  1735 0001:0003DBC7
  1737 0001:0003DBD7  1742 0001:0003DBE3  1747 0001:0003DBF4  1748 0001:0003DC0D
  1751 0001:0003DC25  1756 0001:0003DC42  1760 0001:0003DC58  1763 0001:0003DC61
  1765 0001:0003DC6D  1778 0001:0003DC74  1780 0001:0003DC80  1781 0001:0003DC91
  1784 0001:0003DCA3  1785 0001:0003DCB7  1788 0001:0003DCCF  1789 0001:0003DCD7
  1800 0001:0003DCDC  1801 0001:0003DCEB  1804 0001:0003DCFD  1805 0001:0003DD11
  1810 0001:0003DD1D  1813 0001:0003DD34  1814 0001:0003DD5A  1820 0001:0003DD74
  1821 0001:0003DD7D  1825 0001:0003DD97  1828 0001:0003DDA4  1830 0001:0003DDB0
  1845 0001:0003DDBC  1846 0001:0003DDCB  1850 0001:0003DDDF  1851 0001:0003DE05
  1854 0001:0003DE21  1856 0001:0003DE2D  1861 0001:0003DE3C  1864 0001:0003DE45
  1868 0001:0003DE5B  1870 0001:0003DE65  1876 0001:0003DE74  1879 0001:0003DE7E
  1882 0001:0003DE88  1883 0001:0003DE9A  1886 0001:0003DEA3  1893 0001:0003DEBD
  1898 0001:0003DED1  1900 0001:0003DEDB  1911 0001:0003DEE7  1914 0001:0003DF01
  1917 0001:0003DF0E  1919 0001:0003DF1A  1935 0001:0003DF28  1936 0001:0003DF3A
  1940 0001:0003DF4E  1941 0001:0003DF63  1944 0001:0003DF7F  1947 0001:0003DF8F
  1952 0001:0003DF9E  1957 0001:0003DFA7  1958 0001:0003DFB0  1961 0001:0003DFB9
  1966 0001:0003DFC6  1970 0001:0003DFDC  1976 0001:0003DFEB  1979 0001:0003DFF5
  1980 0001:0003E00D  1981 0001:0003E01E  1982 0001:0003E03C  1983 0001:0003E04C
  1987 0001:0003E056  1994 0001:0003E070  1998 0001:0003E07B  2005 0001:0003E087
  2008 0001:0003E094  2010 0001:0003E0A0  2025 0001:0003E0A4  2026 0001:0003E0B3
  2031 0001:0003E0BA  2033 0001:0003E0D1  2034 0001:0003E0EE  2035 0001:0003E10E
  2031 0001:0003E111  2037 0001:0003E116  2040 0001:0003E11F  2042 0001:0003E12B
  2061 0001:0003E130  2062 0001:0003E13F  2067 0001:0003E14A  2069 0001:0003E165
  2070 0001:0003E182  2073 0001:0003E1A6  2074 0001:0003E1BF  2077 0001:0003E1CF
  2080 0001:0003E1E5  2084 0001:0003E1F9  2085 0001:0003E217  2086 0001:0003E228
  2088 0001:0003E23E  2092 0001:0003E248  2098 0001:0003E25F  2099 0001:0003E27D
  2100 0001:0003E28E  2102 0001:0003E2A4  2106 0001:0003E2AE  2107 0001:0003E2C2
  2108 0001:0003E2CA  2109 0001:0003E2D0  2112 0001:0003E2E1  2113 0001:0003E2ED
  2114 0001:0003E2FE  2116 0001:0003E314  2120 0001:0003E31E  2121 0001:0003E32A
  2122 0001:0003E33B  2124 0001:0003E351  2128 0001:0003E35B  2133 0001:0003E36F
  2134 0001:0003E380  2136 0001:0003E396  2140 0001:0003E3A0  2141 0001:0003E3B4
  2142 0001:0003E3BA  2145 0001:0003E3CB  2146 0001:0003E3D7  2147 0001:0003E3E8
  2149 0001:0003E3FE  2153 0001:0003E408  2158 0001:0003E414  2160 0001:0003E446
  2161 0001:0003E457  2163 0001:0003E46D  2167 0001:0003E477  2173 0001:0003E48E
  2174 0001:0003E49A  2175 0001:0003E4AB  2177 0001:0003E4C1  2181 0001:0003E4CB
  2182 0001:0003E4D7  2183 0001:0003E4E8  2185 0001:0003E4FE  2189 0001:0003E508
  2191 0001:0003E51A  2067 0001:0003E51D  2194 0001:0003E526  2197 0001:0003E52F
  2199 0001:0003E53B  2213 0001:0003E544  2214 0001:0003E553  2216 0001:0003E567
  2221 0001:0003E573  2222 0001:0003E582  2223 0001:0003E596  2227 0001:0003E5AF
  2228 0001:0003E5C0  2234 0001:0003E5D4  2235 0001:0003E5E3  2236 0001:0003E5F7
  2240 0001:0003E60C  2241 0001:0003E61D  2244 0001:0003E631  2246 0001:0003E63D
  2270 0001:0003E644  2272 0001:0003E64E  2273 0001:0003E657  2275 0001:0003E65D
  2277 0001:0003E665  2278 0001:0003E671  2283 0001:0003E69D  2284 0001:0003E6A8
  2288 0001:0003E6B5  2273 0001:0003E6BE  2290 0001:0003E6C4  2292 0001:0003E6CC
  2293 0001:0003E6DB  2296 0001:0003E6F3  2299 0001:0003E6FA  2302 0001:0003E704
  2305 0001:0003E70E  2306 0001:0003E727  2309 0001:0003E743  2314 0001:0003E75A
  2317 0001:0003E774  2318 0001:0003E783  2319 0001:0003E7A5  2323 0001:0003E7BE
  2324 0001:0003E7CF  2330 0001:0003E7EA  2331 0001:0003E7FB  2334 0001:0003E811
  2335 0001:0003E820  2336 0001:0003E842  2340 0001:0003E857  2343 0001:0003E866
  2346 0001:0003E885  2349 0001:0003E898  2352 0001:0003E8A4  2355 0001:0003E8AE
  2358 0001:0003E8BB  2360 0001:0003E8C7  2374 0001:0003E8D8  2375 0001:0003E8E7
  2377 0001:0003E8F4  2382 0001:0003E8FD  2383 0001:0003E90E  2386 0001:0003E922
  2388 0001:0003E92E  2402 0001:0003E934  2403 0001:0003E943  2405 0001:0003E950
  2410 0001:0003E959  2411 0001:0003E96A  2414 0001:0003E97C  2415 0001:0003E990
  2418 0001:0003E9AA  2420 0001:0003E9B6  2434 0001:0003E9BC  2435 0001:0003E9CB
  2437 0001:0003E9DB  2442 0001:0003E9E7  2443 0001:0003EA0F  2457 0001:0003EA2B
  2458 0001:0003EA37  2460 0001:0003EA52  2462 0001:0003EA5E  2466 0001:0003EA68
  2467 0001:0003EA79  2468 0001:0003EA92  2472 0001:0003EAAC  2477 0001:0003EABE
  2478 0001:0003EACD  2479 0001:0003EAD7  2480 0001:0003EAE9  2487 0001:0003EAF5
  2488 0001:0003EB01  2489 0001:0003EB0B  2490 0001:0003EB29  2495 0001:0003EB35
  2496 0001:0003EB47  2500 0001:0003EB51  2518 0001:0003EB65  2520 0001:0003EB71
  2531 0001:0003EB84  2532 0001:0003EB93  2534 0001:0003EBA3  2539 0001:0003EBAF
  2540 0001:0003EBC6  2543 0001:0003EBDF  2544 0001:0003EC07  2547 0001:0003EC1F
  2548 0001:0003EC30  2549 0001:0003EC4A  2553 0001:0003EC70  2557 0001:0003EC7C
  2558 0001:0003EC83  2569 0001:0003EC90  2571 0001:0003EC9F  2572 0001:0003ECA6
  2583 0001:0003ECAC  2585 0001:0003ECBB  2586 0001:0003ECC2  2597 0001:0003ECC8
  2599 0001:0003ECD7  2600 0001:0003ECDE  2611 0001:0003ECE4  2613 0001:0003ECF3
  2614 0001:0003ECFA  2625 0001:0003ED00  2628 0001:0003ED0F  2629 0001:0003ED16
  2642 0001:0003ED1C  2644 0001:0003ED2E  2647 0001:0003ED3B  2650 0001:0003ED48
  2653 0001:0003ED6F  2654 0001:0003ED7D  2656 0001:0003ED8B  2659 0001:0003ED92
  2660 0001:0003EDA2  2662 0001:0003EED5  2666 0001:0003EEDC  2667 0001:0003EF5E
  2668 0001:0003EF71  2669 0001:0003EF84  2670 0001:0003EF97  2671 0001:0003EFAA
  2672 0001:0003EFBD  2673 0001:0003EFD0  2674 0001:0003EFE3  2676 0001:0003EFF6
  2678 0001:0003F009  2679 0001:0003F01C  2682 0001:0003F02F  2684 0001:0003F042
  2685 0001:0003F055  2687 0001:0003F068  2688 0001:0003F07B  2689 0001:0003F08B
  2690 0001:0003F09B  2691 0001:0003F0AB  2692 0001:0003F0BB  2693 0001:0003F0CB
  2694 0001:0003F0DB  2695 0001:0003F0EB  2696 0001:0003F0FB  2701 0001:0003F107
  2703 0001:0003F10E  2704 0001:0003F117  2707 0001:0003F122  2714 0001:0003F177
  2717 0001:0003F17E  2718 0001:0003F18F  2719 0001:0003F1AD  2720 0001:0003F1BA
  2726 0001:0003F1D1  2731 0001:0003F1E0  2739 0001:0003F20D  2742 0001:0003F214
  2743 0001:0003F225  2744 0001:0003F243  2746 0001:0003F250  2748 0001:0003F25A
  2760 0001:0003F288  2762 0001:0003F297  2765 0001:0003F29D  2766 0001:0003F2A6
  2770 0001:0003F2AC  2771 0001:0003F2BE  2773 0001:0003F2D7  2777 0001:0003F2E2
  2766 0001:0003F2EB  2779 0001:0003F2F1  2788 0001:0003F2F8  2789 0001:0003F307
  2790 0001:0003F311  2791 0001:0003F31B  2792 0001:0003F325  2793 0001:0003F32F
  2794 0001:0003F339  2795 0001:0003F343  2796 0001:0003F34D  2797 0001:0003F357
  2798 0001:0003F361  2799 0001:0003F36B  2800 0001:0003F375  2801 0001:0003F37F
  2802 0001:0003F389  2803 0001:0003F393  2804 0001:0003F39D  2805 0001:0003F3A7
  2806 0001:0003F3B1  2810 0001:0003F3EB

Line numbers for cd_decl(cd_decl.pas) segment .text

   150 0001:0003F3EC   153 0001:0003F3FE   161 0001:0003F417   163 0001:0003F426
   164 0001:0003F431   165 0001:0003F43C   166 0001:0003F442   168 0001:0003F448
   169 0001:0003F44C   172 0001:0003F453   175 0001:0003F457   176 0001:0003F462
   177 0001:0003F468   178 0001:0003F479   180 0001:0003F483   182 0001:0003F48D
   186 0001:0003F4A8   189 0001:0003F4C1   191 0001:0003F4CF   196 0001:0003F4D9
   197 0001:0003F4E3   198 0001:0003F4F4   199 0001:0003F501   200 0001:0003F544
   202 0001:0003F54E   206 0001:0003F558   215 0001:0003F573   216 0001:0003F57D
   217 0001:0003F58E   218 0001:0003F59B   219 0001:0003F5AA   221 0001:0003F5B4
   227 0001:0003F5C0   228 0001:0003F5D1   229 0001:0003F5DE   230 0001:0003F5ED
   232 0001:0003F5F7   235 0001:0003F603   239 0001:0003F60F   245 0001:0003F619
   246 0001:0003F624   247 0001:0003F635   248 0001:0003F642   250 0001:0003F64C
   254 0001:0003F656   260 0001:0003F66B   261 0001:0003F671   265 0001:0003F67D
   269 0001:0003F68C   272 0001:0003F69B   273 0001:0003F6AF   274 0001:0003F6B8
   279 0001:0003F6C3   280 0001:0003F6CC   285 0001:0003F6D7   288 0001:0003F6ED
   292 0001:0003F6F9   295 0001:0003F71B   296 0001:0003F724   304 0001:0003F7BC
   306 0001:0003F7CB   309 0001:0003F7D5   312 0001:0003F7EB   315 0001:0003F7FA
   318 0001:0003F803   319 0001:0003F80C   328 0001:0003F814   330 0001:0003F823
   333 0001:0003F839   334 0001:0003F848   335 0001:0003F853   338 0001:0003F85C
   341 0001:0003F865   342 0001:0003F86E   350 0001:0003F874   352 0001:0003F883
   355 0001:0003F88D   358 0001:0003F8A4   361 0001:0003F8B3   362 0001:0003F8C2
   363 0001:0003F8CD   366 0001:0003F8D6   367 0001:0003F8DF   375 0001:0003F8EC
   376 0001:0003F8F8   379 0001:0003F90C   382 0001:0003F91B   385 0001:0003F922
   388 0001:0003F929   391 0001:0003F936   395 0001:0003F949   396 0001:0003F953
   404 0001:0003F958   405 0001:0003F95F   408 0001:0003F973   411 0001:0003F97A
   414 0001:0003F981   415 0001:0003F997   424 0001:0003F99C   426 0001:0003F9A3
   429 0001:0003F9AA   430 0001:0003F9B1   438 0001:0003F9B4   440 0001:0003F9C0
   442 0001:0003F9CF   445 0001:0003F9E8   450 0001:0003F9F8   453 0001:0003F9FF
   458 0001:0003FA0E   461 0001:0003FA15   467 0001:0003FA24   470 0001:0003FA2B
   475 0001:0003FA3A   478 0001:0003FA41   483 0001:0003FA50   486 0001:0003FA57
   489 0001:0003FA66   492 0001:0003FA75   496 0001:0003FA81   499 0001:0003FA9D
   500 0001:0003FAA4   501 0001:0003FAAB   509 0001:0003FAB0   510 0001:0003FAB7
   513 0001:0003FACD   518 0001:0003FADD   523 0001:0003FAE6   529 0001:0003FAEF
   534 0001:0003FAF8   539 0001:0003FB01   542 0001:0003FB08   545 0001:0003FB19
   549 0001:0003FB25   552 0001:0003FB44   553 0001:0003FB4B   554 0001:0003FB52
   558 0001:0003FB8F

Line numbers for cc_pre(cc_pre.pas) segment .text

   113 0001:0003FB90   114 0001:0003FB9C   115 0001:0003FBA1   117 0001:0003FBA8
   118 0001:0003FBB8   119 0001:0003FBD2   120 0001:0003FBDB   121 0001:0003FBE1
   122 0001:0003FBE9   124 0001:0003FC08   126 0001:0003FC1F   127 0001:0003FC25
   142 0001:0003FC2C   144 0001:0003FC3B   145 0001:0003FC4B   146 0001:0003FC58
   150 0001:0003FC62   151 0001:0003FC6D   152 0001:0003FC78   153 0001:0003FC7A
   156 0001:0003FC7F   174 0001:0003FC88   176 0001:0003FC95   177 0001:0003FCA3
   178 0001:0003FCB4   182 0001:0003FCBE   183 0001:0003FCCB   185 0001:0003FCE2
   188 0001:0003FCEE   189 0001:0003FCFC   190 0001:0003FD0D   195 0001:0003FD17
   196 0001:0003FD24   198 0001:0003FD3B   201 0001:0003FD4E   202 0001:0003FD5C
   203 0001:0003FD6D   208 0001:0003FD77   209 0001:0003FD84   211 0001:0003FD9B
   214 0001:0003FDAE   215 0001:0003FDBC   216 0001:0003FDCD   220 0001:0003FDD7
   221 0001:0003FDE5   222 0001:0003FDF6   227 0001:0003FE00   228 0001:0003FE0C
   229 0001:0003FE1D   230 0001:0003FE3B   232 0001:0003FE43   236 0001:0003FE4D
   240 0001:0003FE5B   241 0001:0003FE6D   242 0001:0003FE7E   244 0001:0003FE86
   248 0001:0003FE90   251 0001:0003FEAB   252 0001:0003FEB3   268 0001:0003FEB8
   270 0001:0003FEC5   271 0001:0003FED3   272 0001:0003FEE4   276 0001:0003FEEE
   277 0001:0003FEFB   279 0001:0003FF12   282 0001:0003FF1E   283 0001:0003FF2C
   284 0001:0003FF3D   289 0001:0003FF47   290 0001:0003FF52   291 0001:0003FF58
   292 0001:0003FF69   294 0001:0003FF73   296 0001:0003FF7D   299 0001:0003FF98
   300 0001:0003FFA6   301 0001:0003FFB7   305 0001:0003FFC1   306 0001:0003FFCF
   307 0001:0003FFE0   312 0001:0003FFEA   313 0001:0003FFFC   329 0001:00040004
   331 0001:00040011   332 0001:0004001F   333 0001:00040030   337 0001:0004003A
   338 0001:00040047   340 0001:0004005E   343 0001:0004006A   344 0001:00040078
   345 0001:00040089   350 0001:00040093   351 0001:0004009E   352 0001:000400A4
   353 0001:000400B5   355 0001:000400BF   357 0001:000400C9   360 0001:000400E4
   361 0001:000400F2   362 0001:00040103   366 0001:0004010D   367 0001:0004011B
   368 0001:0004012C   373 0001:00040136   374 0001:00040149   390 0001:00040150
   392 0001:0004015C   393 0001:0004016A   394 0001:0004017B   398 0001:00040185
   399 0001:00040190   400 0001:00040196   401 0001:000401A7   403 0001:000401B1
   405 0001:000401BB   408 0001:000401D6   409 0001:000401E4   410 0001:000401F5
   415 0001:000401FF   416 0001:0004020C   418 0001:00040223   421 0001:0004022F
   422 0001:0004023D   423 0001:0004024E   427 0001:00040258   428 0001:00040266
   429 0001:00040277   434 0001:00040281   435 0001:0004028C   450 0001:00040290
   452 0001:0004029C   453 0001:000402A9   455 0001:000402C0   458 0001:000402D3
   459 0001:000402E1   460 0001:000402F2   465 0001:000402FC   466 0001:00040345
   467 0001:0004034E   468 0001:0004035F   469 0001:0004036F   470 0001:00040377
   474 0001:00040381   475 0001:00040390   490 0001:0004039C   492 0001:000403AA
   493 0001:000403B5   494 0001:000403C0   495 0001:000403CF   497 0001:000403DF
   498 0001:000403EC   502 0001:000403F1   503 0001:000403FC   504 0001:00040402
   505 0001:00040413   506 0001:0004041D   508 0001:00040427   511 0001:00040432
   512 0001:00040440   513 0001:00040451   518 0001:0004045B   519 0001:00040461
   521 0001:0004046B   522 0001:0004047A   525 0001:000404D4   530 0001:000404DC
   531 0001:000404ED   532 0001:000404F7   536 0001:00040501   519 0001:0004050A
   540 0001:00040514   542 0001:00040530   543 0001:00040539   544 0001:0004054A
   545 0001:0004055A   546 0001:00040564   550 0001:0004056E   551 0001:0004057D
   569 0001:000405A0   571 0001:000405AC   572 0001:000405BA   573 0001:000405CB
   575 0001:000405D5   577 0001:000405DF   580 0001:000405FA   583 0001:00040610
   584 0001:0004061E   585 0001:0004062F   589 0001:00040639   591 0001:0004063F
   592 0001:0004064D   593 0001:0004065B   595 0001:00040665   597 0001:0004066F
   600 0001:0004068D   601 0001:0004069B   602 0001:000406A9   607 0001:000406B3
   608 0001:000406C0   609 0001:000406D7   612 0001:000406E8   615 0001:000406F3
   616 0001:00040701   617 0001:00040712   621 0001:0004071C   622 0001:0004072A
   623 0001:0004073B   628 0001:00040745   629 0001:0004074B   630 0001:00040765
   631 0001:0004077A   644 0001:00040788   646 0001:00040794   647 0001:000407A2
   648 0001:000407B3   650 0001:000407BD   652 0001:000407C7   658 0001:000407E2
   659 0001:000407F6   663 0001:00040800   664 0001:00040814   668 0001:0004081E
   669 0001:00040832   673 0001:0004083C   674 0001:00040850   678 0001:0004085A
   679 0001:0004086D   694 0001:0004089C   696 0001:000408A8   697 0001:000408B6
   698 0001:000408C7   700 0001:000408D1   702 0001:000408DB   705 0001:000408F6
   706 0001:00040904   707 0001:00040915   711 0001:0004091F   714 0001:0004092A
   719 0001:00040930   720 0001:00040941   721 0001:0004094E   724 0001:00040958
   725 0001:0004095F   731 0001:00040966   734 0001:00040977   735 0001:0004097F
   736 0001:0004098A   738 0001:0004098F   751 0001:00040994   753 0001:000409A0
   754 0001:000409AE   755 0001:000409BF   757 0001:000409C9   759 0001:000409D3
   762 0001:000409EE   763 0001:000409FC   764 0001:00040A0D   769 0001:00040A17
   770 0001:00040A28   771 0001:00040A4E   772 0001:00040A7D   775 0001:00040AA9
   777 0001:00040ABD   780 0001:00040AE3   781 0001:00040AEA   787 0001:00040AF1
   788 0001:00040B02   789 0001:00040B0F   792 0001:00040B19   796 0001:00040B3F
   797 0001:00040B4A   798 0001:00040B55   799 0001:00040B57   803 0001:00040B5C
   816 0001:00040B64   818 0001:00040B6D   819 0001:00040B7B   820 0001:00040B8C
   822 0001:00040B96   826 0001:00040BA0   827 0001:00040BAE   828 0001:00040BBF
   832 0001:00040BC9   833 0001:00040BD0   834 0001:00040BD5   847 0001:00040BDC
   849 0001:00040BE5   850 0001:00040BF3   851 0001:00040C04   853 0001:00040C0E
   857 0001:00040C18   858 0001:00040C26   859 0001:00040C37   863 0001:00040C41
   864 0001:00040C48   865 0001:00040C4D   877 0001:00040C54   878 0001:00040C60
   879 0001:00040C71   880 0001:00040C8C   882 0001:00040C96   883 0001:00040CA9
   916 0001:00040CC8   918 0001:00040CDA   922 0001:00040CFE   923 0001:00040D0F
   924 0001:00040D35   925 0001:00040D5B   930 0001:00040D89   931 0001:00040D9D
   932 0001:00040DA5   938 0001:00040DAA   939 0001:00040DE6   940 0001:00040DEE
   944 0001:00040DF3   948 0001:00040DFF   949 0001:00040E0C   951 0001:00040E1A
   954 0001:00040E1E   957 0001:00040E2B   963 0001:00040E51   967 0001:00040E68
   968 0001:00040E73   969 0001:00040E84   970 0001:00040E93   971 0001:00040EB2
   972 0001:00040ED1   977 0001:00040EDD   978 0001:00040EE8   979 0001:00040EF1
   980 0001:00040EF6   984 0001:00040EFB   987 0001:00040F01   991 0001:00040F0C
   992 0001:00040F18   993 0001:00040F29   994 0001:00040F86   998 0001:00040F90
  1001 0001:00040F95  1002 0001:00040FA3  1003 0001:00040FB1  1009 0001:00040FD9
  1010 0001:00040FEC  1016 0001:00040FFA  1019 0001:00041000  1022 0001:0004102A
  1026 0001:00041051  1028 0001:00041057  1029 0001:00041065  1030 0001:00041076
  1035 0001:00041080  1039 0001:00041091  1040 0001:0004109F  1041 0001:000410B0
  1046 0001:000410BA  1048 0001:000410C4  1053 0001:000410CA  1055 0001:000410EF
  1060 0001:000410F4  1063 0001:000410F9  1066 0001:0004111B  1067 0001:00041121
  1068 0001:00041126  1072 0001:00041128  1074 0001:0004112E  1077 0001:00041139
  1081 0001:0004116F  1087 0001:00041174  1093 0001:00041183  1097 0001:0004118D
  1103 0001:00041190  1106 0001:00041195  1115 0001:000411EC  1116 0001:000411F3
  1117 0001:000411FD  1126 0001:00041200  1127 0001:00041207  1128 0001:00041211
  1137 0001:00041214  1138 0001:0004121B  1139 0001:00041225  1179 0001:00041228
  1181 0001:00041237  1182 0001:0004124B  1183 0001:00041253  1187 0001:00041258
  1188 0001:00041280  1189 0001:00041291  1190 0001:0004129E  1194 0001:000412A8
  1197 0001:000412B9  1198 0001:000412C7  1199 0001:000412D8  1204 0001:000412E2
  1205 0001:000412EF  1206 0001:000412F8  1207 0001:00041301  1209 0001:0004130D
  1237 0001:00041312  1246 0001:00041318  1248 0001:00041321  1249 0001:00041335
  1250 0001:0004135D  1251 0001:0004136D  1253 0001:00041379  1254 0001:0004138E
  1258 0001:0004139C  1260 0001:000413A4  1275 0001:000413A8  1277 0001:000413B4
  1278 0001:000413C1  1280 0001:000413D8  1283 0001:000413EB  1284 0001:000413F9
  1285 0001:0004140A  1290 0001:00041414  1291 0001:00041425  1292 0001:00041435
  1293 0001:0004143F  1294 0001:00041449  1309 0001:00041450  1311 0001:0004145C
  1312 0001:00041469  1314 0001:00041480  1317 0001:00041493  1318 0001:000414A1
  1319 0001:000414B2  1324 0001:000414BC  1325 0001:000414CD  1326 0001:000414DD
  1327 0001:000414E7  1342 0001:000414EC  1344 0001:000414F8  1345 0001:00041505
  1347 0001:0004151C  1350 0001:0004152F  1351 0001:0004153D  1352 0001:0004154E
  1357 0001:00041558  1358 0001:0004156D  1359 0001:00041577  1373 0001:0004157C
  1375 0001:00041588  1376 0001:00041596  1377 0001:000415A7  1378 0001:000415B1
  1380 0001:000415BB  1383 0001:000415D6  1384 0001:000415E4  1385 0001:000415F5
  1389 0001:000415FF  1392 0001:0004160D  1393 0001:00041612  1394 0001:00041618
  1395 0001:00041621  1397 0001:00041628  1424 0001:0004162C  1426 0001:0004163A
  1429 0001:0004164B  1432 0001:00041659  1435 0001:0004166A  1436 0001:00041675
  1439 0001:00041683  1440 0001:00041691  1441 0001:000416A2  1442 0001:000416AC
  1447 0001:000416B6  1448 0001:000416C4  1449 0001:000416D5  1450 0001:000416DF
  1454 0001:000416E9  1457 0001:000416F4  1458 0001:000416F9  1461 0001:000416FE
  1462 0001:00041723  1465 0001:0004172D  1466 0001:00041733  1467 0001:00041741
  1471 0001:00041754  1476 0001:00041759  1480 0001:00041763  1488 0001:00041766
  1491 0001:00041778  1492 0001:0004177E  1496 0001:0004178F  1500 0001:0004179B
  1501 0001:000417AE  1502 0001:000417B5  1507 0001:000417C0  1508 0001:000417C7
  1509 0001:000417D0  1510 0001:000417E3  1511 0001:000417F4  1512 0001:00041800
  1513 0001:0004180C  1517 0001:00041818  1518 0001:0004181E  1519 0001:00041828
  1520 0001:00041834  1521 0001:0004183A  1524 0001:0004183F  1525 0001:00041870
  1526 0001:00041881  1527 0001:00041893  1528 0001:0004189D  1532 0001:000418A7
  1533 0001:000418B5  1534 0001:000418C6  1535 0001:000418D0  1539 0001:000418DA
  1540 0001:000418E5  1552 0001:000418EC  1553 0001:000418F8  1554 0001:00041919
  1570 0001:00041920  1572 0001:0004192F  1573 0001:0004193D  1575 0001:0004194A
  1576 0001:00041958  1578 0001:00041966  1581 0001:00041971  1582 0001:0004198B
  1585 0001:000419B7  1590 0001:000419DC  1592 0001:000419F2  1600 0001:000419FC
  1602 0001:00041A0B  1604 0001:00041A11  1608 0001:00041A19  1609 0001:00041A1F
  1610 0001:00041A2A  1614 0001:00041A32  1615 0001:00041A38  1624 0001:00041A40
  1625 0001:00041A4F  1626 0001:00041A59  1627 0001:00041A63  1628 0001:00041A6D
  1629 0001:00041A77  1630 0001:00041A81  1631 0001:00041A8B  1632 0001:00041A95
  1633 0001:00041A9F  1634 0001:00041AA9  1635 0001:00041AB3  1636 0001:00041ABD
  1637 0001:00041AC7  1638 0001:00041AD1  1639 0001:00041ADB  1640 0001:00041AE5
  1641 0001:00041AEF  1642 0001:00041AF9  1643 0001:00041B03  1647 0001:00041B3B

Line numbers for cc_lex1(cc_lex1.pas) segment .text

   143 0001:00041B3C   170 0001:00041B4D   172 0001:00041B65   176 0001:00041B77
   180 0001:00041B8F   183 0001:00041BB1   184 0001:00041BBF   185 0001:00041BCB
   186 0001:00041BDE   187 0001:00041BF1   188 0001:00041C03   189 0001:00041C15
   190 0001:00041C27   191 0001:00041C33   192 0001:00041C3F   193 0001:00041C4B
   199 0001:00041C57   200 0001:00041C6B   203 0001:00041C86   206 0001:00041C91
   209 0001:00041CA5   211 0001:00041CA9   266 0001:00041CB3   267 0001:00041CC9
   268 0001:00041CDB   284 0001:00041CE4   286 0001:00041CF0   287 0001:00041CFB
   291 0001:00041D03   292 0001:00041D07   296 0001:00041D09   299 0001:00041D0D
   300 0001:00041D14   303 0001:00041D58   299 0001:00041D5B   308 0001:00041D61
   309 0001:00041D66   310 0001:00041D7D   321 0001:00041D84   323 0001:00041D90
   324 0001:00041D9B   325 0001:00041DA6   326 0001:00041DAA   327 0001:00041DAF
   331 0001:00041DB1   334 0001:00041DBC   338 0001:00041DD0   339 0001:00041DD6
   340 0001:00041DDA   348 0001:00041DE1   350 0001:00041DE8   361 0001:00041DEC
   363 0001:00041DF8   364 0001:00041E03   365 0001:00041E0E   366 0001:00041E12
   367 0001:00041E17   371 0001:00041E19   374 0001:00041E24   378 0001:00041E50
   379 0001:00041E56   380 0001:00041E5A   388 0001:00041E61   390 0001:00041E68
   398 0001:00041E6C   399 0001:00041E73   400 0001:00041E87   408 0001:00041E8C
   409 0001:00041E93   410 0001:00041EAF   418 0001:00041EB4   419 0001:00041EBB
   420 0001:00041ED5   428 0001:00041ED8   429 0001:00041EDF   430 0001:00041EF9
   438 0001:00041EFC   439 0001:00041F05   440 0001:00041F22   448 0001:00041F28
   449 0001:00041F31   450 0001:00041F4F   459 0001:00041F54   460 0001:00041F66
   468 0001:00041F68   469 0001:00041F74   470 0001:00041F7F   471 0001:00041F84
   482 0001:00041F88   483 0001:00041F94   484 0001:00041F9F   485 0001:00041FA9
   486 0001:00041FB7   499 0001:00041FBC   500 0001:00041FC8   501 0001:00041FD3
   502 0001:00041FE0   510 0001:00041FE4   511 0001:00041FF3   512 0001:00042010
   513 0001:0004202E   514 0001:00042052   515 0001:00042063   516 0001:0004207D
   517 0001:00042086   525 0001:0004208C   526 0001:00042098   527 0001:000420A5
   528 0001:000420B5   546 0001:000420BC   549 0001:000420CB   552 0001:000420D6
   553 0001:000420E0   555 0001:000420EF   556 0001:000420F6   558 0001:00042102
   562 0001:00042104   563 0001:0004210E   565 0001:00042121   566 0001:00042128
   567 0001:00042139   568 0001:00042145   570 0001:00042151   574 0001:00042153
   575 0001:00042169   614 0001:0004216E   622 0001:00042174   623 0001:00042180
   625 0001:000421C2   633 0001:000421C8   634 0001:000421D4   636 0001:00042216
   640 0001:00042253

Line numbers for cc_err(cc_err.pas) segment .text

   574 0001:00042394   575 0001:000423A0   576 0001:000423B0   577 0001:000423CC
   578 0001:000423D2   579 0001:000423E2   580 0001:000423EA   590 0001:000423F0
   592 0001:00042401   597 0001:00042734   598 0001:0004273F   601 0001:00042756
   602 0001:0004276E   603 0001:00042786   604 0001:0004279E   605 0001:000427B5
   606 0001:000427CC   607 0001:000427E2   610 0001:000427F9   611 0001:00042811
   612 0001:00042828   613 0001:00042841   614 0001:00042859   615 0001:00042870
   616 0001:00042887   617 0001:0004289F   620 0001:000428B7   621 0001:000428CD
   622 0001:000428E3   623 0001:000428FC   624 0001:00042915   625 0001:0004292B
   626 0001:0004293D   627 0001:00042956   631 0001:0004296C   632 0001:00042982
   633 0001:0004299B   634 0001:000429B2   635 0001:000429CA   636 0001:000429E0
   637 0001:000429F7   638 0001:00042A0E   639 0001:00042A24   640 0001:00042A3A
   641 0001:00042A50   642 0001:00042A68   643 0001:00042A80   644 0001:00042A98
   645 0001:00042AB0   646 0001:00042AC9   647 0001:00042AE2   648 0001:00042AFA
   649 0001:00042B12   650 0001:00042B2A   651 0001:00042B42   652 0001:00042B5B
   653 0001:00042B74   654 0001:00042B8A   655 0001:00042BA2   656 0001:00042BBB
   657 0001:00042BD4   658 0001:00042BEA   659 0001:00042C01   660 0001:00042C1A
   661 0001:00042C30   662 0001:00042C49   663 0001:00042C5F   664 0001:00042C78
   665 0001:00042C91   666 0001:00042CAA   667 0001:00042CC1   668 0001:00042CD9
   669 0001:00042CF0   670 0001:00042D07   671 0001:00042D20   672 0001:00042D37
   673 0001:00042D4F   674 0001:00042D68   675 0001:00042D7F   676 0001:00042D96
   677 0001:00042DAD   678 0001:00042DC3   679 0001:00042DDA   680 0001:00042DF0
   681 0001:00042E07   682 0001:00042E20   683 0001:00042E36   684 0001:00042E4F
   685 0001:00042E65   686 0001:00042E7D   687 0001:00042E93   688 0001:00042EAC
   689 0001:00042EC4   690 0001:00042EDB   691 0001:00042EF1   692 0001:00042F09
   693 0001:00042F1F   694 0001:00042F38   695 0001:00042F4E   696 0001:00042F66
   697 0001:00042F7C   698 0001:00042F94   699 0001:00042FAC   700 0001:00042FC3
   701 0001:00042FD9   704 0001:00042FF1   705 0001:00043009   706 0001:00043022
   707 0001:00043038   708 0001:00043051   709 0001:00043067   710 0001:00043080
   711 0001:00043099   712 0001:000430B0   713 0001:000430C7   714 0001:000430DF
   715 0001:000430F7   716 0001:0004310E   717 0001:00043126   718 0001:0004313C
   719 0001:00043153   720 0001:0004316B   721 0001:00043184   722 0001:0004319A
   723 0001:000431B2   724 0001:000431C9   725 0001:000431E2   726 0001:000431FA
   727 0001:00043210   728 0001:00043229   729 0001:00043240   730 0001:00043256
   731 0001:0004326C   732 0001:00043282   733 0001:0004329A   734 0001:000432B2
   735 0001:000432C9   736 0001:000432E1   737 0001:000432F9   738 0001:00043311
   739 0001:00043327   740 0001:0004333D   741 0001:00043356   742 0001:0004336D
   743 0001:00043384   744 0001:0004339B   745 0001:000433B3   746 0001:000433C9
   747 0001:000433E0   748 0001:000433F9   749 0001:00043411   750 0001:00043427
   751 0001:0004343E   752 0001:00043457   753 0001:0004346D   754 0001:00043484
   755 0001:0004349B   756 0001:000434B4   757 0001:000434CB   758 0001:000434E4
   759 0001:000434FB   760 0001:00043512   761 0001:0004352A   762 0001:00043543
   763 0001:0004355B   764 0001:00043573   765 0001:0004358C   766 0001:000435A4
   767 0001:000435BC   768 0001:000435D5   769 0001:000435ED   770 0001:00043606
   771 0001:0004361E   772 0001:00043636   773 0001:0004364F   774 0001:00043666
   775 0001:0004367C   776 0001:00043693   777 0001:000436AA   778 0001:000436C0
   779 0001:000436D9   780 0001:000436F0   781 0001:00043708   782 0001:0004371F
   783 0001:00043737   784 0001:0004374D   785 0001:00043764   786 0001:0004377C
   787 0001:00043792   788 0001:000437AA   791 0001:000437C2   792 0001:000437D8
   793 0001:000437EE   794 0001:00043804   795 0001:0004381D   796 0001:00043835
   797 0001:0004384C   800 0001:00043862   801 0001:0004387B   802 0001:00043894
   803 0001:000438AA   804 0001:000438C2   809 0001:000438D8   810 0001:000438F1
   811 0001:00043906   812 0001:0004391B   815 0001:0004392E   816 0001:00043942
   817 0001:00043957   820 0001:0004397A   830 0001:000451AC   831 0001:000451B8
   834 0001:000451D3   835 0001:000451E4   838 0001:000451FF   839 0001:0004520C
   847 0001:00045210   848 0001:00045217   849 0001:0004521E   850 0001:00045226
   884 0001:0004522C   886 0001:0004523B   887 0001:0004524A   888 0001:00045263
   891 0001:00045270   894 0001:00045279   897 0001:00045282   898 0001:0004528B
   899 0001:00045298   900 0001:000452A0   901 0001:000452A9   909 0001:000452B0
   910 0001:000452BF   911 0001:000452CC   912 0001:000452D8   913 0001:000452DF
   914 0001:000452E5   922 0001:000452EC   923 0001:000452FB   924 0001:00045308
   925 0001:00045314   933 0001:00045318   934 0001:00045327   935 0001:00045334
   936 0001:00045345   944 0001:0004534C   945 0001:00045358   946 0001:00045374
   947 0001:00045385   955 0001:0004538C   956 0001:00045398   957 0001:000453A0
   958 0001:000453BC   959 0001:000453CD   967 0001:000453D4   968 0001:000453DB
   969 0001:000453F7   970 0001:00045407   978 0001:0004540C   979 0001:00045413
   980 0001:0004542F   981 0001:00045441   982 0001:00045453   990 0001:00045458
   991 0001:0004545F   992 0001:0004547B   993 0001:00045496   994 0001:000454C3
   995 0001:000454F0   996 0001:00045510  1004 0001:00045514  1005 0001:00045522
  1006 0001:0004553E  1007 0001:00045553  1015 0001:0004555C  1016 0001:00045563
  1017 0001:00045576  1025 0001:0004557C  1026 0001:00045583  1027 0001:00045591
  1028 0001:0004559C  1029 0001:000455AF  1037 0001:000455B4  1038 0001:000455BD
  1039 0001:000455C9  1066 0001:000455D0  1067 0001:000455D7  1069 0001:000455E9
  1071 0001:000455FB  1072 0001:00045603  1074 0001:00045608  1075 0001:00045614
  1076 0001:0004561C  1078 0001:00045626  1079 0001:0004562F  1080 0001:00045642
  1082 0001:00045649  1086 0001:00045657  1092 0001:000456AE  1093 0001:000456C7
  1094 0001:00045735  1095 0001:000457A0  1097 0001:000457F8  1098 0001:00045856
  1103 0001:00045868  1104 0001:00045881  1105 0001:000458F0  1106 0001:0004595C
  1108 0001:000459B5  1109 0001:000459E3  1110 0001:00045A04  1111 0001:00045A14
  1112 0001:00045A70  1113 0001:00045AE5  1114 0001:00045B03  1115 0001:00045B87
  1116 0001:00045BD9  1121 0001:00045BE6  1076 0001:00045BEE  1123 0001:00045BF8
  1132 0001:00045CB0  1133 0001:00045CBF  1134 0001:00045CC5  1135 0001:00045CD6
  1136 0001:00045CF4  1143 0001:00045CFE  1151 0001:00045D04  1152 0001:00045D16
  1153 0001:00045D1C  1154 0001:00045D2D  1155 0001:00045D4B  1157 0001:00045D58
  1162 0001:00045D62  1170 0001:00045D68  1171 0001:00045D74  1172 0001:00045D85
  1173 0001:00045DA3  1175 0001:00045DAD  1179 0001:00045DB7  1187 0001:00045DBC
  1188 0001:00045DCB  1189 0001:00045DDC  1190 0001:00045DFA  1192 0001:00045E07
  1196 0001:00045E11  1204 0001:00045E18  1205 0001:00045E2A  1207 0001:00045E34
  1208 0001:00045E4F  1209 0001:00045F0D  1212 0001:00045F75  1213 0001:00045F8C
  1214 0001:00045FFB  1216 0001:00046038  1230 0001:0004608B

Line numbers for cc_def(cc_def.pas) segment .text

  2555 0001:000463A8  2556 0001:000463B0  2557 0001:000463C2  2558 0001:000463F1
  2559 0001:00046403  2560 0001:00046433  2743 0001:00046450  2744 0001:00046466
  2770 0001:0004646C  2771 0001:00046475  2772 0001:00046483  2790 0001:00046488
  2791 0001:00046491  2792 0001:000464A5  2793 0001:000464B1  2801 0001:000464B8
  2802 0001:000464C4  2803 0001:000464CD  2811 0001:000464D4  2812 0001:000464DB
  2813 0001:000464EF  2814 0001:000464FA  2822 0001:00046500  2823 0001:0004650C
  2824 0001:0004651A  2832 0001:00046520  2833 0001:00046529  2834 0001:00046535
  2842 0001:0004653C  2843 0001:00046545  2844 0001:00046559  2845 0001:00046565
  2853 0001:0004656C  2854 0001:00046578  2855 0001:00046582  2856 0001:0004658B
  2864 0001:00046590  2865 0001:00046599  2866 0001:000465BD  2874 0001:000465C4
  2875 0001:000465CB  2876 0001:000465DA  2878 0001:000465E8  2879 0001:000465FC
  2881 0001:0004660F  2889 0001:00046614  2890 0001:0004661D  2891 0001:0004662B
  2899 0001:00046630  2900 0001:0004663C  2901 0001:00046645  2909 0001:0004664C
  2910 0001:00046655  2911 0001:00046661  2919 0001:00046668  2920 0001:00046671
  2921 0001:00046685  2922 0001:00046691  2930 0001:00046698  2931 0001:000466A1
  2932 0001:000466C5  2940 0001:000466CC  2941 0001:000466D3  2942 0001:000466E2
  2944 0001:000466F0  2945 0001:00046704  2947 0001:00046717  2956 0001:0004671C
  2957 0001:00046725  2958 0001:00046739  2959 0001:00046745  2967 0001:0004674C
  2968 0001:00046755  2969 0001:00046779  2991 0001:00046780  2992 0001:00046791
  2993 0001:000467A0  2994 0001:000467CE  2992 0001:000467D1  2995 0001:000467D6
  3012 0001:00046813

Line numbers for cb_make(cb_make.pas) segment .text

    72 0001:00046814    73 0001:00046823    74 0001:00046833    75 0001:0004683B
    76 0001:00046848    77 0001:00046851    78 0001:00046859    90 0001:00046860
    92 0001:0004686F    95 0001:0004687C    96 0001:00046888   104 0001:0004688C
   106 0001:0004689B   109 0001:000468A8   110 0001:000468BC   118 0001:000468C0
   120 0001:000468CF   123 0001:000468DC   126 0001:000468E5   127 0001:000468F9
   135 0001:00046900   137 0001:0004690C   138 0001:0004691C   146 0001:00046920
   148 0001:0004692F   151 0001:0004693C   152 0001:00046945   153 0001:0004694E
   154 0001:0004695A   158 0001:00046997

Line numbers for cx_make(cx_make.pas) segment .text

   162 0001:00046998   164 0001:000469A7   167 0001:000469B4   168 0001:000469BB
   171 0001:000469C2   174 0001:000469D0   177 0001:000469E2   180 0001:000469E9
   181 0001:000469F4   187 0001:00046A02   200 0001:00046A08   202 0001:00046A17
   205 0001:00046A24   208 0001:00046A2D   211 0001:00046A3B   214 0001:00046A51
   217 0001:00046A58   218 0001:00046A63   224 0001:00046A71   232 0001:00046A78
   233 0001:00046A87   234 0001:00046AA2   242 0001:00046AA8   243 0001:00046AB7
   244 0001:00046AD2   252 0001:00046AD8   254 0001:00046AE7   257 0001:00046AFF
   258 0001:00046B09   269 0001:00046B10   271 0001:00046B1F   274 0001:00046B2C
   275 0001:00046B38   278 0001:00046B41   279 0001:00046B51   280 0001:00046B57
   281 0001:00046B66   293 0001:00046B77   296 0001:00046B7E   297 0001:00046B89
   298 0001:00046B97   306 0001:00046B9C   308 0001:00046BAB   311 0001:00046BB8
   312 0001:00046BC4   315 0001:00046BCD   316 0001:00046BD3   317 0001:00046BE2
   320 0001:00046BF3   323 0001:00046BFA   324 0001:00046C05   325 0001:00046C13
   333 0001:00046C18   335 0001:00046C27   338 0001:00046C34   341 0001:00046C3D
   342 0001:00046C49   345 0001:00046C52   348 0001:00046C6F   351 0001:00046C7B
   352 0001:00046C86   353 0001:00046C94   361 0001:00046C9C   363 0001:00046CAB
   366 0001:00046CB8   369 0001:00046CC6   372 0001:00046CEB   375 0001:00046CF7
   378 0001:00046CFE   379 0001:00046D09   380 0001:00046D17   388 0001:00046D20
   390 0001:00046D2F   393 0001:00046D36   396 0001:00046D43   399 0001:00046D4C
   402 0001:00046D71   405 0001:00046D7F   406 0001:00046D8A   407 0001:00046D98
   415 0001:00046D9C   417 0001:00046DAB   420 0001:00046DB8   423 0001:00046DC9
   426 0001:00046DD0   427 0001:00046DDB   428 0001:00046DE9   436 0001:00046DF0
   440 0001:00046DFF   443 0001:00046E0C   444 0001:00046E19   447 0001:00046E27
   448 0001:00046E30   453 0001:00046E39   456 0001:00046E40   457 0001:00046E4B
   458 0001:00046E59   466 0001:00046E60   468 0001:00046E6F   471 0001:00046E7C
   474 0001:00046E85   475 0001:00046E8E   476 0001:00046E97   479 0001:00046EA0
   480 0001:00046EA6   481 0001:00046EB5   484 0001:00046EC6   487 0001:00046ED2
   488 0001:00046EDD   489 0001:00046EEB   497 0001:00046EF4   499 0001:00046F03
   500 0001:00046F10   503 0001:00046F19   506 0001:00046F27   509 0001:00046F38
   512 0001:00046F3F   513 0001:00046F4A   514 0001:00046F58   522 0001:00046F60
   524 0001:00046F6F   527 0001:00046F7C   530 0001:00046F87   533 0001:00046F98
   536 0001:00046F9F   537 0001:00046FAA   538 0001:00046FB8   546 0001:00046FBC
   548 0001:00046FCB   551 0001:00046FD8   554 0001:00046FE6   557 0001:00046FFC
   560 0001:00047003   561 0001:0004700E   562 0001:0004701C   570 0001:00047020
   572 0001:0004702F   575 0001:0004703C   578 0001:00047049   579 0001:00047050
   582 0001:00047059   585 0001:00047067   588 0001:00047073   589 0001:0004707E
   590 0001:0004708C   594 0001:000470CB

Line numbers for ca_util(ca_util.pas) segment .text

    40 0001:000470CC    41 0001:000470DB    42 0001:000470E5    43 0001:000470EB
    44 0001:000470F9    45 0001:000470FF    53 0001:00047104    55 0001:00047110
    58 0001:00047116    59 0001:0004711E    60 0001:00047128    61 0001:00047134
    62 0001:0004713D    66 0001:0004717B

Line numbers for ca_type(ca_type.pas) segment .text

   118 0001:0004717C   120 0001:0004718B   123 0001:000471A0   126 0001:000471B6
   127 0001:000471C0   128 0001:000471CA   131 0001:000471D7   134 0001:000471E9
   137 0001:000471FC   138 0001:00047206   139 0001:00047210   142 0001:00047220
   145 0001:00047228   148 0001:00047230   151 0001:0004723A   152 0001:00047244
   173 0001:00047250   174 0001:00047262   175 0001:0004726E   179 0001:00047278
   182 0001:000472AA   185 0001:000472B6   188 0001:000472D5   189 0001:000472E7
   190 0001:00047305   193 0001:0004730D   196 0001:0004731D   199 0001:0004732F
   202 0001:0004733F   203 0001:0004737A   211 0001:000473B6   216 0001:000473CD
   226 0001:00047428   230 0001:00047430   231 0001:00047436   244 0001:00047444
   245 0001:00047453   248 0001:00047466   249 0001:00047483   250 0001:000474A0
   253 0001:000474BC   267 0001:00047528   277 0001:00047561   287 0001:000475BA
   299 0001:000475D4   300 0001:000475E3   303 0001:000475F6   304 0001:00047613
   309 0001:00047624   333 0001:000476DA   341 0001:000476EC   345 0001:000476FB
   353 0001:00047734   369 0001:0004773C   371 0001:00047756   381 0001:0004776A
   382 0001:0004777A   383 0001:0004778B   384 0001:000477AE   385 0001:000477D1
   386 0001:000477F1   393 0001:000477FF   395 0001:00047829   403 0001:00047858
   405 0001:00047864   428 0001:0004786C   429 0001:0004787B   432 0001:000478A3
   452 0001:000478AC   453 0001:000478B8   456 0001:000478CF   459 0001:000478F4
   462 0001:00047902   464 0001:0004790E   467 0001:0004791E   468 0001:0004792A
   472 0001:00047932   474 0001:00047968   477 0001:00047979   480 0001:00047997
   483 0001:000479B3   494 0001:000479F0   558 0001:00047A1D   460 0001:00047A26
   562 0001:00047A30   563 0001:00047A38   586 0001:00047A3C   587 0001:00047A4B
   591 0001:00047A80   612 0001:00047A88   613 0001:00047A94   616 0001:00047AB1
   619 0001:00047AD6   622 0001:00047AE6   623 0001:00047AF2   627 0001:00047AFA
   628 0001:00047B0E   629 0001:00047B2A   630 0001:00047B34   631 0001:00047B3E
   632 0001:00047B48   635 0001:00047B50   638 0001:00047B8B   641 0001:00047B99
   655 0001:00047BC6   656 0001:00047BCE   665 0001:00047BD8   666 0001:00047BE4
   669 0001:00047BF7   672 0001:00047C07   675 0001:00047C11   677 0001:00047C21
   679 0001:00047C30   684 0001:00047C40   685 0001:00047C54   690 0001:00047C6E
   694 0001:00047C88   697 0001:00047C92   700 0001:00047C9C   703 0001:00047CA6
   706 0001:00047CB0   711 0001:00047CBC   730 0001:00047CE1   733 0001:00047CEB
   736 0001:00047CF5   739 0001:00047CFF   742 0001:00047D09   768 0001:00047D13
   769 0001:00047D1D   782 0001:00047D24   783 0001:00047D33   786 0001:00047D5C
   791 0001:00047D62   792 0001:00047D93   795 0001:00047DB1   800 0001:00047DC8
   804 0001:00047DCD   810 0001:00047E11   819 0001:00047E20   820 0001:00047E2F
   823 0001:00047E46   824 0001:00047E64   837 0001:00047E6C   838 0001:00047E7B
   841 0001:00047E92   842 0001:00047EA2   845 0001:00047ED4   846 0001:00047EDA
   847 0001:00047EDF   851 0001:00047EE1   852 0001:00047F0A   856 0001:00047F47

Line numbers for ca_var(ca_var.pas) segment .text

   126 0001:00047F48   128 0001:00047F57   131 0001:00047F67   135 0001:00047F79
   138 0001:00047F95   148 0001:00047FC3   149 0001:00047FD4   153 0001:00048006
   154 0001:00048032   159 0001:0004806B   163 0001:00048088   172 0001:000480BE
   181 0001:000480C4   182 0001:000480D0   183 0001:000480ED   199 0001:000480F4
   200 0001:00048103   201 0001:00048119   218 0001:00048120   220 0001:0004812F
   223 0001:0004813F   227 0001:0004814F   228 0001:00048160   229 0001:00048185
   230 0001:000481AA   231 0001:000481CC   237 0001:000481DA   240 0001:00048214
   246 0001:0004823F   259 0001:00048248   260 0001:00048257   261 0001:0004826F
   270 0001:00048278   271 0001:00048284   272 0001:000482A1   285 0001:000482A8
   287 0001:000482B7   288 0001:000482C3   290 0001:000482DB   299 0001:000482E4
   300 0001:000482F0   301 0001:0004830D   314 0001:00048314   315 0001:00048323
   316 0001:0004833B   325 0001:00048344   327 0001:00048350   328 0001:0004836D
   350 0001:00048374   351 0001:00048383   352 0001:0004838C   355 0001:00048396
   366 0001:00048408   367 0001:0004842B   371 0001:0004843D   375 0001:00048451
   379 0001:0004848A   383 0001:00048495   384 0001:000484B2   352 0001:000484BB
   391 0001:000484C5   401 0001:000484CC   402 0001:000484DB   403 0001:00048503
   411 0001:0004850C   412 0001:0004851B   413 0001:00048541   421 0001:00048548
   422 0001:00048557   423 0001:0004857D   431 0001:00048584   432 0001:00048593
   433 0001:000485B9   437 0001:000485F7

Line numbers for ca_temp(ca_temp.pas) segment .text

    34 0001:000485F8    36 0001:0004860A    37 0001:00048611    40 0001:0004865A
    43 0001:0004866C    44 0001:00048674    45 0001:00048682    48 0001:0004868E
    49 0001:00048698    53 0001:000486DB

Line numbers for ca_block(ca_block.pas) segment .text

    44 0001:000486DC    46 0001:000486E8    49 0001:000486F8    50 0001:00048703
    73 0001:00048708    75 0001:00048717    86 0001:0004871C    88 0001:0004872B
    89 0001:00048744   100 0001:00048748   102 0001:00048757   103 0001:00048760
   114 0001:00048764   116 0001:00048773   127 0001:00048778   129 0001:00048787
   132 0001:000487A0   135 0001:000487B9   136 0001:000487D2   147 0001:000487D8
   149 0001:000487E7   170 0001:000487EC   172 0001:000487FB   176 0001:0004881D
   177 0001:00048835   181 0001:00048842   183 0001:00048852   184 0001:00048874
   185 0001:00048896   188 0001:000488BA   190 0001:000488C8   194 0001:000488D3
   198 0001:000488E5   201 0001:00048902   202 0001:0004890D   205 0001:00048923
   209 0001:0004892E   225 0001:0004898F   244 0001:00048A18   256 0001:00048A61
   270 0001:00048ACA   280 0001:00048B08   281 0001:00048B13   289 0001:00048B2A
   293 0001:00048B7A   296 0001:00048BB6   299 0001:00048BC4   302 0001:00048BE1
   303 0001:00048BEC   306 0001:00048C02   307 0001:00048C18   317 0001:00048C58
   318 0001:00048C6E   328 0001:00048CAE   431 0001:00048CE7   450 0001:00048D00
   452 0001:00048D0F   455 0001:00048D31   457 0001:00048D41   458 0001:00048D63
   461 0001:00048D74   464 0001:00048D82   467 0001:00048D9F   478 0001:00048DDF
   513 0001:00048EF4   524 0001:00048F04   526 0001:00048F13   537 0001:00048F18
   538 0001:00048F27   539 0001:00048F40   553 0001:00048F44   555 0001:00048F53
   558 0001:00048F5E   559 0001:00048F77   573 0001:00048F7C   575 0001:00048F8B
   578 0001:00048F96   579 0001:00048FAF   593 0001:00048FB4   595 0001:00048FC3
   598 0001:00048FCE   599 0001:00048FE7   610 0001:00048FEC   611 0001:00048FFB
   612 0001:00049014   623 0001:00049018   624 0001:00049027   625 0001:00049040
   639 0001:00049044   641 0001:00049053   642 0001:00049061   645 0001:00049064
   648 0001:0004907D   651 0001:00049096   654 0001:000490AF   657 0001:000490C8
   660 0001:000490E1   661 0001:000490FC   672 0001:00049100   674 0001:0004910F
   685 0001:00049114   687 0001:00049123   698 0001:00049128   699 0001:00049137
   700 0001:00049150   711 0001:00049154   712 0001:00049163   713 0001:0004917C
   724 0001:00049180   725 0001:0004918F   726 0001:000491A8   740 0001:000491AC
   742 0001:000491BB   745 0001:000491C6   746 0001:000491DF   757 0001:000491E4
   759 0001:000491F3   760 0001:000491FB   762 0001:00049205   765 0001:00049210
   768 0001:00049223   770 0001:00049295   771 0001:000492A8   772 0001:000492BB
   773 0001:000492CE   774 0001:000492E1   775 0001:000492F4   776 0001:00049307
   777 0001:0004931A   778 0001:0004932D   780 0001:00049340   781 0001:00049353
   782 0001:00049366   783 0001:00049379   784 0001:0004938C   785 0001:0004939F
   786 0001:000493AF   787 0001:000493BF   789 0001:000493CF   790 0001:000493DF
   791 0001:000493EF   792 0001:000493FF   794 0001:0004940F   795 0001:0004941F
   799 0001:0004942B   802 0001:0004943D   803 0001:0004945B   804 0001:00049463
   805 0001:00049483   808 0001:000494A1   760 0001:000494AA   813 0001:000494B4
   818 0001:000494C6   829 0001:000494CC   830 0001:000494D8   833 0001:000494EB
   836 0001:000494F0   839 0001:000494FB   840 0001:00049509   844 0001:00049547

Line numbers for ca_analyze(ca_analyze.pas) segment .text

    72 0001:00049548    74 0001:00049551    75 0001:0004955A    77 0001:00049564
    79 0001:00049570    81 0001:00049581    82 0001:0004959F    86 0001:000495B9
    88 0001:000495E8    89 0001:00049606    93 0001:00049620    94 0001:00049658
   100 0001:0004967B   102 0001:00049692   105 0001:000496AC   107 0001:000496DB
   108 0001:000496F5   114 0001:00049718   116 0001:00049723   119 0001:0004972B
   120 0001:00049746   121 0001:00049761   125 0001:0004977E   127 0001:00049786
   130 0001:0004978E   131 0001:000497AE   132 0001:000497CE   138 0001:000497EE
    75 0001:000497F7   152 0001:00049801   165 0001:0004980C   173 0001:00049815
   176 0001:0004981D   179 0001:0004982B   182 0001:00049850   185 0001:00049873
   188 0001:00049899   189 0001:000498AA   204 0001:000498B0   208 0001:000498B7
   213 0001:000498CE   214 0001:000498DD   218 0001:000498ED   223 0001:00049906
   225 0001:0004991F   231 0001:00049924   240 0001:0004992D   241 0001:00049950
   258 0001:0004995A   261 0001:00049968   264 0001:0004998D   267 0001:000499B0
   270 0001:000499D6   271 0001:000499E7   280 0001:000499EC   282 0001:000499F3
   283 0001:000499FF   285 0001:00049A07   300 0001:00049A0C   336 0001:00049A15
   339 0001:00049A23   340 0001:00049A35   341 0001:00049A3F   342 0001:00049A49
   346 0001:00049A55   347 0001:00049A71   354 0001:00049A9F   355 0001:00049AAB
   359 0001:00049ADA   363 0001:00049AFF   364 0001:00049B0B   368 0001:00049B36
   369 0001:00049B42   373 0001:00049B6D   377 0001:00049B90   380 0001:00049BB6
   381 0001:00049BC2   385 0001:00049BF0   386 0001:00049C07   392 0001:00049C35
   393 0001:00049C46   407 0001:00049C4C   409 0001:00049C55   412 0001:00049C5D
   413 0001:00049C87   414 0001:00049C9B   415 0001:00049CA5   416 0001:00049CAF
   417 0001:00049CB9   418 0001:00049CC7   419 0001:00049CDB   423 0001:00049CE3
   424 0001:00049CFF   425 0001:00049D13   426 0001:00049D1D   427 0001:00049D27
   428 0001:00049D31   429 0001:00049D3F   430 0001:00049D53   432 0001:00049D5B
   452 0001:00049D70   454 0001:00049D7C   457 0001:00049D92   458 0001:00049DC4
   459 0001:00049DD0   460 0001:00049DDA   461 0001:00049DE4   462 0001:00049DF2
   463 0001:00049E06   464 0001:00049E0E   465 0001:00049E2E   470 0001:00049E34
   472 0001:00049E3D   474 0001:00049E50   475 0001:00049E64   476 0001:00049E6B
   477 0001:00049E72   478 0001:00049E7C   479 0001:00049E99   480 0001:00049EAE
   483 0001:00049EB6   484 0001:00049ECA   485 0001:00049ED1   486 0001:00049ED8
   487 0001:00049EE2   488 0001:00049EFF   489 0001:00049F14   493 0001:00049F1C
   494 0001:00049F38   498 0001:00049F41   499 0001:00049F4F   503 0001:00049F58
   504 0001:00049F66   510 0001:00049F6F   523 0001:00049F84   525 0001:00049F8D
   528 0001:00049F9D   531 0001:00049FA7   533 0001:00049FB6   536 0001:00049FC0
   540 0001:00049FC8   541 0001:00049FDF   542 0001:00049FFA   540 0001:00049FFD
   545 0001:0004A002   546 0001:0004A010   547 0001:0004A019   548 0001:0004A01F
   552 0001:0004A027   554 0001:0004A031   555 0001:0004A039   547 0001:0004A042
   560 0001:0004A048   562 0001:0004A0A2   565 0001:0004A0AC   568 0001:0004A0B8
   571 0001:0004A0C2   574 0001:0004A0CC   577 0001:0004A0D6   580 0001:0004A0E0
   583 0001:0004A0EA   592 0001:0004A0F6   593 0001:0004A100   601 0001:0004A104
   602 0001:0004A10B   603 0001:0004A113   607 0001:0004A14F

Line numbers for c32_def(c32_def.pas) segment .text

   180 0001:0004A150   181 0001:0004A15F   187 0001:0004A16E   188 0001:0004A187
   191 0001:0004A196   192 0001:0004A1AF   193 0001:0004A1C8   195 0001:0004A1E1
   199 0001:0004A1EB   200 0001:0004A204   203 0001:0004A213   204 0001:0004A22C
   205 0001:0004A245   207 0001:0004A25E   211 0001:0004A268   212 0001:0004A281
   215 0001:0004A290   216 0001:0004A2A9   217 0001:0004A2C2   219 0001:0004A2D8
   220 0001:0004A2E2   224 0001:0004A31B

Line numbers for c32_uniop(c32_uniop.pas) segment .text

   155 0001:0004A31C   156 0001:0004A31E   168 0001:0004A320   169 0001:0004A322
   170 0001:0004A325   182 0001:0004A328   183 0001:0004A32A   184 0001:0004A32D
   193 0001:0004A330   194 0001:0004A332   195 0001:0004A335   204 0001:0004A338
   205 0001:0004A33A   206 0001:0004A33D   226 0001:0004A340   227 0001:0004A342
   228 0001:0004A345   240 0001:0004A348   241 0001:0004A34A   242 0001:0004A34D
   254 0001:0004A350   255 0001:0004A353   256 0001:0004A356   277 0001:0004A358
   278 0001:0004A35A   289 0001:0004A35C   290 0001:0004A35E   299 0001:0004A360
   300 0001:0004A362   301 0001:0004A364   310 0001:0004A368   311 0001:0004A36A
   320 0001:0004A36C   323 0001:0004A36D   324 0001:0004A36F   325 0001:0004A371
   326 0001:0004A373   334 0001:0004A374   335 0001:0004A380   336 0001:0004A392
   337 0001:0004A3AA   338 0001:0004A3B8   356 0001:0004A3BC   357 0001:0004A3BE
   358 0001:0004A3C0   367 0001:0004A3C4   368 0001:0004A3C6   369 0001:0004A3C8
   378 0001:0004A3CC   379 0001:0004A3D1   380 0001:0004A3D3   381 0001:0004A3D6
   390 0001:0004A3D8   391 0001:0004A3DD   392 0001:0004A3DF   393 0001:0004A3E2
   402 0001:0004A3E4   403 0001:0004A3E6   407 0001:0004A41F

Line numbers for cc_debug(cc_debug.pas) segment .text

   130 0001:0004A4EC   132 0001:0004A4FD   133 0001:0004A50B   137 0001:0004A531
   138 0001:0004A543   139 0001:0004A556   146 0001:0004A572   147 0001:0004A577
   151 0001:0004A5B7

Line numbers for ci_instr(ci_instr.pas) segment .text

  2203 0001:0004A60B

Line numbers for ci_struct(ci_struct.pas) segment .text

   150 0001:0004A643

Line numbers for ci_def(ci_def.pas) segment .text

   570 0001:0004A644   572 0001:0004A64A   573 0001:0004A659   575 0001:0004A65E
   576 0001:0004A670   577 0001:0004A683   578 0001:0004A6A4   579 0001:0004A6B6
   580 0001:0004A6B9   581 0001:0004A6C2   585 0001:0004A6FF

Line numbers for ci_reg(ci_reg.pas) segment .text

   189 0001:0004A700   190 0001:0004A70F   191 0001:0004A75F   192 0001:0004A763
   193 0001:0004A7BF   194 0001:0004A7D1   195 0001:0004A7E3   196 0001:0004A841
   197 0001:0004A860   198 0001:0004A872   199 0001:0004A884   200 0001:0004A896
   202 0001:0004A8A6   204 0001:0004A903   191 0001:0004A906   205 0001:0004A910
   206 0001:0004A91B   221 0001:0004A958   222 0001:0004A967   226 0001:0004A970
   227 0001:0004A976   232 0001:0004A983   233 0001:0004A987   234 0001:0004A996
   232 0001:0004A999   235 0001:0004A99F   236 0001:0004A9B9   240 0001:0004A9C1
   241 0001:0004A9D1   252 0001:0004A9D8   253 0001:0004A9E7   254 0001:0004A9F6
   266 0001:0004A9FC   267 0001:0004AA0B   270 0001:0004AA15   272 0001:0004AA41
   275 0001:0004AA61   276 0001:0004AA6B   277 0001:0004AA7E   278 0001:0004AA90
   279 0001:0004AA97   280 0001:0004AAA1   281 0001:0004AAB3   282 0001:0004AABA
   285 0001:0004AAD5   288 0001:0004AAE5   292 0001:0004AB01   294 0001:0004AB13
   297 0001:0004AB23   301 0001:0004AB3D   304 0001:0004AB4F   307 0001:0004AB5E
   310 0001:0004AB72   312 0001:0004AB87   325 0001:0004AB9C   326 0001:0004ABAB
   329 0001:0004ABCC   330 0001:0004ABD2   332 0001:0004ABE0   333 0001:0004ABE4
   335 0001:0004AC32   336 0001:0004AC3A   338 0001:0004AC3C   332 0001:0004AC3F
   341 0001:0004AC47   342 0001:0004AC4B   344 0001:0004AC99   345 0001:0004ACA1
   347 0001:0004ACA3   341 0001:0004ACA6   352 0001:0004ACAC   353 0001:0004ACB8
   355 0001:0004ACC5   356 0001:0004ACC9   358 0001:0004AD17   359 0001:0004AD1F
   361 0001:0004AD21   355 0001:0004AD24   364 0001:0004AD2A   366 0001:0004AD3D
   374 0001:0004AD44   375 0001:0004AD53   377 0001:0004AD5D   380 0001:0004AD7A
   383 0001:0004AD89   385 0001:0004AD9B   387 0001:0004ADAD   391 0001:0004ADBD
   394 0001:0004ADD5   398 0001:0004ADE7   400 0001:0004ADFC   411 0001:0004AE0C
   413 0001:0004AE1B   417 0001:0004AE43   420 0001:0004AE4E   423 0001:0004AE68
   424 0001:0004AE7F   427 0001:0004AE99   429 0001:0004AEAE   440 0001:0004AEC4
   441 0001:0004AED3   442 0001:0004AEE4   443 0001:0004AEF5   445 0001:0004AEFB
   446 0001:0004AF12   448 0001:0004AF2E   449 0001:0004AF36   457 0001:0004AF3C
   458 0001:0004AF4B   459 0001:0004AF54   460 0001:0004AF68   462 0001:0004AF85
   463 0001:0004AF8E   464 0001:0004AFA9   466 0001:0004AFC4   482 0001:0004AFC8
   483 0001:0004AFD1   484 0001:0004AFD6   485 0001:0004AFDA   486 0001:0004AFED
   484 0001:0004AFF0   487 0001:0004AFF9   501 0001:0004B000   502 0001:0004B011
   504 0001:0004B01B   508 0001:0004B040   509 0001:0004B053   512 0001:0004B065
   517 0001:0004B08A   519 0001:0004B0AA   524 0001:0004B0BF   525 0001:0004B0D2
   531 0001:0004B0FB   532 0001:0004B116   533 0001:0004B141   536 0001:0004B156
   537 0001:0004B169   538 0001:0004B18E   539 0001:0004B1B2   540 0001:0004B1D6
   546 0001:0004B1F6   547 0001:0004B20C   552 0001:0004B231   555 0001:0004B251
   556 0001:0004B26C   557 0001:0004B297   560 0001:0004B2AC   561 0001:0004B2E2
   564 0001:0004B302   565 0001:0004B315   566 0001:0004B32B   569 0001:0004B34D
   573 0001:0004B359   574 0001:0004B370   581 0001:0004B37C   583 0001:0004B38C
   584 0001:0004B395   585 0001:0004B3A8   587 0001:0004B3AE   588 0001:0004B3B7
   589 0001:0004B3CA   592 0001:0004B3DF   593 0001:0004B3E3   597 0001:0004B3E7
   600 0001:0004B41C   615 0001:0004B420   616 0001:0004B453   625 0001:0004B46F
   628 0001:0004B48C   629 0001:0004B49C   633 0001:0004B4BC   638 0001:0004B4C8
   642 0001:0004B4D6   645 0001:0004B4E2   600 0001:0004B4E5   648 0001:0004B4EF
   649 0001:0004B507   652 0001:0004B51F   653 0001:0004B528   655 0001:0004B546
   656 0001:0004B54F   657 0001:0004B56A   661 0001:0004B585   663 0001:0004B59A
   679 0001:0004B5B0   680 0001:0004B5BC   681 0001:0004B5CE   683 0001:0004B5E7
   684 0001:0004B5F1   685 0001:0004B607   686 0001:0004B61C   687 0001:0004B623
   688 0001:0004B62D   689 0001:0004B63F   690 0001:0004B646   693 0001:0004B667
   696 0001:0004B67A   698 0001:0004B69D   699 0001:0004B6B8   701 0001:0004B6BC
   702 0001:0004B6CB   703 0001:0004B6D4   705 0001:0004B702   706 0001:0004B70B
   707 0001:0004B736   711 0001:0004B761   713 0001:0004B776   717 0001:0004B7BF

Line numbers for ci_code(ci_code.pas) segment .text

   509 0001:0004B7C0   510 0001:0004B7CC   511 0001:0004B7D9   512 0001:0004B7E2
   521 0001:0004B7E8   522 0001:0004B7F7   523 0001:0004B801   526 0001:0004B80A
   527 0001:0004B825   529 0001:0004B84A   530 0001:0004B86E   532 0001:0004B890
   533 0001:0004B8B4   537 0001:0004B8D6   538 0001:0004B8F3   546 0001:0004B8FC
   547 0001:0004B90B   548 0001:0004B915   549 0001:0004B91E   550 0001:0004B93B
   558 0001:0004B944   559 0001:0004B953   560 0001:0004B95D   561 0001:0004B973
   562 0001:0004B988   563 0001:0004B991   571 0001:0004B998   572 0001:0004B9A7
   573 0001:0004B9B1   574 0001:0004B9BA   585 0001:0004B9C0   586 0001:0004B9CC
   587 0001:0004B9E0   588 0001:0004B9EB   589 0001:0004B9F9   597 0001:0004BA00
   598 0001:0004BA0F   599 0001:0004BA31   600 0001:0004BA58   601 0001:0004BA61
   614 0001:0004BA68   615 0001:0004BA74   616 0001:0004BA88   617 0001:0004BA93
   618 0001:0004BAA1   626 0001:0004BAA8   628 0001:0004BAB7   629 0001:0004BAC8
   633 0001:0004BAF7   634 0001:0004BB14   636 0001:0004BB1A   637 0001:0004BB35
   652 0001:0004BB3C   654 0001:0004BB4B   657 0001:0004BB5C   665 0001:0004BB62
   669 0001:0004BB75   670 0001:0004BB7F   675 0001:0004BB9A   676 0001:0004BBA4
   680 0001:0004BBC9   686 0001:0004BBD3   689 0001:0004BBDF   691 0001:0004BBE8
   693 0001:0004BBF4   695 0001:0004BBFE   706 0001:0004BC04   708 0001:0004BC13
   709 0001:0004BC1D   712 0001:0004BC23   715 0001:0004BC35   716 0001:0004BC61
   727 0001:0004BC68   729 0001:0004BC77   730 0001:0004BC81   733 0001:0004BC87
   736 0001:0004BC98   737 0001:0004BCB5   748 0001:0004BCBC   750 0001:0004BCCB
   751 0001:0004BCD5   752 0001:0004BCDC   753 0001:0004BCE0   756 0001:0004BCE6
   757 0001:0004BD03   768 0001:0004BD08   769 0001:0004BD17   770 0001:0004BD22
   771 0001:0004BD28   772 0001:0004BD39   773 0001:0004BD51   775 0001:0004BD5B
   776 0001:0004BD69   806 0001:0004BD70   808 0001:0004BD7F   811 0001:0004BD9B
   812 0001:0004BDA5   813 0001:0004BDA9   814 0001:0004BDAF   817 0001:0004BDB6
   820 0001:0004BDD1   824 0001:0004BDEE   835 0001:0004BDF4   837 0001:0004BE03
   838 0001:0004BE0D   839 0001:0004BE11   840 0001:0004BE17   843 0001:0004BE1E
   844 0001:0004BE28   847 0001:0004BE2F   850 0001:0004BE4A   851 0001:0004BE6A
   862 0001:0004BE70   864 0001:0004BE7F   865 0001:0004BE89   868 0001:0004BE94
   869 0001:0004BEB0   877 0001:0004BEB8   879 0001:0004BEC7   882 0001:0004BECD
   885 0001:0004BEEC   886 0001:0004BF01   899 0001:0004BF08   901 0001:0004BF17
   904 0001:0004BF1D   907 0001:0004BF3C   908 0001:0004BF51   919 0001:0004BF58
   921 0001:0004BF67   922 0001:0004BF71   923 0001:0004BF77   926 0001:0004BF89
   927 0001:0004BFA5   938 0001:0004BFAC   940 0001:0004BFBD   941 0001:0004BFCE
   944 0001:0004BFD5   947 0001:0004C002   948 0001:0004C028   959 0001:0004C030
   961 0001:0004C03F   964 0001:0004C05F   969 0001:0004C096   972 0001:0004C0A1
   975 0001:0004C0B3   978 0001:0004C0CE   980 0001:0004C0E3   988 0001:0004C0EC
   989 0001:0004C0F8   990 0001:0004C1D5   991 0001:0004C1E5   992 0001:0004C207
   993 0001:0004C22A   994 0001:0004C24D   997 0001:0004C29E  1000 0001:0004C2EF
  1001 0001:0004C318  1004 0001:0004C371  1005 0001:0004C396  1006 0001:0004C3BB
  1007 0001:0004C3E0  1008 0001:0004C405  1009 0001:0004C415  1010 0001:0004C435
  1011 0001:0004C455  1012 0001:0004C475  1013 0001:0004C4A7  1014 0001:0004C4D9
  1015 0001:0004C50B  1016 0001:0004C52B  1017 0001:0004C54B  1018 0001:0004C56B
  1019 0001:0004C58B  1020 0001:0004C5AB  1021 0001:0004C5D6  1022 0001:0004C601
  1023 0001:0004C623  1024 0001:0004C649  1025 0001:0004C66F  1026 0001:0004C678
  1027 0001:0004C681  1028 0001:0004C68A  1029 0001:0004C693  1030 0001:0004C6B3
  1031 0001:0004C6D3  1032 0001:0004C6F3  1033 0001:0004C703  1034 0001:0004C713
  1035 0001:0004C723  1036 0001:0004C743  1037 0001:0004C763  1038 0001:0004C780
  1039 0001:0004C79D  1040 0001:0004C7BA  1041 0001:0004C7D7  1042 0001:0004C7DD
  1043 0001:0004C7E3  1044 0001:0004C7E9  1045 0001:0004C7EF  1047 0001:0004C7F6
  1058 0001:0004C7FC  1059 0001:0004C80B  1060 0001:0004C842  1061 0001:0004C84D
  1062 0001:0004C8B3  1064 0001:0004C8D0  1065 0001:0004C8D9  1066 0001:0004C906
  1067 0001:0004C90A  1069 0001:0004C913  1070 0001:0004C93E  1072 0001:0004C988
  1073 0001:0004C98C  1074 0001:0004C992  1075 0001:0004C998  1076 0001:0004C9EB
  1078 0001:0004C9F8  1079 0001:0004CA28  1080 0001:0004CA81  1083 0001:0004CA9D
  1084 0001:0004CAA8  1085 0001:0004CADD  1087 0001:0004CB5B  1088 0001:0004CB8D
  1090 0001:0004CB99  1093 0001:0004CBFC  1094 0001:0004CC05  1096 0001:0004CC4A
  1097 0001:0004CC62  1099 0001:0004CCA7  1100 0001:0004CCB2  1101 0001:0004CCF7
  1103 0001:0004CD39  1104 0001:0004CD7B  1109 0001:0004CD87  1147 0001:0004CDE4
  1148 0001:0004CDF3  1152 0001:0004CE2F  1153 0001:0004CE45  1154 0001:0004CE50
  1155 0001:0004CE63  1156 0001:0004CE6E  1157 0001:0004CE79  1158 0001:0004CE84
  1165 0001:0004CE95  1166 0001:0004CE9E  1167 0001:0004CEBF  1171 0001:0004CECB
  1176 0001:0004CEE1  1177 0001:0004CEE7  1178 0001:0004CF00  1182 0001:0004CF0C
  1183 0001:0004CF12  1184 0001:0004CF46  1188 0001:0004CF52  1192 0001:0004CF5C
  1198 0001:0004CF6D  1199 0001:0004CF76  1200 0001:0004CF82  1205 0001:0004CF8E
  1206 0001:0004CFA8  1207 0001:0004CFAF  1208 0001:0004CFB6  1209 0001:0004CFEB
  1210 0001:0004CFF2  1211 0001:0004D016  1212 0001:0004D01D  1213 0001:0004D029
  1217 0001:0004D035  1218 0001:0004D03E  1219 0001:0004D045  1220 0001:0004D04C
  1221 0001:0004D073  1222 0001:0004D07A  1224 0001:0004D095  1225 0001:0004D0A1
  1229 0001:0004D0AD  1230 0001:0004D0BA  1232 0001:0004D0C3  1233 0001:0004D0CA
  1234 0001:0004D0D1  1235 0001:0004D0D8  1238 0001:0004D0E1  1239 0001:0004D0F7
  1241 0001:0004D0FE  1242 0001:0004D122  1243 0001:0004D129  1244 0001:0004D135
  1250 0001:0004D13E  1251 0001:0004D14A  1252 0001:0004D151  1253 0001:0004D158
  1260 0001:0004D161  1261 0001:0004D16D  1262 0001:0004D17E  1263 0001:0004D187
  1264 0001:0004D190  1265 0001:0004D199  1269 0001:0004D1A7  1271 0001:0004D1B3
  1275 0001:0004D1BC  1277 0001:0004D1CE  1278 0001:0004D1DF  1282 0001:0004D20E
  1283 0001:0004D221  1286 0001:0004D235  1289 0001:0004D23D  1291 0001:0004D259
  1293 0001:0004D275  1295 0001:0004D291  1297 0001:0004D2A3  1298 0001:0004D2B1
  1299 0001:0004D2BD  1301 0001:0004D366  1302 0001:0004D372  1304 0001:0004D377
  1305 0001:0004D37B  1309 0001:0004D380  1310 0001:0004D43F  1311 0001:0004D457
  1312 0001:0004D47B  1313 0001:0004D4B8  1314 0001:0004D526  1315 0001:0004D594
  1320 0001:0004D5C8  1325 0001:0004D5D4  1326 0001:0004D5E8  1327 0001:0004D600
  1331 0001:0004D606  1332 0001:0004D60E  1333 0001:0004D616  1334 0001:0004D622
  1335 0001:0004D642  1336 0001:0004D677  1337 0001:0004D68F  1340 0001:0004D6B3
  1341 0001:0004D6CF  1342 0001:0004D6F1  1344 0001:0004D713  1346 0001:0004D71F
  1347 0001:0004D738  1352 0001:0004D73C  1353 0001:0004D770  1354 0001:0004D776
  1355 0001:0004D7AC  1356 0001:0004D7E0  1357 0001:0004D7E9  1358 0001:0004D7EF
  1359 0001:0004D825  1363 0001:0004D859  1364 0001:0004D85F  1365 0001:0004D871
  1367 0001:0004D877  1368 0001:0004D87D  1369 0001:0004D88F  1371 0001:0004D895
  1372 0001:0004D89B  1373 0001:0004D8AD  1374 0001:0004D8C8  1376 0001:0004D8D3
  1377 0001:0004D8D9  1378 0001:0004D8EB  1379 0001:0004D906  1381 0001:0004D911
  1382 0001:0004D917  1383 0001:0004D929  1384 0001:0004D944  1388 0001:0004D94F
  1391 0001:0004D961  1404 0001:0004D96D  1406 0001:0004D9A9  1407 0001:0004D9DD
  1410 0001:0004DA11  1412 0001:0004DA3C  1425 0001:0004DA48  1427 0001:0004DA84
  1429 0001:0004DABB  1430 0001:0004DAC1  1431 0001:0004DAF5  1435 0001:0004DB29
  1439 0001:0004DB54  1440 0001:0004DB66  1442 0001:0004DB94  1443 0001:0004DBA6
  1446 0001:0004DBD1  1448 0001:0004DC15  1449 0001:0004DC27  1451 0001:0004DC55
  1452 0001:0004DC67  1453 0001:0004DC6D  1454 0001:0004DC98  1457 0001:0004DCC3
  1459 0001:0004DD07  1471 0001:0004DD30  1472 0001:0004DD37  1473 0001:0004DD41
  1474 0001:0004DD51  1475 0001:0004DD61  1481 0001:0004DD64  1482 0001:0004DD73
  1483 0001:0004DD86  1486 0001:0004DD9A  1489 0001:0004DDA2  1491 0001:0004DDBE
  1493 0001:0004DDDA  1495 0001:0004DDF6  1497 0001:0004DE04  1498 0001:0004DE0E
  1499 0001:0004DE1F  1500 0001:0004DE34  1501 0001:0004DE4C  1502 0001:0004DE62
  1504 0001:0004DE6C  1505 0001:0004DE70  1506 0001:0004DE75  1514 0001:0004DE7C
  1515 0001:0004DE85  1516 0001:0004DE91  1524 0001:0004DE98  1525 0001:0004DEA4
  1526 0001:0004DEB3  1527 0001:0004DEC4  1528 0001:0004DED5  1529 0001:0004DEE6
  1531 0001:0004DEF5  1540 0001:0004DEFC  1541 0001:0004DF0B  1542 0001:0004DF1B
  1761 0001:0004DF20  1762 0001:0004DF2C  1769 0001:0004DF3F  1786 0001:0004DF48
  1787 0001:0004DF51  1788 0001:0004DF56  1789 0001:0004DF7D  1795 0001:0004DF84
  1797 0001:0004DF93  1800 0001:0004DF9E  1805 0001:0004DFAF  1808 0001:0004DFCB
  1809 0001:0004DFE8  1812 0001:0004DFEE  1813 0001:0004E00B  1816 0001:0004E01C
  1803 0001:0004E02D  1820 0001:0004E042  1821 0001:0004E046  1822 0001:0004E06F
  1820 0001:0004E072  1847 0001:0004E078  1858 0001:0004E088  1860 0001:0004E097
  1861 0001:0004E09B  1862 0001:0004E0BC  1860 0001:0004E0BF  1869 0001:0004E0C5
  1870 0001:0004E0D0  1881 0001:0004E0D8  1882 0001:0004E0E4  1883 0001:0004E0E8
  1884 0001:0004E0EC  1885 0001:0004E118  1886 0001:0004E11C  1888 0001:0004E11E
  1883 0001:0004E121  1889 0001:0004E12A  1900 0001:0004E130  1902 0001:0004E13C
  1903 0001:0004E141  1904 0001:0004E145  1905 0001:0004E170  1903 0001:0004E173
  1906 0001:0004E17C  2006 0001:0004E180  2007 0001:0004E189  2008 0001:0004E191
  2009 0001:0004E19A  2011 0001:0004E1B7  2012 0001:0004E1C0  2013 0001:0004E1E4
  2015 0001:0004E20B  2023 0001:0004E214  2024 0001:0004E225  2025 0001:0004E259
  2026 0001:0004E26C  2028 0001:0004E275  2031 0001:0004E295  2032 0001:0004E29E
  2033 0001:0004E2BC  2036 0001:0004E2C6  2038 0001:0004E2CF  2040 0001:0004E2EF
  2050 0001:0004E30D  2058 0001:0004E318  2059 0001:0004E324  2060 0001:0004E334
  2061 0001:0004E342  2062 0001:0004E352  2064 0001:0004E35E  2065 0001:0004E365
  2073 0001:0004E36C  2074 0001:0004E37D  2076 0001:0004E390  2077 0001:0004E399
  2079 0001:0004E3BE  2080 0001:0004E3C7  2081 0001:0004E3EE  2083 0001:0004E415
  2092 0001:0004E420  2093 0001:0004E42F  2095 0001:0004E460  2096 0001:0004E46A
  2097 0001:0004E474  2098 0001:0004E480  2099 0001:0004E4A0  2104 0001:0004E4BE
  2112 0001:0004E4C4  2113 0001:0004E4D0  2114 0001:0004E4F5  2126 0001:0004E4FC
  2127 0001:0004E50B  2128 0001:0004E50F  2129 0001:0004E523  2131 0001:0004E539
  2127 0001:0004E53C  2132 0001:0004E542  2155 0001:0004E548  2156 0001:0004E557
  2159 0001:0004E581  2160 0001:0004E58F  2164 0001:0004E5BB  2165 0001:0004E5D4
  2166 0001:0004E5DC  2167 0001:0004E5E5  2168 0001:0004E5EE  2169 0001:0004E5F7
  2171 0001:0004E600  2172 0001:0004E606  2180 0001:0004E60C  2183 0001:0004E61B
  2184 0001:0004E629  2188 0001:0004E655  2189 0001:0004E66E  2190 0001:0004E688
  2191 0001:0004E6A2  2192 0001:0004E6BC  2193 0001:0004E6D6  2195 0001:0004E6DC
  2203 0001:0004E6E4  2206 0001:0004E6F0  2207 0001:0004E6FE  2211 0001:0004E72A
  2212 0001:0004E730  2213 0001:0004E73B  2215 0001:0004E74C  2223 0001:0004E750
  2225 0001:0004E762  2226 0001:0004E793  2228 0001:0004E7A3  2231 0001:0004E7F5
  2242 0001:0004E808  2244 0001:0004E817  2245 0001:0004E838  2247 0001:0004E84A
  2260 0001:0004E850  2262 0001:0004E85F  2265 0001:0004E86C  2268 0001:0004E886
  2270 0001:0004E89C  2271 0001:0004E8B3  2272 0001:0004E8BC  2273 0001:0004E8CA
  2277 0001:0004E8D5  2278 0001:0004E8DE  2281 0001:0004E8E8  2282 0001:0004E90C
  2283 0001:0004E920  2284 0001:0004E931  2288 0001:0004E93B  2289 0001:0004E94E
  2290 0001:0004E965  2291 0001:0004E97E  2292 0001:0004E995  2296 0001:0004E9A1
  2297 0001:0004E9AA  2300 0001:0004E9CC  2265 0001:0004E9CF  2301 0001:0004E9D8
  2318 0001:0004E9DC  2320 0001:0004E9EB  2323 0001:0004E9FA  2327 0001:0004EA05
  2333 0001:0004EA11  2336 0001:0004EA23  2337 0001:0004EA2C  2338 0001:0004EA3F
  2341 0001:0004EA57  2342 0001:0004EA63  2343 0001:0004EA6C  2344 0001:0004EA7A
  2345 0001:0004EA83  2349 0001:0004EA8C  2350 0001:0004EA95  2351 0001:0004EA9D
  2352 0001:0004EAA6  2355 0001:0004EAB2  2356 0001:0004EAC0  2367 0001:0004EAC8
  2369 0001:0004EAD7  2372 0001:0004EAF1  2373 0001:0004EB09  2385 0001:0004EB10
  2386 0001:0004EB1F  2391 0001:0004EB2B  2392 0001:0004EB36  2394 0001:0004EB58
  2396 0001:0004EB5E  2399 0001:0004EB6E  2404 0001:0004EB82  2405 0001:0004EB89
  2406 0001:0004EBB1  2407 0001:0004EBC7  2409 0001:0004EBDF  2463 0001:0004EBE8
  2464 0001:0004EBF7  2465 0001:0004EC0D  2473 0001:0004EC14  2475 0001:0004EC23
  2483 0001:0004EC28  2484 0001:0004EC34  2485 0001:0004EC41  2486 0001:0004EC58
  2491 0001:0004EC93

Line numbers for ci_util(ci_util.pas) segment .text

    65 0001:0004EC94    66 0001:0004ECA0    67 0001:0004ECA6    68 0001:0004ECAA
    69 0001:0004ECCA    70 0001:0004ECD2    72 0001:0004ECD4    67 0001:0004ECD7
    73 0001:0004ECDD    81 0001:0004ECE4    83 0001:0004ECEB    84 0001:0004ECF7
    86 0001:0004ED0F    97 0001:0004ED14    99 0001:0004ED20   102 0001:0004ED28
   105 0001:0004ED37   107 0001:0004ED41   110 0001:0004ED64   112 0001:0004EDA6
   113 0001:0004EDB4   114 0001:0004EDCF   116 0001:0004EDD9   133 0001:0004EDE3
   136 0001:0004EDF2   139 0001:0004EDFC   108 0001:0004EE04   142 0001:0004EE0E
   150 0001:0004EE18   151 0001:0004EE21   152 0001:0004EE2D   153 0001:0004EE33
   154 0001:0004EE45   167 0001:0004EE4C   168 0001:0004EE58   169 0001:0004EE5E
   170 0001:0004EE62   171 0001:0004EE82   172 0001:0004EE8A   174 0001:0004EE8C
   169 0001:0004EE8F   175 0001:0004EE95   185 0001:0004EE9C   187 0001:0004EEA8
   190 0001:0004EEB0   191 0001:0004EEBF   201 0001:0004EEC4   202 0001:0004EECD
   203 0001:0004EED9   204 0001:0004EEDF   205 0001:0004EEF1   209 0001:0004EF2F

Line numbers for c32_cpu(c32_cpu.pas) segment .text

   163 0001:0004EF30   165 0001:0004EF47   168 0001:0004EF5A   171 0001:0004EF6E
   174 0001:0004EF82   177 0001:0004EF96   178 0001:0004EFA8   181 0001:0004EFBA
   182 0001:0004EFCC   183 0001:0004EFE1   197 0001:0004EFE8   199 0001:0004EFF8
   202 0001:0004F003   203 0001:0004F01A   204 0001:0004F02B   206 0001:0004F03A
   210 0001:0004F044   213 0001:0004F052   216 0001:0004F058   217 0001:0004F06B
   221 0001:0004F080   222 0001:0004F0B2   226 0001:0004F0E5   238 0001:0004F128
   240 0001:0004F137   242 0001:0004F13E   241 0001:0004F141   243 0001:0004F19C
   246 0001:0004F1AD   247 0001:0004F1C1   250 0001:0004F1CC   251 0001:0004F1DA
   263 0001:0004F1E0   264 0001:0004F1F2   267 0001:0004F200   268 0001:0004F206
   269 0001:0004F22C   270 0001:0004F257   272 0001:0004F268   278 0001:0004F277
   279 0001:0004F27D   280 0001:0004F2A7   281 0001:0004F2CE   283 0001:0004F2DF
   287 0001:0004F2EB   291 0001:0004F2F7   294 0001:0004F311   295 0001:0004F32E
   307 0001:0004F338   309 0001:0004F34A   310 0001:0004F355   313 0001:0004F360
   316 0001:0004F373   317 0001:0004F381   320 0001:0004F38C   321 0001:0004F39E
   322 0001:0004F3AF   324 0001:0004F3EA   326 0001:0004F3F4   337 0001:0004F428
   338 0001:0004F437   339 0001:0004F447   340 0001:0004F455   341 0001:0004F460
   342 0001:0004F46B   350 0001:0004F470   352 0001:0004F482   353 0001:0004F48D
   354 0001:0004F49B   355 0001:0004F4A9   358 0001:0004F4B7   359 0001:0004F4C9
   360 0001:0004F4DA   362 0001:0004F515   364 0001:0004F51F   372 0001:0004F550
   373 0001:0004F560   377 0001:0004F57E   380 0001:0004F58B   383 0001:0004F598
   384 0001:0004F5C9   390 0001:0004F600   393 0001:0004F60D   396 0001:0004F61A
   397 0001:0004F63C   403 0001:0004F661   406 0001:0004F66E   409 0001:0004F67B
   410 0001:0004F68E   413 0001:0004F6A1   421 0001:0004F6A8   423 0001:0004F6B9
   426 0001:0004F6CD   427 0001:0004F6E1   435 0001:0004F6EC   437 0001:0004F6FB
   440 0001:0004F706   443 0001:0004F71D   446 0001:0004F738   447 0001:0004F757
   455 0001:0004F760   457 0001:0004F76F   460 0001:0004F786   461 0001:0004F796
   464 0001:0004F7B1   465 0001:0004F7D0   476 0001:0004F7D8   478 0001:0004F7E7
   481 0001:0004F7FA   482 0001:0004F7FE   483 0001:0004F824   481 0001:0004F827
   489 0001:0004F82D   497 0001:0004F834   498 0001:0004F844   499 0001:0004F85E
   507 0001:0004F864   508 0001:0004F873   509 0001:0004F880   510 0001:0004F88B
   534 0001:0004F890   536 0001:0004F8A0   539 0001:0004F8D1   541 0001:0004F8E0
   542 0001:0004F8EE   543 0001:0004F8F9   546 0001:0004F904   549 0001:0004F937
   553 0001:0004F946   554 0001:0004F952   561 0001:0004F958   563 0001:0004F968
   566 0001:0004F99E   567 0001:0004F9C4   571 0001:0004F9DF   576 0001:0004F9EE
   579 0001:0004F9F3   580 0001:0004FA02   581 0001:0004FA10   582 0001:0004FA20
   586 0001:0004FA24   589 0001:0004FA34   590 0001:0004FA44   593 0001:0004FA65
   594 0001:0004FAA0   596 0001:0004FAA7   597 0001:0004FACF   598 0001:0004FAE3
   599 0001:0004FAEC   595 0001:0004FAF2   605 0001:0004FB08   608 0001:0004FB0D
   609 0001:0004FB1C   611 0001:0004FB27   614 0001:0004FB31   615 0001:0004FB57
   616 0001:0004FB67   620 0001:0004FB6B   623 0001:0004FB7B   626 0001:0004FB8B
   627 0001:0004FBAA   630 0001:0004FBB8   632 0001:0004FBEC   633 0001:0004FBFA
   634 0001:0004FC0B   635 0001:0004FC19   636 0001:0004FC27   640 0001:0004FC3D
   641 0001:0004FC4C   642 0001:0004FC61   630 0001:0004FC64   645 0001:0004FC6D
   646 0001:0004FC80   647 0001:0004FC9F   648 0001:0004FCB2   649 0001:0004FCC0
   659 0001:0004FCDB   661 0001:0004FD09   664 0001:0004FD1B   667 0001:0004FD2D
   668 0001:0004FD51   659 0001:0004FD54   677 0001:0004FD5E   680 0001:0004FD6E
   681 0001:0004FD8C   682 0001:0004FDA6   683 0001:0004FDD3   685 0001:0004FE02
   686 0001:0004FE0D   687 0001:0004FE18   684 0001:0004FE26   689 0001:0004FE35
   681 0001:0004FE38   693 0001:0004FE43   695 0001:0004FE57   697 0001:0004FE63
   717 0001:0004FE6C   719 0001:0004FE70   721 0001:0004FE82   725 0001:0004FE99
   727 0001:0004FEA7   730 0001:0004FEB4   733 0001:0004FEE6   735 0001:0004FEF2
   737 0001:0004FEF8   738 0001:0004FF08   743 0001:0004FF1B   746 0001:0004FF22
   752 0001:0004FF54   755 0001:0004FF75   758 0001:0004FF7C   759 0001:0004FF87
   764 0001:0004FF94   765 0001:0004FFAD   768 0001:0004FFC4   779 0001:0004FFCC
   781 0001:0004FFDE   782 0001:0004FFEA   783 0001:0004FFFB   785 0001:00050019
   789 0001:00050023   790 0001:0005002E   791 0001:00050034   792 0001:00050045
   794 0001:00050052   798 0001:0005005C   799 0001:00050067   811 0001:0005006C
   812 0001:0005007B   813 0001:00050086   814 0001:00050091   815 0001:0005009C
   819 0001:000500D7

Line numbers for cl_def(cl_def.pas) segment .text

   133 0001:000500D8   134 0001:000500EF   135 0001:00050107   136 0001:00050122
   137 0001:0005013D   138 0001:00050158   139 0001:00050173   140 0001:0005018E
   141 0001:000501AC   267 0001:000501E7

Line numbers for cl_util(cl_util.pas) segment .text

   106 0001:000501E8   107 0001:000501F5   108 0001:000501FF   109 0001:00050222
   110 0001:00050228   111 0001:00050238   112 0001:00050248   109 0001:0005024E
   114 0001:00050254   126 0001:0005025C   127 0001:0005026B   128 0001:00050275
   129 0001:0005028F   130 0001:0005029B   131 0001:000502A1   132 0001:000502B1
   133 0001:000502C1   130 0001:000502C7   135 0001:000502CD   146 0001:000502D4
   147 0001:000502E0   148 0001:000502E6   149 0001:000502F6   150 0001:00050306
   147 0001:0005030C   152 0001:00050312   160 0001:00050318   162 0001:0005031F
   163 0001:00050326   164 0001:0005032E   167 0001:00050336   168 0001:00050352
   192 0001:0005035C   194 0001:00050369   199 0001:00050370   200 0001:000503B2
   201 0001:000503B8   205 0001:000503BA   208 0001:000503D6   196 0001:000503D9
   212 0001:000503E4   213 0001:000503EE   224 0001:000503F4   225 0001:00050403
   226 0001:00050409   227 0001:00050413   229 0001:0005042F   230 0001:0005043A
   231 0001:0005045B   244 0001:00050460   246 0001:0005046C   247 0001:0005047A
   250 0001:00050484   251 0001:0005049B   254 0001:000504C5   257 0001:000504CE
   258 0001:000504E2   259 0001:000504F9   260 0001:000504FF   257 0001:00050502
   263 0001:00050507   264 0001:00050516   265 0001:0005051F   272 0001:00050524
   273 0001:0005052D   274 0001:00050539   292 0001:00050540   294 0001:0005054C
   295 0001:0005055F   299 0001:0005059B

Line numbers for cl_map(cl_map.pas) segment .text

    73 0001:0005059C    74 0001:000505A8    75 0001:000505C6    76 0001:000505CB
    85 0001:000505DC    86 0001:000505E1    94 0001:000505E4    95 0001:000505F7
    96 0001:00050651   108 0001:00050668   109 0001:00050677   110 0001:0005067D
   111 0001:000506BD   112 0001:000506FE   114 0001:0005070C   115 0001:0005071F
   116 0001:00050778   124 0001:00050794   126 0001:000507A4   127 0001:000507DF
   128 0001:000507E4   142 0001:000507F8   144 0001:00050808   145 0001:0005080F
   146 0001:00050814   148 0001:0005082D   150 0001:00050853   151 0001:0005088E
   155 0001:000508A0   156 0001:000508B6   157 0001:000508C1   158 0001:00050958
   146 0001:0005095B   159 0001:00050964   168 0001:00050984   169 0001:00050989
   177 0001:0005098C   178 0001:00050998   179 0001:000509B6   180 0001:000509BB
   188 0001:000509CC   189 0001:000509DF   190 0001:00050A1E   199 0001:00050A38
   200 0001:00050A3D   204 0001:00050A77

Line numbers for cl_codeview_type(cl_codeview_type.pas) segment .text

   563 0001:00050A78   565 0001:00050A84   566 0001:00050A96   569 0001:00050AA5
   570 0001:00050AB3   573 0001:00050AB9   574 0001:00050AC7   575 0001:00050ADE
   576 0001:00050AF2   577 0001:00050B00   590 0001:00050B04   592 0001:00050B13
   593 0001:00050B1B   595 0001:00050B24   596 0001:00050B2D   607 0001:00050B34
   609 0001:00050B43   610 0001:00050B47   613 0001:00050B4E   614 0001:00050B57
   616 0001:00050B5D   617 0001:00050B67   618 0001:00050B6F   619 0001:00050B73
   623 0001:00050B78   614 0001:00050B81   627 0001:00050B87   628 0001:00050B8F
   629 0001:00050BA1   630 0001:00050BB0   631 0001:00050BB9   633 0001:00050BC3
   634 0001:00050BD1   635 0001:00050BE8   636 0001:00050BF3   638 0001:00050C07
   640 0001:00050C0E   650 0001:00050C14   652 0001:00050C1C   655 0001:00050C22
   656 0001:00050C2F   657 0001:00050C3B   658 0001:00050C48   661 0001:00050C53
   662 0001:00050C60   663 0001:00050C6D   664 0001:00050C7A   665 0001:00050C87
   666 0001:00050C94   667 0001:00050CA1   670 0001:00050CAC   671 0001:00050CB7
   672 0001:00050CC2   673 0001:00050CCE   674 0001:00050CDE   692 0001:00050CE4
   694 0001:00050CF3   695 0001:00050CF9   698 0001:00050D00   701 0001:00050D07
   704 0001:00050D17   705 0001:00050D2C   706 0001:00050D34   707 0001:00050D3C
   708 0001:00050D44   711 0001:00050D4C   716 0001:00050D53   717 0001:00050D5A
   735 0001:00050D60   737 0001:00050D6F   738 0001:00050D75   739 0001:00050D7C
   742 0001:00050D83   745 0001:00050D93   746 0001:00050DA8   747 0001:00050DB0
   748 0001:00050DB8   749 0001:00050DC0   752 0001:00050DC8   757 0001:00050DCF
   758 0001:00050DD6   776 0001:00050DDC   778 0001:00050DEB   779 0001:00050DF1
   780 0001:00050DF8   783 0001:00050DFF   786 0001:00050E0F   787 0001:00050E4D
   788 0001:00050E55   789 0001:00050E5D   790 0001:00050E65   791 0001:00050E6D
   794 0001:00050E75   799 0001:00050E7C   800 0001:00050E83   818 0001:00050E8C
   820 0001:00050E9B   821 0001:00050EA1   822 0001:00050EA8   825 0001:00050EAF
   828 0001:00050EBF   829 0001:00050ED4   830 0001:00050EDC   831 0001:00050EE4
   832 0001:00050EEC   835 0001:00050EF4   840 0001:00050EFB   841 0001:00050F02
   859 0001:00050F08   861 0001:00050F17   862 0001:00050F1D   863 0001:00050F24
   866 0001:00050F2B   869 0001:00050F3B   870 0001:00050F50   871 0001:00050F58
   872 0001:00050F60   873 0001:00050F68   876 0001:00050F70   881 0001:00050F77
   882 0001:00050F7E   900 0001:00050F84   902 0001:00050F93   903 0001:00050F99
   904 0001:00050FA0   907 0001:00050FA7   910 0001:00050FB7   911 0001:00050FCC
   912 0001:00050FD4   913 0001:00050FDC   914 0001:00050FE4   917 0001:00050FEC
   922 0001:00050FF3   923 0001:00050FFA  1076 0001:00051000  1078 0001:00051011
  1079 0001:00051023  1080 0001:00051032  1081 0001:0005103E  1082 0001:00051044
  1083 0001:0005104A  1088 0001:00051051  1089 0001:00051063  1090 0001:00051070
  1091 0001:0005107D  1092 0001:00051091  1093 0001:000510A0  1096 0001:000510AA
  1097 0001:000510B6  1098 0001:000510D3  1101 0001:000510DC  1102 0001:000510EE
  1105 0001:000510FB  1106 0001:00051102  1107 0001:00051108  1110 0001:00051111
  1115 0001:0005111C  1116 0001:0005112E  1117 0001:0005113B  1118 0001:00051148
  1119 0001:00051188  1120 0001:00051197  1123 0001:000511A1  1124 0001:000511B3
  1125 0001:000511C0  1128 0001:000511CA  1129 0001:000511D6  1130 0001:000511F3
  1133 0001:000511FC  1134 0001:00051208  1135 0001:00051225  1138 0001:0005122E
  1139 0001:0005123A  1142 0001:00051254  1143 0001:0005126C  1147 0001:00051286
  1148 0001:00051298  1149 0001:000512A5  1150 0001:000512AC  1151 0001:000512B3
  1152 0001:000512BA  1155 0001:000512C3  1158 0001:000512CC  1159 0001:000512DE
  1162 0001:000512EB  1163 0001:000512F2  1164 0001:000512F8  1167 0001:00051301
  1172 0001:0005130C  1173 0001:0005131F  1176 0001:00051332  1177 0001:00051340
  1178 0001:0005135A  1181 0001:00051363  1182 0001:0005136F  1183 0001:00051376
  1205 0001:00051398  1207 0001:000513A9  1208 0001:000513BB  1209 0001:000513CA
  1210 0001:000513D6  1211 0001:000513DC  1212 0001:000513E2  1217 0001:000513E9
  1218 0001:000513FB  1219 0001:00051408  1220 0001:00051415  1221 0001:00051429
  1222 0001:00051438  1225 0001:00051442  1226 0001:0005144E  1227 0001:0005146B
  1230 0001:00051474  1231 0001:00051486  1234 0001:00051493  1235 0001:0005149A
  1236 0001:000514A0  1239 0001:000514A9  1244 0001:000514B4  1245 0001:000514C6
  1246 0001:000514D3  1247 0001:000514E0  1248 0001:00051520  1249 0001:0005152F
  1252 0001:00051539  1253 0001:0005154B  1254 0001:00051558  1257 0001:00051562
  1258 0001:0005156E  1259 0001:0005158B  1262 0001:00051594  1263 0001:000515A0
  1264 0001:000515BD  1267 0001:000515C6  1268 0001:000515D2  1271 0001:000515EC
  1272 0001:00051604  1276 0001:0005161E  1277 0001:00051630  1278 0001:0005163D
  1279 0001:00051644  1280 0001:0005164B  1281 0001:00051652  1284 0001:0005165B
  1287 0001:00051664  1288 0001:00051676  1291 0001:00051683  1292 0001:0005168A
  1293 0001:00051690  1296 0001:00051699  1301 0001:000516A4  1302 0001:000516B7
  1305 0001:000516CA  1306 0001:000516D8  1307 0001:000516F2  1310 0001:000516FB
  1311 0001:00051707  1312 0001:0005170E  1331 0001:00051730  1333 0001:0005173F
  1334 0001:00051751  1335 0001:00051760  1336 0001:0005176C  1337 0001:00051772
  1338 0001:00051778  1341 0001:0005177F  1342 0001:0005178B  1343 0001:000517A8
  1346 0001:000517B3  1347 0001:000517BF  1348 0001:000517DC  1351 0001:000517E7
  1354 0001:00051801  1357 0001:00051828  1358 0001:00051834  1359 0001:0005183B
  1378 0001:00051844  1380 0001:00051853  1381 0001:00051865  1382 0001:00051874
  1383 0001:00051880  1384 0001:00051886  1385 0001:0005188C  1388 0001:00051893
  1389 0001:0005189F  1390 0001:000518BC  1393 0001:000518C7  1394 0001:000518D3
  1395 0001:000518F0  1398 0001:000518FB  1401 0001:0005190D  1404 0001:00051934
  1405 0001:00051940  1406 0001:00051947  1443 0001:00051950  1445 0001:0005195F
  1446 0001:00051971  1449 0001:0005197E  1450 0001:00051990  1451 0001:0005199F
  1452 0001:000519AE  1456 0001:000519BB  1457 0001:000519C4  1458 0001:000519FB
  1459 0001:00051A24  1462 0001:00051A2E  1463 0001:00051A40  1466 0001:00051A4F
  1467 0001:00051A58  1468 0001:00051A60  1469 0001:00051A6B  1473 0001:00051A80
  1475 0001:00051A8F  1476 0001:00051AA1  1477 0001:00051AB0  1478 0001:00051ABC
  1479 0001:00051AC2  1480 0001:00051AC8  1483 0001:00051ACF  1484 0001:00051AD8
  1486 0001:00051AE2  1487 0001:00051AEE  1490 0001:00051AFE  1492 0001:00051B1A
  1495 0001:00051B3D  1498 0001:00051B50  1499 0001:00051B5E  1500 0001:00051B77
  1501 0001:00051B82  1506 0001:00051B98  1484 0001:00051BA1  1510 0001:00051BAB
  1511 0001:00051BB9  1513 0001:00051BCF  1515 0001:00051BE5  1519 0001:00051C08
  1521 0001:00051C14  1522 0001:00051C1F  1527 0001:00051C32  1534 0001:00051C48
  1537 0001:00051C5B  1538 0001:00051C69  1539 0001:00051C82  1540 0001:00051C8D
  1551 0001:00051CA3  1552 0001:00051CB1  1553 0001:00051CCB  1554 0001:00051CD4
  1556 0001:00051CDF  1557 0001:00051CF2  1560 0001:00051CFE  1561 0001:00051D05
  1598 0001:00051D10  1600 0001:00051D1F  1601 0001:00051D31  1604 0001:00051D3E
  1605 0001:00051D50  1606 0001:00051D5F  1607 0001:00051D6E  1611 0001:00051D7B
  1612 0001:00051D84  1613 0001:00051DBB  1614 0001:00051DE4  1617 0001:00051DEE
  1618 0001:00051E00  1621 0001:00051E0F  1622 0001:00051E18  1623 0001:00051E20
  1624 0001:00051E2B  1628 0001:00051E40  1630 0001:00051E4F  1631 0001:00051E61
  1632 0001:00051E70  1633 0001:00051E7C  1634 0001:00051E82  1635 0001:00051E88
  1638 0001:00051E8F  1639 0001:00051E98  1641 0001:00051EA2  1642 0001:00051EAE
  1645 0001:00051EBE  1647 0001:00051EDA  1650 0001:00051EFD  1653 0001:00051F10
  1654 0001:00051F1E  1655 0001:00051F37  1656 0001:00051F42  1661 0001:00051F58
  1639 0001:00051F61  1665 0001:00051F6B  1666 0001:00051F79  1668 0001:00051F94
  1670 0001:00051FAA  1674 0001:00051FCD  1676 0001:00051FDC  1677 0001:00051FE7
  1682 0001:00051FFA  1689 0001:00052010  1692 0001:00052023  1693 0001:00052031
  1694 0001:0005204A  1695 0001:00052055  1708 0001:0005206B  1709 0001:00052079
  1710 0001:00052093  1711 0001:0005209C  1713 0001:000520A7  1714 0001:000520BA
  1717 0001:000520C6  1718 0001:000520CD  1739 0001:000520D8  1741 0001:000520E7
  1742 0001:000520F9  1743 0001:00052108  1744 0001:00052114  1745 0001:0005211A
  1746 0001:00052120  1749 0001:00052127  1752 0001:00052137  1753 0001:00052140
  1755 0001:0005214A  1757 0001:00052156  1758 0001:00052168  1761 0001:00052175
  1762 0001:00052187  1763 0001:00052196  1764 0001:000521A5  1768 0001:000521B2
  1769 0001:000521C2  1770 0001:000521CB  1771 0001:000521D4  1773 0001:000521DD
  1778 0001:000521E4  1779 0001:000521F7  1780 0001:0005221A  1783 0001:00052224
  1784 0001:00052236  1787 0001:00052243  1788 0001:0005224A  1789 0001:00052250
  1792 0001:00052259  1793 0001:00052267  1794 0001:00052280  1795 0001:0005228B
  1799 0001:000522A1  1753 0001:000522AA  1803 0001:000522B4  1804 0001:000522C4
  1805 0001:000522D2  1806 0001:000522E0  1809 0001:000522EC  1810 0001:000522F5
  1812 0001:00052300  1815 0001:00052313  1816 0001:0005231F  1817 0001:00052326
  1841 0001:00052338  1843 0001:0005234A  1844 0001:0005235C  1845 0001:0005236B
  1846 0001:00052377  1847 0001:0005237D  1848 0001:00052383  1851 0001:0005238A
  1854 0001:0005239A  1855 0001:000523A7  1858 0001:000523B0  1860 0001:000523C7
  1861 0001:000523D9  1864 0001:000523E9  1865 0001:000523FB  1867 0001:00052408
  1868 0001:0005240F  1869 0001:00052418  1872 0001:0005241F  1873 0001:00052448
  1876 0001:00052451  1877 0001:00052463  1878 0001:00052470  1879 0001:00052477
  1880 0001:0005247E  1881 0001:00052485  1884 0001:0005248E  1885 0001:000524A0
  1888 0001:000524AD  1889 0001:000524BA  1890 0001:000524C8  1891 0001:000524E7
  1892 0001:000524F1  1895 0001:000524FA  1896 0001:0005250C  1899 0001:00052519
  1900 0001:00052520  1901 0001:00052526  1902 0001:0005252F  1858 0001:00052532
  1905 0001:0005253B  1906 0001:00052549  1907 0001:00052563  1908 0001:0005256C
  1910 0001:00052577  1911 0001:0005258A  1914 0001:00052596  1915 0001:0005259D
  1934 0001:000525AC  1936 0001:000525BB  1937 0001:000525CD  1938 0001:000525DC
  1939 0001:000525E5  1940 0001:000525EB  1941 0001:000525F1  1944 0001:000525F8
  1945 0001:00052604  1947 0001:0005261C  1951 0001:00052621  1952 0001:0005262C
  1953 0001:00052635  1954 0001:0005263E  1955 0001:00052647  1956 0001:00052650
  1957 0001:00052665  1958 0001:0005266E  1961 0001:00052677  1966 0001:00052685
  1967 0001:0005268E  1968 0001:00052695  1981 0001:000526A0  1982 0001:000526AF
  2005 0001:000526B8  2007 0001:000526C7  2008 0001:000526D9  2009 0001:000526E8
  2010 0001:000526F1  2011 0001:000526F7  2012 0001:000526FD  2015 0001:00052704
  2017 0001:0005270D  2019 0001:00052717  2021 0001:00052723  2023 0001:0005272F
  2024 0001:0005273B  2029 0001:00052757  2030 0001:00052769  2031 0001:00052776
  2032 0001:0005277D  2033 0001:00052784  2041 0001:00052790  2042 0001:0005279C
  2044 0001:000527B4  2048 0001:000527B9  2050 0001:000527CC  2051 0001:000527DE
  2052 0001:000527EB  2053 0001:000527F2  2054 0001:000527F9  2057 0001:00052800
  2058 0001:00052815  2059 0001:00052825  2062 0001:0005282F  2063 0001:00052835
  2067 0001:0005283E  2068 0001:0005284A  2069 0001:00052854  2070 0001:0005285E
  2071 0001:00052868  2072 0001:00052872  2073 0001:0005287C  2074 0001:00052886
  2078 0001:00052892  2084 0001:0005289B  2085 0001:000528AD  2088 0001:000528BA
  2091 0001:000528C2  2092 0001:000528D0  2093 0001:000528E9  2094 0001:000528F4
  2098 0001:0005290A  2017 0001:00052913  2102 0001:0005291D  2103 0001:00052926
  2105 0001:00052940  2106 0001:00052952  2107 0001:0005296A  2112 0001:00052971
  2116 0001:00052976  2119 0001:00052981  2120 0001:0005298A  2121 0001:00052991
  2132 0001:00052998  2134 0001:000529A4  2135 0001:000529AB  2136 0001:000529C0
  2139 0001:000529D6  2140 0001:000529DD  2167 0001:000529E4  2169 0001:000529F3
  2170 0001:000529FA  2171 0001:00052A08  2172 0001:00052A19  2175 0001:00052A2F
  2178 0001:00052A36  2179 0001:00052A42  2180 0001:00052A51  2182 0001:00052A57
  2185 0001:00052A60  2186 0001:00052A6E  2189 0001:00052A81  2190 0001:00052A93
  2191 0001:00052A9B  2194 0001:00052AB1  2180 0001:00052ABA  2197 0001:00052AC0
  2198 0001:00052ACC  2200 0001:00052AD6  2201 0001:00052ADF  2204 0001:00052B01
  2205 0001:00052B0F  2207 0001:00052B1B  2211 0001:00052B22  2214 0001:00052B31
  2215 0001:00052B3F  2218 0001:00052B52  2219 0001:00052B64  2220 0001:00052B6C
  2223 0001:00052B82  2198 0001:00052B8B  2229 0001:00052B95  2230 0001:00052BA5
  2231 0001:00052BB0  2232 0001:00052BB5  2233 0001:00052BC5  2234 0001:00052BDA
  2236 0001:00052BE0  2239 0001:00052BEB  2242 0001:00052BF7  2247 0001:00052C10
  2249 0001:00052C1C  2245 0001:00052C25  2255 0001:00052C33  2256 0001:00052C4B
  2259 0001:00052C50  2262 0001:00052C59  2263 0001:00052C68  2264 0001:00052C7E
  2265 0001:00052C99  2268 0001:00052C9E  2269 0001:00052CAC  2270 0001:00052CB5
  2271 0001:00052CCB  2274 0001:00052CD2  2275 0001:00052CEA  2276 0001:00052D02
  2280 0001:00052D07  2281 0001:00052D24  2284 0001:00052D34  2285 0001:00052D4B
  2286 0001:00052D52  2287 0001:00052D5E  2288 0001:00052D74  2289 0001:00052D78
  2286 0001:00052D7B  2292 0001:00052D81  2293 0001:00052D8A  2253 0001:00052D93
  2297 0001:00052DA5  2298 0001:00052DB1  2300 0001:00052DBB  2301 0001:00052DD3
  2304 0001:00052DD8  2307 0001:00052DE1  2308 0001:00052DF0  2309 0001:00052E06
  2310 0001:00052E21  2313 0001:00052E26  2314 0001:00052E34  2315 0001:00052E3D
  2316 0001:00052E53  2319 0001:00052E5A  2320 0001:00052E72  2321 0001:00052E8A
  2325 0001:00052E8F  2326 0001:00052EAC  2329 0001:00052EBC  2330 0001:00052ED3
  2331 0001:00052EDA  2332 0001:00052EE6  2333 0001:00052EFC  2334 0001:00052F00
  2331 0001:00052F03  2337 0001:00052F09  2338 0001:00052F12  2298 0001:00052F1B
  2342 0001:00052F25  2346 0001:00052F37  2347 0001:00052F48  2348 0001:00052F5F
  2349 0001:00052F78  2352 0001:00052F8F  2353 0001:00052F95  2354 0001:00052FA6
  2355 0001:00052FB7  2356 0001:00052FC8  2357 0001:00052FD9  2358 0001:00052FEA
  2359 0001:00052FFB  2360 0001:0005300C  2363 0001:0005301A  2364 0001:0005302A
  2366 0001:00053035  2367 0001:0005303A  2368 0001:0005304A  2369 0001:00053060
  2370 0001:00053076  2371 0001:0005308F  2372 0001:000530A2  2373 0001:000530AB
  2374 0001:000530BE  2377 0001:000530E0  2378 0001:000530F5  2379 0001:00053108
  2383 0001:00053128  2386 0001:0005313A  2387 0001:00053141  2405 0001:00053148
  2407 0001:00053154  2408 0001:0005315B  2409 0001:0005316C  2412 0001:00053182
  2413 0001:00053193  2415 0001:000531A2  2419 0001:000531A9  2422 0001:000531BD
  2423 0001:000531CE  2425 0001:000531DD  2429 0001:000531E4  2432 0001:000531F9
  2435 0001:00053209  2436 0001:0005321A  2439 0001:0005322D  2440 0001:00053235
  2443 0001:0005324B  2444 0001:0005325B  2447 0001:00053266  2448 0001:0005326B
  2449 0001:0005327B  2450 0001:00053291  2451 0001:000532A7  2452 0001:000532C0
  2453 0001:000532C9  2454 0001:000532DC  2457 0001:000532FE  2458 0001:00053313
  2459 0001:00053326  2463 0001:00053346  2466 0001:00053358  2467 0001:0005335F
  2486 0001:00053364  2488 0001:00053370  2489 0001:00053377  2490 0001:00053388
  2494 0001:0005339E  2495 0001:000533AA  2496 0001:000533BB  2498 0001:000533CA
  2500 0001:000533D1  2503 0001:000533E2  2507 0001:000533EC  2508 0001:000533F3
  2511 0001:000533FB  2512 0001:00053400  2513 0001:0005344E  2514 0001:00053456
  2515 0001:0005345B  2516 0001:00053461  2517 0001:00053467  2518 0001:0005346D
  2519 0001:00053473  2520 0001:00053479  2521 0001:0005347F  2522 0001:00053485
  2523 0001:0005348B  2524 0001:00053491  2525 0001:00053497  2528 0001:0005349B
  2529 0001:000534B4  2530 0001:000534BA  2531 0001:000534C0  2532 0001:000534C6
  2535 0001:000534CA  2536 0001:000534DD  2537 0001:000534F0  2538 0001:00053503
  2539 0001:00053516  2540 0001:00053529  2543 0001:00053534  2544 0001:00053544
  2547 0001:0005354F  2548 0001:00053554  2549 0001:00053564  2550 0001:0005357A
  2552 0001:0005358D  2555 0001:000535A3  2558 0001:000535B5  2559 0001:000535BC
  2583 0001:000535C0  2585 0001:000535CC  2586 0001:000535D3  2587 0001:000535E1
  2588 0001:000535F2  2592 0001:00053608  2593 0001:0005360F  2594 0001:0005361B
  2596 0001:00053621  2597 0001:0005362A  2600 0001:00053642  2601 0001:00053658
  2602 0001:0005366A  2603 0001:00053672  2606 0001:00053688  2594 0001:00053691
  2611 0001:00053697  2612 0001:000536A7  2613 0001:000536B2  2614 0001:000536B7
  2615 0001:000536C7  2616 0001:000536DC  2618 0001:000536E2  2619 0001:000536ED
  2620 0001:000536F9  2622 0001:00053703  2623 0001:0005371B  2626 0001:00053720
  2629 0001:00053729  2630 0001:00053738  2631 0001:0005374E  2634 0001:00053753
  2635 0001:0005375F  2636 0001:00053778  2639 0001:0005377F  2640 0001:00053797
  2641 0001:000537B2  2645 0001:000537B7  2646 0001:000537D4  2649 0001:000537E4
  2650 0001:000537FC  2651 0001:00053804  2652 0001:00053810  2653 0001:00053826
  2654 0001:0005382A  2651 0001:0005382D  2657 0001:00053833  2658 0001:0005383C
  2620 0001:00053845  2662 0001:0005384F  2665 0001:00053861  2666 0001:00053873
  2669 0001:0005388A  2670 0001:0005389A  2671 0001:000538A5  2674 0001:000538C3
  2675 0001:000538C8  2676 0001:000538D8  2677 0001:000538EE  2678 0001:00053904
  2679 0001:0005391D  2680 0001:00053936  2681 0001:00053949  2684 0001:00053969
  2687 0001:0005397B  2688 0001:00053982  2708 0001:00053988  2710 0001:00053994
  2711 0001:0005399B  2712 0001:000539A9  2713 0001:000539BA  2716 0001:000539D0
  2717 0001:000539DC  2718 0001:000539E8  2720 0001:000539EE  2721 0001:000539FB
  2723 0001:00053A06  2727 0001:00053A0D  2728 0001:00053A17  2718 0001:00053A20
  2732 0001:00053A26  2733 0001:00053A39  2734 0001:00053A49  2736 0001:00053A54
  2737 0001:00053A60  2738 0001:00053A70  2739 0001:00053A85  2740 0001:00053A9E
  2743 0001:00053AA4  2744 0001:00053AB0  2745 0001:00053AB6  2746 0001:00053AD1
  2749 0001:00053AD6  2744 0001:00053ADF  2753 0001:00053AE5  2756 0001:00053AF7
  2757 0001:00053B03  2758 0001:00053B14  2760 0001:00053B23  2762 0001:00053B2A
  2766 0001:00053B40  2770 0001:00053B4F  2773 0001:00053B68  2774 0001:00053B6F
  2775 0001:00053B7B  2776 0001:00053B8B  2778 0001:00053B96  2779 0001:00053BA6
  2780 0001:00053BBC  2781 0001:00053BD2  2782 0001:00053BEB  2783 0001:00053C04
  2786 0001:00053C17  2789 0001:00053C29  2790 0001:00053C30  2798 0001:00053C34
  2800 0001:00053C43  2803 0001:00053C50  2806 0001:00053CB5  2809 0001:00053CD4
  2812 0001:00053CF3  2815 0001:00053D12  2818 0001:00053D31  2821 0001:00053D50
  2824 0001:00053D6F  2827 0001:00053D8E  2830 0001:00053DAD  2833 0001:00053DCC
  2836 0001:00053DEB  2839 0001:00053E0A  2842 0001:00053E29  2845 0001:00053E45
  2848 0001:00053E61  2853 0001:00053E7D  2856 0001:00053E91  2859 0001:00053EAB
  2867 0001:00053EB4  2869 0001:00053EC0  2872 0001:00053ECD  2875 0001:00053F04
  2879 0001:00053F11  2883 0001:00053F1E  2887 0001:00053F2B  2891 0001:00053F38
  2895 0001:00053F45  2896 0001:00053F4E  2900 0001:00053F59  2902 0001:00053F97

Line numbers for cl_codeview(cl_codeview.pas) segment .text

   594 0001:00053FA4   596 0001:00053FBB   597 0001:00053FC5   598 0001:00053FC9
   599 0001:00053FDE   597 0001:00053FE1   600 0001:00053FE7   601 0001:00053FEE
   602 0001:00053FF6   605 0001:00053FFE   606 0001:0005400B   607 0001:00054016
   610 0001:00054020   611 0001:0005402B   612 0001:00054036   613 0001:00054041
   614 0001:0005404C   615 0001:00054054   616 0001:0005405F   628 0001:00054064
   630 0001:00054074   631 0001:0005407D   634 0001:00054086   637 0001:00054095
   638 0001:00054099   639 0001:000540AE   640 0001:000540C8   637 0001:000540CB
   641 0001:000540D1   708 0001:000540D8   710 0001:000540E7   713 0001:000540F9
   714 0001:00054102   715 0001:0005410C   716 0001:00054116   717 0001:00054120
   718 0001:0005412A   719 0001:00054134   722 0001:0005413E   723 0001:0005414F
   724 0001:0005416C   725 0001:0005417A   726 0001:00054194   734 0001:00054198
   736 0001:000541A4   737 0001:000541AD   740 0001:000541BE   743 0001:000541CD
   744 0001:000541D6   747 0001:000541E7   751 0001:000541F6   752 0001:00054203
   764 0001:00054208   766 0001:00054217   769 0001:00054221   770 0001:00054233
   773 0001:00054240   774 0001:00054248   775 0001:00054251   776 0001:00054258
   777 0001:0005425F   780 0001:00054267   781 0001:00054273   782 0001:00054288
   783 0001:00054291   786 0001:000542A3   788 0001:000542BA   789 0001:000542CC
   792 0001:000542D9   793 0001:000542E2   794 0001:000542EB   797 0001:000542F2
   799 0001:00054305   800 0001:0005430E   803 0001:0005431A   808 0001:00054324
   810 0001:0005432C   811 0001:0005433B   812 0001:00054353   813 0001:0005435C
   817 0001:00054370   818 0001:00054384   819 0001:000543A6   820 0001:000543B4
   821 0001:000543D0   825 0001:000543DE   827 0001:000543E6   839 0001:000543EC
   841 0001:000543F8   842 0001:0005440A   845 0001:00054417   846 0001:0005441F
   849 0001:00054426   850 0001:00054435   851 0001:00054450   852 0001:0005445C
   855 0001:00054474   856 0001:00054490   857 0001:000544A2   860 0001:000544AF
   861 0001:000544B9   862 0001:000544C1   864 0001:000544CB   865 0001:000544DD
   866 0001:000544FB   867 0001:00054507   869 0001:0005451F   880 0001:00054524
   882 0001:00054533   885 0001:0005453D   886 0001:0005454F   889 0001:0005455C
   890 0001:00054564   891 0001:0005456E   892 0001:00054575   893 0001:0005457E
   896 0001:00054588   898 0001:0005458E   899 0001:0005459D   900 0001:000545B5
   901 0001:000545BE   905 0001:000545D2   906 0001:000545E4   907 0001:00054602
   908 0001:0005460E   909 0001:00054626   911 0001:00054632   923 0001:00054638
   925 0001:00054647   928 0001:00054651   931 0001:00054661   932 0001:00054673
   935 0001:00054680   936 0001:00054688   937 0001:00054692   940 0001:00054699
   941 0001:000546A6   943 0001:000546B0   944 0001:000546C2   947 0001:000546CF
   948 0001:000546D9   949 0001:000546E1   950 0001:000546EB   952 0001:000546F7
   953 0001:00054709   954 0001:00054727   955 0001:00054733   959 0001:0005474D
   963 0001:00054757   964 0001:0005476F   965 0001:0005477E   966 0001:00054787
   967 0001:0005479C   975 0001:000547A0   977 0001:000547AF   978 0001:000547B8
   981 0001:000547C6   984 0001:000547D5   985 0001:000547DE   988 0001:000547EC
   992 0001:000547FB   993 0001:00054808  1009 0001:0005480C  1011 0001:0005481B
  1014 0001:00054821  1017 0001:00054831  1020 0001:0005483B  1021 0001:00054843
  1025 0001:0005484E  1026 0001:0005485C  1028 0001:0005486A  1032 0001:0005486F
  1034 0001:00054882  1035 0001:00054890  1036 0001:0005489A  1039 0001:000548B0
  1040 0001:000548C6  1043 0001:000548DC  1054 0001:0005490B  1055 0001:00054921
  1039 0001:00054924  1058 0001:00054929  1059 0001:00054932  1061 0001:00054938
  1064 0001:00054941  1066 0001:00054950  1069 0001:0005495D  1081 0001:00054979
  1086 0001:00054986  1059 0001:0005498F  1090 0001:00054995  1035 0001:0005499D
  1095 0001:000549A7  1097 0001:000549AF  1101 0001:000549BD  1102 0001:000549D4
  1103 0001:000549FB  1101 0001:000549FE  1106 0001:00054A03  1107 0001:00054A11
  1108 0001:00054A1A  1109 0001:00054A20  1110 0001:00054A32  1108 0001:00054A3B
  1115 0001:00054A41  1116 0001:00054A4B  1147 0001:00054A54  1149 0001:00054A60
  1152 0001:00054A68  1153 0001:00054A6C  1154 0001:00054A7F  1155 0001:00054AAC
  1156 0001:00054AB6  1157 0001:00054AC0  1158 0001:00054ACA  1159 0001:00054AD3
  1160 0001:00054ADC  1161 0001:00054AE5  1164 0001:00054AEC  1152 0001:00054AEF
  1165 0001:00054AF9  1169 0001:00054B00  1171 0001:00054B0F  1172 0001:00054B15
  1173 0001:00054B1C  1174 0001:00054B23  1177 0001:00054B2A  1180 0001:00054B50
  1183 0001:00054B5B  1184 0001:00054B6D  1187 0001:00054B77  1188 0001:00054B89
  1191 0001:00054B98  1192 0001:00054BAA  1201 0001:00054BBF  1202 0001:00054BD5
  1203 0001:00054BD9  1205 0001:00054BF0  1208 0001:00054C0C  1209 0001:00054C2D
  1219 0001:00054C5F  1202 0001:00054C62  1220 0001:00054C6C  1201 0001:00054C6F
  1221 0001:00054C78  1240 0001:00054C80  1242 0001:00054C8F  1243 0001:00054C9A
  1244 0001:00054CA4  1247 0001:00054CAB  1250 0001:00054CB7  1251 0001:00054CCA
  1254 0001:00054CDA  1255 0001:00054CDF  1256 0001:00054CF7  1257 0001:00054D13
  1258 0001:00054D35  1259 0001:00054D64  1277 0001:00054D9E  1278 0001:00054DAC
  1280 0001:00054DB6  1281 0001:00054DC5  1282 0001:00054DE0  1283 0001:00054E03
  1284 0001:00054E33  1285 0001:00054E5F  1295 0001:00054E90  1296 0001:00054EA1
  1298 0001:00054EAB  1299 0001:00054EBA  1300 0001:00054ED2  1301 0001:00054EEE
  1302 0001:00054F11  1319 0001:00054F40  1322 0001:00054F43  1296 0001:00054F4C
  1326 0001:00054F56  1329 0001:00054F59  1278 0001:00054F65  1331 0001:00054F6F
  1350 0001:00054F78  1352 0001:00054F8B  1355 0001:00054F92  1356 0001:00054F99
  1359 0001:00054FB7  1362 0001:00054FD7  1365 0001:00054FF1  1366 0001:00055003
  1369 0001:00055012  1372 0001:00055027  1386 0001:00055032  1387 0001:00055040
  1389 0001:00055046  1399 0001:00055069  1402 0001:00055072  1387 0001:00055075
  1406 0001:0005507B  1407 0001:000550A2  1435 0001:000550A8  1437 0001:000550BA
  1438 0001:000550C0  1439 0001:000550C6  1442 0001:000550CB  1443 0001:000550D9
  1444 0001:000550E3  1447 0001:000550E7  1448 0001:000550F4  1449 0001:00055100
  1450 0001:0005510A  1453 0001:0005510E  1454 0001:00055121  1455 0001:0005515F
  1456 0001:0005516E  1459 0001:00055181  1449 0001:0005518D  1464 0001:00055197
  1443 0001:000551A0  1468 0001:000551AA  1469 0001:000551C5  1472 0001:000551DF
  1473 0001:000551F1  1476 0001:00055200  1477 0001:00055207  1478 0001:00055213
  1479 0001:0005521F  1480 0001:0005522C  1484 0001:00055231  1485 0001:00055243
  1486 0001:00055258  1487 0001:00055264  1488 0001:00055272  1490 0001:0005527C
  1491 0001:00055289  1494 0001:00055295  1495 0001:0005529D  1496 0001:000552BA
  1498 0001:000552C0  1499 0001:000552DE  1500 0001:00055304  1503 0001:00055315
  1504 0001:00055321  1496 0001:00055325  1508 0001:0005532B  1509 0001:00055337
  1513 0001:00055354  1514 0001:0005535D  1488 0001:00055361  1516 0001:0005536B
  1533 0001:00055374  1535 0001:0005537D  1538 0001:00055387  1539 0001:00055391
  1541 0001:000553B0  1543 0001:000553E8  1544 0001:000553FF  1545 0001:0005540C
  1548 0001:00055428  1550 0001:00055432  1553 0001:00055444  1554 0001:00055451
  1555 0001:00055459  1558 0001:00055462  1559 0001:0005546D  1562 0001:0005547A
  1563 0001:0005548B  1564 0001:0005549C  1568 0001:000554A7  1569 0001:000554B9
  1571 0001:000554C6  1572 0001:000554D2  1577 0001:000554DE  1578 0001:000554F5
  1579 0001:00055501  1581 0001:00055508  1539 0001:0005550B  1585 0001:00055514
  1586 0001:0005551F  1587 0001:00055529  1588 0001:00055535  1589 0001:00055543
  1590 0001:0005555F  1591 0001:0005558A  1592 0001:000555A1  1596 0001:000555C7
  1597 0001:000555D0  1586 0001:000555DC  1602 0001:000555E6  1603 0001:000555F0
  1605 0001:0005560F  1608 0001:0005563F  1609 0001:00055656  1610 0001:00055663
  1611 0001:00055679  1615 0001:00055685  1618 0001:000556BE  1619 0001:000556E9
  1620 0001:0005570E  1622 0001:00055715  1603 0001:00055718  1625 0001:00055721
  1626 0001:0005572C  1627 0001:00055757  1630 0001:0005576D  1651 0001:00055774
  1653 0001:00055780  1654 0001:0005578A  1655 0001:0005579C  1658 0001:000557A9
  1659 0001:000557B2  1661 0001:000557BC  1664 0001:000557C4  1665 0001:000557CD
  1667 0001:000557D7  1669 0001:000557E1  1670 0001:000557EA  1671 0001:000557F4
  1675 0001:00055810  1676 0001:00055816  1677 0001:00055825  1678 0001:0005583D
  1679 0001:00055846  1682 0001:00055858  1685 0001:0005585E  1686 0001:00055864
  1687 0001:00055885  1692 0001:00055893  1693 0001:000558A8  1694 0001:000558C9
  1695 0001:000558DB  1701 0001:000558F9  1704 0001:00055900  1665 0001:0005590C
  1708 0001:00055916  1709 0001:0005591F  1713 0001:00055926  1716 0001:0005592E
  1659 0001:00055937  1720 0001:00055941  1721 0001:00055954  1722 0001:00055961
  1728 0001:0005596B  1731 0001:0005597D  1734 0001:000559B6  1735 0001:000559D1
  1736 0001:000559E7  1737 0001:00055A03  1738 0001:00055A1A  1739 0001:00055A45
  1742 0001:00055A6B  1743 0001:00055A74  1745 0001:00055A7E  1746 0001:00055A91
  1747 0001:00055A95  1750 0001:00055AD5  1751 0001:00055AF1  1752 0001:00055B08
  1753 0001:00055B24  1756 0001:00055B3B  1757 0001:00055B4D  1759 0001:00055B57
  1760 0001:00055B6A  1761 0001:00055B74  1762 0001:00055B89  1766 0001:00055BAB
  1767 0001:00055BAF  1771 0001:00055BDC  1772 0001:00055BE2  1773 0001:00055BEC
  1776 0001:00055C3F  1772 0001:00055C43  1780 0001:00055C4D  1781 0001:00055C64
  1782 0001:00055C7F  1783 0001:00055C9B  1784 0001:00055CAF  1788 0001:00055CB3
  1757 0001:00055CBC  1792 0001:00055CC6  1743 0001:00055CD2  1797 0001:00055CDC
  1798 0001:00055CE5  1809 0001:00055CEC  1811 0001:00055CF8  1812 0001:00055D1D
  1847 0001:00055D24  1849 0001:00055D33  1851 0001:00055D3D  1854 0001:00055D60
  1857 0001:00055D6A  1860 0001:00055D78  1861 0001:00055D84  1864 0001:00055D95
  1868 0001:00055DA7  1870 0001:00055DB3  1873 0001:00055DC9  1877 0001:00055DE5
  1879 0001:00055DF4  1882 0001:00055E0A  1886 0001:00055E24  1849 0001:00055E30
  1888 0001:00055E3A  1902 0001:00055E40  1904 0001:00055E4F  1906 0001:00055E59
  1908 0001:00055E7C  1911 0001:00055E86  1914 0001:00055E94  1915 0001:00055EA0
  1918 0001:00055EB1  1922 0001:00055EC3  1923 0001:00055ECB  1924 0001:00055ED5
  1929 0001:00055EE5  1930 0001:00055F01  1933 0001:00055F09  1936 0001:00055F1F
  1939 0001:00055F39  1940 0001:00055F45  1944 0001:00055F66  1951 0001:00055F74
  1954 0001:00055F7A  1955 0001:00055F86  1959 0001:00055FA7  1904 0001:00055FB3
  1961 0001:00055FBD  2074 0001:00055FC4  2077 0001:00055FD3  2078 0001:00055FD9
  2081 0001:00055FDD  2084 0001:00055FE3  2086 0001:00055FE7  2089 0001:00055FED
  2091 0001:00055FF7  2095 0001:00056039  2098 0001:00056043  2100 0001:00056053
  2101 0001:00056063  2102 0001:00056082  2103 0001:000560A2  2104 0001:000560C2
  2105 0001:000560E2  2106 0001:00056102  2107 0001:00056120  2108 0001:00056134
  2112 0001:00056153  2114 0001:00056166  2115 0001:00056176  2116 0001:00056195
  2117 0001:000561B5  2118 0001:000561D5  2119 0001:000561F5  2120 0001:00056215
  2121 0001:00056237  2122 0001:00056255  2123 0001:00056269  2127 0001:00056288
  2129 0001:0005629B  2130 0001:0005629F  2133 0001:000562A3  2134 0001:000562AF
  2137 0001:000562B5  2138 0001:000562BF  2139 0001:000562DE  2140 0001:000562FE
  2141 0001:0005631D  2143 0001:00056337  2148 0001:0005633D  2149 0001:0005634D
  2151 0001:0005636C  2152 0001:0005638C  2153 0001:000563AC  2154 0001:000563CE
  2155 0001:000563EB  2156 0001:0005640D  2157 0001:0005642A  2158 0001:0005644C
  2159 0001:00056469  2160 0001:0005648B  2161 0001:000564AD  2162 0001:000564CF
  2163 0001:000564EF  2164 0001:0005650F  2165 0001:00056531  2166 0001:00056552
  2167 0001:00056570  2168 0001:00056584  2171 0001:0005659E  2172 0001:000565AA
  2177 0001:000565CF  2180 0001:000565D9  2181 0001:000565E3  2182 0001:00056602
  2183 0001:00056622  2184 0001:00056641  2191 0001:0005665B  2089 0001:00056667
  2193 0001:00056671  2084 0001:00056674  2194 0001:0005667E  2198 0001:00056684
  2200 0001:00056693  2201 0001:0005669A  2202 0001:000566A3  2203 0001:000566A8
  2204 0001:000566AE  2207 0001:000566B3  2210 0001:000566B7  2211 0001:000566BC
  2214 0001:000566D4  2215 0001:000566D9  2222 0001:000566F1  2225 0001:000566FD
  2228 0001:00056717  2229 0001:00056729  2232 0001:00056738  2235 0001:0005673D
  2236 0001:00056744  2239 0001:00056760  2240 0001:0005676A  2241 0001:0005676E
  2242 0001:00056775  2243 0001:00056791  2244 0001:000567AF  2245 0001:000567CB
  2246 0001:000567E7  2247 0001:000567EB  2248 0001:00056804  2251 0001:0005680A
  2255 0001:0005682C  2257 0001:00056849  2268 0001:00056850  2269 0001:0005685F
  2270 0001:00056869  2272 0001:00056879  2275 0001:00056883  2277 0001:00056893
  2281 0001:000568C1  2285 0001:000568CC  2287 0001:000568FF  2291 0001:00056914
  2292 0001:0005694C  2296 0001:0005696A  2298 0001:0005697D  2299 0001:000569A7
  2302 0001:000569C9  2306 0001:000569F7  2310 0001:00056A02  2311 0001:00056A3A
  2315 0001:00056A58  2316 0001:00056A6B  2317 0001:00056A7D  2318 0001:00056A88
  2319 0001:00056A9D  2320 0001:00056AC3  2321 0001:00056AE5  2322 0001:00056AEF
  2323 0001:00056AFB  2325 0001:00056B27  2328 0001:00056B54  2332 0001:00056B5D
  2334 0001:00056B82  2337 0001:00056B9B  2339 0001:00056BA6  2342 0001:00056BB1
  2343 0001:00056BC4  2347 0001:00056C00  2352 0001:00056C0D  2356 0001:00056C3D
  2361 0001:00056C48  2364 0001:00056C52  2365 0001:00056C6C  2366 0001:00056C86
  2370 0001:00056C94  2371 0001:00056CAE  2269 0001:00056CBA  2374 0001:00056CC4
  2392 0001:00056CC8  2394 0001:00056CD7  2397 0001:00056CDE  2398 0001:00056CE4
  2400 0001:00056CEE  2402 0001:00056CFE  2405 0001:00056D08  2406 0001:00056D14
  2409 0001:00056D25  2413 0001:00056D37  2415 0001:00056D4C  2417 0001:00056D58
  2418 0001:00056D6B  2421 0001:00056D8F  2423 0001:00056D9B  2424 0001:00056DA8
  2428 0001:00056DCA  2430 0001:00056DFD  2434 0001:00056E1B  2439 0001:00056E29
  2398 0001:00056E35  2443 0001:00056E3F  2446 0001:00056E45  2449 0001:00056E5F
  2450 0001:00056E71  2453 0001:00056E80  2456 0001:00056E87  2457 0001:00056E92
  2460 0001:00056EA7  2461 0001:00056EAD  2463 0001:00056EB7  2465 0001:00056EC7
  2468 0001:00056F00  2469 0001:00056F28  2470 0001:00056F44  2473 0001:00056F64
  2477 0001:00056F84  2479 0001:00056F94  2480 0001:00056FA3  2481 0001:00056FBF
  2482 0001:00056FE9  2483 0001:00057008  2484 0001:00057027  2485 0001:00057035
  2488 0001:00057050  2490 0001:00057060  2491 0001:0005706F  2492 0001:0005708B
  2493 0001:000570B5  2494 0001:000570B9  2495 0001:000570DC  2496 0001:00057101
  2500 0001:00057117  2504 0001:00057121  2461 0001:0005712D  2506 0001:00057137
  2517 0001:00057140  2519 0001:0005714F  2521 0001:00057159  2523 0001:00057165
  2526 0001:0005716F  2528 0001:0005717B  2531 0001:000571B3  2534 0001:000571CD
  2538 0001:000571D8  2542 0001:000571E2  2519 0001:000571EE  2544 0001:000571F8
  2554 0001:000571FC  2556 0001:00057203  2557 0001:00057222  2558 0001:0005722B
  2559 0001:00057251  2560 0001:00057260  2574 0001:00057264  2576 0001:0005726D
  2579 0001:00057275  2580 0001:00057281  2582 0001:00057287  2585 0001:00057298
  2580 0001:000572A1  2589 0001:000572A7  2590 0001:000572B3  2592 0001:000572BD
  2593 0001:000572C6  2594 0001:000572CF  2595 0001:000572D8  2598 0001:000572E1
  2599 0001:000572EA  2601 0001:000572F0  2604 0001:000572F8  2607 0001:00057301
  2599 0001:00057308  2611 0001:0005730E  2614 0001:00057316  2615 0001:0005731F
  2617 0001:00057325  2620 0001:00057336  2615 0001:00057342  2624 0001:00057348
  2590 0001:00057351  2628 0001:0005735B  2629 0001:00057367  2631 0001:0005737E
  2660 0001:00057384  2662 0001:00057394  2663 0001:000573A6  2666 0001:000573B5
  2667 0001:000573C6  2668 0001:000573E3  2669 0001:000573F1  2672 0001:0005740B
  2673 0001:00057418  2674 0001:00057423  2675 0001:00057438  2678 0001:00057443
  2679 0001:0005744C  2683 0001:00057454  2689 0001:00057463  2690 0001:00057473
  2691 0001:0005747C  2692 0001:00057485  2695 0001:0005748C  2699 0001:00057493
  2700 0001:000574A5  2702 0001:000574AB  2705 0001:000574BF  2708 0001:000574DC
  2709 0001:000574E2  2712 0001:000574EE  2713 0001:000574F7  2700 0001:000574FB
  2717 0001:00057501  2718 0001:0005750D  2720 0001:00057513  2723 0001:00057524
  2718 0001:0005752D  2728 0001:00057533  2729 0001:00057545  2732 0001:0005754F
  2733 0001:00057558  2736 0001:0005756C  2739 0001:00057587  2740 0001:0005758D
  2745 0001:00057599  2747 0001:000575A2  2750 0001:000575B6  2753 0001:000575D1
  2754 0001:000575D7  2758 0001:000575E3  2759 0001:000575EC  2729 0001:000575F0
  2763 0001:000575FA  2764 0001:00057606  2766 0001:0005761A  2769 0001:00057638
  2770 0001:0005763E  2775 0001:0005764A  2776 0001:0005765E  2777 0001:00057673
  2778 0001:00057683  2781 0001:0005768D  2782 0001:00057691  2786 0001:0005769B
  2788 0001:000576AF  2789 0001:000576CA  2790 0001:000576DD  2792 0001:000576EB
  2793 0001:000576F7  2794 0001:00057714  2795 0001:00057736  2797 0001:0005774D
  2798 0001:00057759  2800 0001:0005775F  2801 0001:0005777C  2802 0001:0005779A
  2805 0001:000577A3  2798 0001:000577AC  2809 0001:000577B2  2810 0001:000577C1
  2814 0001:000577CD  2816 0001:000577E1  2819 0001:000577FC  2820 0001:00057802
  2825 0001:0005780E  2828 0001:00057822  2831 0001:00057836  2832 0001:0005783C
  2837 0001:00057848  2840 0001:00057872  2841 0001:00057884  2844 0001:00057893
  2845 0001:000578A7  2846 0001:000578BC  2849 0001:000578D9  2850 0001:000578E7
  2852 0001:000578ED  2853 0001:0005790B  2856 0001:00057938  2857 0001:0005793B
  2850 0001:00057944  2861 0001:0005794A  2862 0001:00057967  2865 0001:00057982
  2866 0001:00057989  2867 0001:00057994  2868 0001:0005799D  2869 0001:000579A6
  2870 0001:000579B0  2871 0001:000579BB  2872 0001:000579C3  2873 0001:000579CB
  2881 0001:000579D0  2883 0001:000579E0  2884 0001:000579F7  2885 0001:00057A0C
  2886 0001:00057A21  2887 0001:00057A36  2888 0001:00057A4D  2889 0001:00057A62
  2890 0001:00057A77  2891 0001:00057A8C  2892 0001:00057AA1  2906 0001:00057AA8
  2908 0001:00057AB1  2909 0001:00057ABD  2911 0001:00057AC3  2912 0001:00057ACC
  2914 0001:00057AD2  2915 0001:00057AD8  2918 0001:00057AE1  2919 0001:00057AFB
  2912 0001:00057B09  2924 0001:00057B0F  2925 0001:00057B15  2928 0001:00057B1E
  2909 0001:00057B32  2930 0001:00057B38  2932 0001:00057B73

Line numbers for ci_link(ci_link.pas) segment .text

   145 0001:00057B74   146 0001:00057B8E   147 0001:00057B98   148 0001:00057BA4
   149 0001:00057BB0   150 0001:00057BBC   151 0001:00057BC8   152 0001:00057BCC
   153 0001:00057BDE   154 0001:00057BEF   151 0001:00057BF2   155 0001:00057BF8
   156 0001:00057C07   157 0001:00057C16   170 0001:00057C1C   171 0001:00057C2B
   174 0001:00057C3B   175 0001:00057C49   176 0001:00057C4D   177 0001:00057C57
   179 0001:00057C64   182 0001:00057C68   183 0001:00057C82   185 0001:00057CA8
   187 0001:00057CE7   188 0001:00057D01   189 0001:00057D19   192 0001:00057D5B
   194 0001:00057D67   182 0001:00057D6A   196 0001:00057D73   176 0001:00057D7B
   198 0001:00057D85   199 0001:00057D99   213 0001:00057DA0   214 0001:00057DB2
   216 0001:00057DCC   217 0001:00057DDA   220 0001:00057DFE   223 0001:00057E16
   224 0001:00057E26   225 0001:00057E40   228 0001:00057E5A   231 0001:00057E64
   232 0001:00057E77   233 0001:00057EA8   214 0001:00057EAB   234 0001:00057EB4
   252 0001:00057EB8   253 0001:00057EC7   255 0001:00057EE1   256 0001:00057EEF
   259 0001:00057F24   260 0001:00057F30   262 0001:00057F38   261 0001:00057F46
   267 0001:00057F61   270 0001:00057F79   271 0001:00057F85   272 0001:00057FA2
   273 0001:00057FB2   276 0001:00057FD4   277 0001:00057FE4   280 0001:00058007
   283 0001:00058020   286 0001:00058042   287 0001:00058051   290 0001:0005805F
   291 0001:0005806B   292 0001:00058093   301 0001:000580AD   303 0001:000580C3
   308 0001:00058106   312 0001:0005812E   302 0001:00058136   316 0001:0005813C
   318 0001:0005814C   320 0001:00058169   321 0001:0005817B   322 0001:00058181
   324 0001:00058187   327 0001:00058195   328 0001:000581A1   329 0001:000581BA
   322 0001:000581CC   333 0001:000581D2   338 0001:00058215   339 0001:00058236
   318 0001:00058239   343 0001:00058242   344 0001:0005824C   253 0001:0005824F
   345 0001:00058258   357 0001:00058260   358 0001:0005826C   359 0001:0005829C
   365 0001:000582B8   368 0001:00058306   369 0001:00058319   374 0001:0005833A
   378 0001:00058349   379 0001:0005835C   384 0001:00058383   385 0001:0005838C
   386 0001:000583BE   393 0001:000583E2   394 0001:000583EB   395 0001:0005841D
   400 0001:00058441   401 0001:00058454   402 0001:00058468   407 0001:0005847B
   408 0001:0005848E   411 0001:000584AC   417 0001:000584BA   418 0001:000584CD
   421 0001:000584E8   423 0001:000584F4   358 0001:000584F7   424 0001:00058500
   445 0001:00058504   448 0001:00058511   451 0001:0005851B   452 0001:00058527
   453 0001:00058541   456 0001:00058560   459 0001:00058576   462 0001:0005857F
   465 0001:0005859A   466 0001:000585A8   469 0001:000585CC   470 0001:000585E2
   471 0001:000585FA   472 0001:00058612   473 0001:0005863D   469 0001:00058640
   476 0001:00058645   477 0001:0005864E   478 0001:00058654   479 0001:00058662
   480 0001:00058670   481 0001:00058679   482 0001:0005869D   483 0001:000586AD
   477 0001:000586B6   501 0001:000586BC   502 0001:000586CA   505 0001:000586D8
   508 0001:000586DD   509 0001:000586E5   512 0001:000586EF   513 0001:00058701
   452 0001:00058704   516 0001:0005870D   519 0001:00058722   523 0001:00058727
   526 0001:00058731   527 0001:0005875A   528 0001:00058766   531 0001:00058777
   534 0001:0005878C   537 0001:00058791   540 0001:0005879B   541 0001:000587C4
   542 0001:000587D0   544 0001:000587EA   545 0001:000587F9   547 0001:00058802
   550 0001:00058817   553 0001:00058822   556 0001:00058845   558 0001:00058864
   542 0001:00058867   561 0001:00058870   564 0001:00058885   567 0001:0005888A
   570 0001:00058894   571 0001:000588BD   572 0001:000588C9   575 0001:000588DA
   578 0001:000588DF   581 0001:000588F4   584 0001:000588FE   585 0001:00058927
   586 0001:00058933   589 0001:00058944   592 0001:00058959   596 0001:0005895E
   599 0001:00058968   600 0001:00058991   603 0001:0005899D   606 0001:000589A2
   607 0001:000589B8   610 0001:000589CF   613 0001:000589DA   614 0001:000589E2
   615 0001:000589E8   606 0001:000589EB   621 0001:000589F0   622 0001:00058A05
   623 0001:00058A16   626 0001:00058A28   630 0001:00058A40   638 0001:00058AB4
   639 0001:00058ABB   647 0001:00058AC0   648 0001:00058ACC   649 0001:00058ADD
   657 0001:00058AE4   658 0001:00058AF0   659 0001:00058B0C   667 0001:00058B10
   668 0001:00058B1C   669 0001:00058B33   677 0001:00058B38   678 0001:00058B47
   679 0001:00058B5E   687 0001:00058B64   688 0001:00058B73   689 0001:00058B8A
   714 0001:00058B90   716 0001:00058BA0   720 0001:00058BB7   724 0001:00058BC9
   725 0001:00058BE2   726 0001:00058BF1   730 0001:00058C10   733 0001:00058C28
   736 0001:00058C46   739 0001:00058C61   742 0001:00058C67   743 0001:00058C7C
   744 0001:00058C87   745 0001:00058C92   746 0001:00058C9D   750 0001:00058CE0
   751 0001:00058CEB   752 0001:00058D05   753 0001:00058D2E   757 0001:00058D33
   758 0001:00058D41   770 0001:00058D48   771 0001:00058D57   774 0001:00058D84
   775 0001:00058D9E   780 0001:00058DB4   783 0001:00058DC8   786 0001:00058E10
   787 0001:00058E18   788 0001:00058E1E   774 0001:00058E21   793 0001:00058E2F
   795 0001:00058E49   798 0001:00058E5E   801 0001:00058E72   802 0001:00058EB4
   793 0001:00058EB7   807 0001:00058EC1   808 0001:00058EC9   809 0001:00058ECE
   810 0001:00058EE4   811 0001:00058F06   809 0001:00058F09   812 0001:00058F0E
   817 0001:00058F2A   818 0001:00058F32   819 0001:00058F37   820 0001:00058F8C
   829 0001:00058FA1   831 0001:00058FAD   845 0001:00058FEB

Line numbers for c32_Linux(c32_linux.pas) segment .text

    74 0001:00059038    76 0001:00059047    77 0001:0005904F    79 0001:00059060
    83 0001:0005906A    86 0001:0005907C    87 0001:00059087    90 0001:00059097
    91 0001:000590A3   102 0001:000590AC   104 0001:000590BE   105 0001:000590CA
   106 0001:000590DB   108 0001:000590F9   112 0001:00059103   113 0001:0005910E
   114 0001:00059114   115 0001:00059125   117 0001:00059132   121 0001:0005913C
   122 0001:00059147   135 0001:0005914C   137 0001:00059155   140 0001:0005915E
   176 0001:0005916A   184 0001:00059170   185 0001:0005917C   186 0001:00059191
   190 0001:000591CF

Line numbers for cl_dwarf(cl_dwarf.pas) segment .text

   274 0001:000591D0   275 0001:000591D7   276 0001:000591DE   277 0001:000591E6
   278 0001:000591EE   307 0001:000591F4   308 0001:000591FD   309 0001:00059209
   316 0001:00059210   318 0001:0005921C   319 0001:0005922F   335 0001:00059234
   336 0001:00059244   337 0001:00059255   341 0001:0005927F   344 0001:000592A4
   347 0001:000592BA   348 0001:000592C3   355 0001:000592CC   357 0001:000592D8
   358 0001:000592E7   361 0001:00059311   362 0001:00059322   363 0001:00059328
   370 0001:0005932C   372 0001:00059339   373 0001:0005934A   376 0001:00059374
   377 0001:0005938E   378 0001:00059395   385 0001:0005939C   387 0001:000593A8
   388 0001:000593B9   391 0001:000593E3   392 0001:000593FD   393 0001:00059404
   401 0001:00059408   402 0001:00059417   403 0001:0005942F   413 0001:00059434
   415 0001:00059440   416 0001:00059451   421 0001:0005947B   422 0001:00059483
   423 0001:00059487   424 0001:00059491   425 0001:0005949C   426 0001:000594A2
   438 0001:000594A8   440 0001:000594B4   441 0001:000594C5   444 0001:000594EF
   445 0001:000594F7   448 0001:000594FD   449 0001:00059505   450 0001:00059509
   451 0001:00059516   452 0001:00059531   453 0001:00059537   454 0001:0005953B
   447 0001:00059546   456 0001:0005954C   464 0001:00059550   466 0001:0005955C
   467 0001:00059573   471 0001:0005959D   472 0001:000595B9   475 0001:000595C5
   476 0001:000595D4   477 0001:000595DA   485 0001:000595E0   487 0001:000595E7
   489 0001:000595EF   490 0001:000595F7   498 0001:000595FC   500 0001:00059603
   502 0001:0005960B   503 0001:00059613   504 0001:0005961B   505 0001:00059623
   506 0001:0005962B   507 0001:0005963B   508 0001:00059646   509 0001:00059653
   510 0001:0005965E   511 0001:0005966B   512 0001:00059675   523 0001:00059678
   525 0001:00059687   528 0001:000596A3   531 0001:000596B4   532 0001:000596E4
   533 0001:00059701   536 0001:00059716   539 0001:0005972B   542 0001:00059740
   545 0001:00059755   547 0001:00059772   548 0001:00059786   551 0001:00059797
   552 0001:000597A0   556 0001:000597B3   557 0001:000597C3   564 0001:000597D0
   565 0001:000597D7   566 0001:000597E1   567 0001:000597EE   568 0001:000597F8
   578 0001:000597FC   581 0001:0005980B   584 0001:00059813   585 0001:00059821
   586 0001:0005982B   587 0001:00059837   588 0001:00059849   594 0001:00059853
   595 0001:00059861   596 0001:0005986B   597 0001:00059877   598 0001:00059885
   599 0001:0005988F   600 0001:00059899   601 0001:000598A3   602 0001:000598AD
   603 0001:000598B7   604 0001:000598C1   605 0001:000598CB   606 0001:000598D5
   607 0001:000598DF   608 0001:000598E9   609 0001:000598F3   610 0001:000598FD
   611 0001:00059907   612 0001:00059911   615 0001:0005991B   617 0001:00059929
   621 0001:00059936   624 0001:00059940   625 0001:0005994E   628 0001:00059958
   630 0001:0005996C   633 0001:0005997D   634 0001:0005998A   635 0001:00059995
   636 0001:000599A2   637 0001:000599AC   638 0001:000599BC   643 0001:000599C7
   644 0001:000599CD   645 0001:000599DB   646 0001:000599E8   649 0001:000599F2
   650 0001:00059A00   663 0001:00059A24   667 0001:00059A33   668 0001:00059A3D
   673 0001:00059A47   676 0001:00059A51   678 0001:00059A65   683 0001:00059A76
   686 0001:00059A7E   688 0001:00059A92   696 0001:00059AA3   703 0001:00059AA8
   705 0001:00059AB7   706 0001:00059AC4   709 0001:00059AD1   710 0001:00059ADC
   717 0001:00059AE0   719 0001:00059AEF   720 0001:00059AFC   723 0001:00059B09
   724 0001:00059B14   731 0001:00059B18   733 0001:00059B27   734 0001:00059B34
   737 0001:00059B41   738 0001:00059B4C   745 0001:00059B50   747 0001:00059B5F
   748 0001:00059B6C   751 0001:00059B79   752 0001:00059B84   759 0001:00059B88
   761 0001:00059B97   762 0001:00059BA4   765 0001:00059BB1   766 0001:00059BBC
   773 0001:00059BC0   775 0001:00059BE0   776 0001:00059BED   779 0001:00059BFA
   780 0001:00059C08   787 0001:00059C10   789 0001:00059C1F   790 0001:00059C2C
   793 0001:00059C39   794 0001:00059C44   803 0001:00059C48   804 0001:00059C54
   805 0001:00059C5E   806 0001:00059C6B   807 0001:00059C75   808 0001:00059C80
   817 0001:00059C84   818 0001:00059C90   819 0001:00059C9A   820 0001:00059CA5
   829 0001:00059CAC   830 0001:00059CB8   831 0001:00059CC2   832 0001:00059CCD
   842 0001:00059CD4   844 0001:00059CE6   848 0001:00059D14   850 0001:00059D58
   851 0001:00059D64   852 0001:00059D70   854 0001:00059D7A   855 0001:00059D88
   856 0001:00059D93   859 0001:00059D9F   860 0001:00059DAD   861 0001:00059DB8
   864 0001:00059DC4   865 0001:00059DD3   866 0001:00059DDE   867 0001:00059DEA
   871 0001:00059E27

Line numbers for cl_elf(cl_elf.pas) segment .text

   468 0001:00059E3C   470 0001:00059E43   471 0001:00059E4A   472 0001:00059E52
   475 0001:00059E5A   476 0001:00059E6C   505 0001:00059E70   507 0001:00059E7F
   508 0001:00059E8E   511 0001:00059EB2   512 0001:00059EC5   513 0001:00059ED9
   514 0001:00059EED   515 0001:00059F01   516 0001:00059F13   517 0001:00059F29
   518 0001:00059F2F   526 0001:00059F38   527 0001:00059F41   528 0001:00059F4B
   546 0001:00059F50   548 0001:00059F5C   549 0001:00059F72   557 0001:00059F78
   559 0001:00059F7F   560 0001:00059F86   561 0001:00059F8E   564 0001:00059F96
   594 0001:00059F9C   596 0001:00059FAB   597 0001:00059FBA   600 0001:00059FDE
   601 0001:00059FF2   602 0001:0005A007   603 0001:0005A01C   604 0001:0005A033
   605 0001:0005A048   606 0001:0005A04E   614 0001:0005A054   615 0001:0005A05D
   616 0001:0005A067   634 0001:0005A06C   636 0001:0005A078   637 0001:0005A091
   647 0001:0005A098   648 0001:0005A0A4   649 0001:0005A0AF   650 0001:0005A0C3
   651 0001:0005A0EC   649 0001:0005A0EF   652 0001:0005A0F4   660 0001:0005A0F8
   661 0001:0005A10E   662 0001:0005A11F   720 0001:0005A124   722 0001:0005A13C
   725 0001:0005A14C   726 0001:0005A15C   729 0001:0005A16C   732 0001:0005A173
   735 0001:0005A17A   736 0001:0005A17E   737 0001:0005A195   741 0001:0005A1BE
   742 0001:0005A1CD   744 0001:0005A1DB   746 0001:0005A1E2   752 0001:0005A1EE
   753 0001:0005A1FF   754 0001:0005A20D   756 0001:0005A214   762 0001:0005A21D
   763 0001:0005A22E   764 0001:0005A23C   766 0001:0005A243   772 0001:0005A24C
   773 0001:0005A25D   774 0001:0005A26B   776 0001:0005A272   781 0001:0005A27B
   784 0001:0005A287   787 0001:0005A291   735 0001:0005A294   791 0001:0005A29E
   792 0001:0005A2A5   793 0001:0005A2B0   794 0001:0005A2B7   795 0001:0005A2C2
   796 0001:0005A2C9   798 0001:0005A2D4   799 0001:0005A2DB   800 0001:0005A2E6
   801 0001:0005A2ED   803 0001:0005A2F8   804 0001:0005A2FF   805 0001:0005A30A
   806 0001:0005A311   807 0001:0005A31C   808 0001:0005A323   813 0001:0005A32E
   814 0001:0005A333   815 0001:0005A337   816 0001:0005A34C   817 0001:0005A361
   820 0001:0005A366   822 0001:0005A37A   814 0001:0005A37D   825 0001:0005A383
   827 0001:0005A390   828 0001:0005A3A9   829 0001:0005A3C3   832 0001:0005A3DA
   833 0001:0005A3EB   834 0001:0005A3FC   835 0001:0005A413   837 0001:0005A41C
   838 0001:0005A432   839 0001:0005A449   841 0001:0005A45F   828 0001:0005A462
   859 0001:0005A46B   862 0001:0005A480   865 0001:0005A487   866 0001:0005A4A1
   872 0001:0005A4BD   874 0001:0005A4D4   875 0001:0005A510   878 0001:0005A521
   880 0001:0005A52E   881 0001:0005A53B   883 0001:0005A543   884 0001:0005A549
   887 0001:0005A55E   888 0001:0005A5A2   889 0001:0005A5B8   894 0001:0005A5BE
   895 0001:0005A5D9   896 0001:0005A5EF   906 0001:0005A606   909 0001:0005A644
   911 0001:0005A650   895 0001:0005A653   913 0001:0005A658   914 0001:0005A66D
   917 0001:0005A687   920 0001:0005A69C   922 0001:0005A6A8   865 0001:0005A6AB
   925 0001:0005A6B4   926 0001:0005A6C6   929 0001:0005A6DA   933 0001:0005A6E7
   935 0001:0005A6F4   936 0001:0005A70D   937 0001:0005A727   940 0001:0005A73E
   941 0001:0005A74F   942 0001:0005A760   943 0001:0005A777   945 0001:0005A780
   946 0001:0005A796   947 0001:0005A7AD   949 0001:0005A7C3   936 0001:0005A7C6
   959 0001:0005A7CF   960 0001:0005A7EB   963 0001:0005A805   965 0001:0005A821
   966 0001:0005A847   967 0001:0005A86F   969 0001:0005A895   960 0001:0005A898
   970 0001:0005A8A1   959 0001:0005A8A4   975 0001:0005A8AD   978 0001:0005A8B4
   979 0001:0005A8CE   986 0001:0005A8EA   989 0001:0005A901   991 0001:0005A90E
   994 0001:0005A91B   995 0001:0005A921   997 0001:0005A938  1000 0001:0005A93E
  1003 0001:0005A94C  1006 0001:0005A963  1007 0001:0005A96D  1008 0001:0005A983
  1009 0001:0005A9A7  1010 0001:0005A9CB  1007 0001:0005A9CE  1011 0001:0005A9D3
  1012 0001:0005A9DC  1014 0001:0005A9E5  1015 0001:0005A9F9  1019 0001:0005AA0D
  1020 0001:0005AA54  1023 0001:0005AA87  1026 0001:0005AA9D  1029 0001:0005AAB1
  1032 0001:0005AAC7  1036 0001:0005AADD  1037 0001:0005AAF7  1047 0001:0005AB0E
  1049 0001:0005AB20  1051 0001:0005AB3D  1059 0001:0005AB7F  1061 0001:0005AB8B
  1036 0001:0005AB8E  1064 0001:0005AB97  1068 0001:0005ABAC  1070 0001:0005ABB8
   978 0001:0005ABBB  1073 0001:0005ABC4  1074 0001:0005ABCA  1081 0001:0005ABE1
  1082 0001:0005ABF2  1083 0001:0005ABFF  1084 0001:0005AC08  1085 0001:0005AC19
  1086 0001:0005AC29  1098 0001:0005AC33  1099 0001:0005AC3D  1100 0001:0005AC44
  1101 0001:0005AC4B  1104 0001:0005AC52  1105 0001:0005AC5B  1106 0001:0005AC64
  1107 0001:0005AC6E  1109 0001:0005AC7A  1111 0001:0005AC82  1113 0001:0005AC8A
  1115 0001:0005AC92  1116 0001:0005AC9B  1117 0001:0005ACA4  1118 0001:0005ACAD
  1119 0001:0005ACB6  1120 0001:0005ACBF  1123 0001:0005ACCD  1126 0001:0005ACE3
  1127 0001:0005ACFD  1134 0001:0005AD18  1136 0001:0005AD53  1137 0001:0005AD69
  1139 0001:0005AD7A  1141 0001:0005AD9A  1144 0001:0005ADAF  1146 0001:0005ADBB
  1126 0001:0005ADBE  1153 0001:0005ADC7  1155 0001:0005ADD4  1158 0001:0005ADEA
  1159 0001:0005AE00  1160 0001:0005AE0A  1161 0001:0005AE14  1162 0001:0005AE25
  1165 0001:0005AE2F  1168 0001:0005AE43  1173 0001:0005AE5C  1181 0001:0005AE68
  1183 0001:0005AE75  1186 0001:0005AE8B  1187 0001:0005AEA1  1188 0001:0005AEAB
  1189 0001:0005AEB5  1190 0001:0005AEC6  1193 0001:0005AED0  1196 0001:0005AEE4
  1204 0001:0005AEFB  1206 0001:0005AF08  1209 0001:0005AF1E  1210 0001:0005AF34
  1211 0001:0005AF3E  1212 0001:0005AF48  1213 0001:0005AF59  1216 0001:0005AF63
  1219 0001:0005AF77  1225 0001:0005AF8E  1227 0001:0005AF97  1230 0001:0005AFAD
  1231 0001:0005AFC3  1232 0001:0005AFCD  1233 0001:0005AFD7  1234 0001:0005AFE8
  1239 0001:0005AFF2  1240 0001:0005B003  1248 0001:0005B011  1250 0001:0005B01E
  1253 0001:0005B034  1254 0001:0005B04A  1255 0001:0005B054  1257 0001:0005B05C
  1258 0001:0005B06D  1261 0001:0005B077  1264 0001:0005B088  1270 0001:0005B09F
  1272 0001:0005B0AC  1275 0001:0005B0C2  1276 0001:0005B0D8  1277 0001:0005B0E2
  1279 0001:0005B0EA  1280 0001:0005B0FB  1281 0001:0005B10C  1284 0001:0005B116
  1287 0001:0005B127  1295 0001:0005B13E  1297 0001:0005B14B  1300 0001:0005B161
  1301 0001:0005B177  1302 0001:0005B181  1303 0001:0005B189  1304 0001:0005B191
  1305 0001:0005B1A2  1308 0001:0005B1AC  1311 0001:0005B1BD  1319 0001:0005B1D4
  1321 0001:0005B1E1  1324 0001:0005B1F7  1325 0001:0005B20D  1326 0001:0005B217
  1327 0001:0005B21F  1328 0001:0005B227  1329 0001:0005B238  1330 0001:0005B242
  1333 0001:0005B253  1336 0001:0005B264  1344 0001:0005B27B  1346 0001:0005B288
  1349 0001:0005B29E  1350 0001:0005B2B4  1351 0001:0005B2BE  1352 0001:0005B2C6
  1353 0001:0005B2CE  1354 0001:0005B2DF  1357 0001:0005B2E9  1360 0001:0005B2FA
  1366 0001:0005B311  1368 0001:0005B31E  1371 0001:0005B334  1372 0001:0005B34A
  1373 0001:0005B354  1374 0001:0005B35C  1375 0001:0005B364  1376 0001:0005B375
  1379 0001:0005B37F  1382 0001:0005B390  1388 0001:0005B3A7  1390 0001:0005B3B4
  1393 0001:0005B3CA  1394 0001:0005B3E0  1395 0001:0005B3EA  1396 0001:0005B3F2
  1397 0001:0005B3FA  1398 0001:0005B40B  1401 0001:0005B415  1404 0001:0005B426
  1412 0001:0005B43D  1414 0001:0005B44A  1417 0001:0005B460  1418 0001:0005B476
  1419 0001:0005B480  1421 0001:0005B488  1422 0001:0005B499  1425 0001:0005B4A3
  1428 0001:0005B4B4  1441 0001:0005B4CB  1444 0001:0005B4DC  1445 0001:0005B4E1
  1448 0001:0005B503  1455 0001:0005B50E  1456 0001:0005B517  1457 0001:0005B521
  1460 0001:0005B532  1461 0001:0005B542  1463 0001:0005B552  1464 0001:0005B55C
  1468 0001:0005B574  1474 0001:0005B580  1475 0001:0005B589  1476 0001:0005B593
  1477 0001:0005B59F  1478 0001:0005B5AB  1479 0001:0005B5B7  1480 0001:0005B5C3
  1481 0001:0005B5CF  1482 0001:0005B5D9  1483 0001:0005B5E3  1489 0001:0005B5F9
  1490 0001:0005B602  1491 0001:0005B60C  1492 0001:0005B618  1493 0001:0005B624
  1494 0001:0005B630  1495 0001:0005B63C  1496 0001:0005B648  1497 0001:0005B652
  1498 0001:0005B65C  1504 0001:0005B672  1505 0001:0005B67B  1506 0001:0005B685
  1507 0001:0005B691  1508 0001:0005B69D  1509 0001:0005B6A9  1510 0001:0005B6B5
  1511 0001:0005B6C1  1512 0001:0005B6CB  1513 0001:0005B6D5  1519 0001:0005B6EB
  1520 0001:0005B6F4  1521 0001:0005B6FE  1522 0001:0005B70A  1523 0001:0005B716
  1524 0001:0005B722  1525 0001:0005B72A  1526 0001:0005B736  1527 0001:0005B740
  1528 0001:0005B74A  1539 0001:0005B760  1542 0001:0005B771  1545 0001:0005B77D
  1547 0001:0005B789  1548 0001:0005B79D  1551 0001:0005B7B1  1552 0001:0005B7B5
  1553 0001:0005B7CE  1566 0001:0005BA01  1567 0001:0005BA23  1569 0001:0005BA2A
  1551 0001:0005BA2D  1572 0001:0005BA37  1573 0001:0005BA44  1576 0001:0005BA5A
  1577 0001:0005BA65  1585 0001:0005BB5C  1586 0001:0005BB63  1588 0001:0005BB9F

Line numbers for c32_Win32(c32_win32.pas) segment .text

    73 0001:0005BBEC    75 0001:0005BBFB    76 0001:0005BC03    78 0001:0005BC14
    82 0001:0005BC1E    85 0001:0005BC30    86 0001:0005BC3B    89 0001:0005BC4B
    90 0001:0005BC57   101 0001:0005BC60   103 0001:0005BC72   104 0001:0005BC7E
   105 0001:0005BC8F   107 0001:0005BCAD   111 0001:0005BCB7   112 0001:0005BCC2
   113 0001:0005BCC8   114 0001:0005BCD9   116 0001:0005BCE6   120 0001:0005BCF0
   121 0001:0005BCFB   135 0001:0005BD00   137 0001:0005BD0C   140 0001:0005BD19
   142 0001:0005BD23   143 0001:0005BD27   144 0001:0005BD3E   145 0001:0005BD75
   146 0001:0005BD84   147 0001:0005BD9D   148 0001:0005BDAD   150 0001:0005BDB1
   143 0001:0005BDB4   151 0001:0005BDB9   152 0001:0005BDBC   155 0001:0005BDCC
   156 0001:0005BDD8   158 0001:0005BDF2   160 0001:0005BE34   161 0001:0005BE3F
   164 0001:0005BE5B   168 0001:0005BE65   171 0001:0005BE80   172 0001:0005BEA0
   175 0001:0005BED7   176 0001:0005BEDB   156 0001:0005BEDE   179 0001:0005BEE7
   182 0001:0005BEEB   183 0001:0005BF00   191 0001:0005BF04   192 0001:0005BF10
   193 0001:0005BF25   197 0001:0005BF63

Line numbers for cl_pe(cl_pe.pas) segment .text

   317 0001:0005BF78   318 0001:0005BF8E   319 0001:0005BF9F   347 0001:0005BFA4
   348 0001:0005BFB3   349 0001:0005BFBA   350 0001:0005BFC1   353 0001:0005BFC8
   356 0001:0005BFD5   357 0001:0005BFDA   358 0001:0005BFDF   359 0001:0005BFE4
   361 0001:0005C012   363 0001:0005C044   366 0001:0005C05C   369 0001:0005C05F
   373 0001:0005C068   376 0001:0005C07F   377 0001:0005C082   359 0001:0005C085
   380 0001:0005C08E   381 0001:0005C091   384 0001:0005C094   385 0001:0005C0A2
   386 0001:0005C0AF   387 0001:0005C0BA   388 0001:0005C0C7   389 0001:0005C0CF
   392 0001:0005C0DC   393 0001:0005C0E1   394 0001:0005C0E6   395 0001:0005C0EB
   396 0001:0005C0FA   397 0001:0005C106   399 0001:0005C134   401 0001:0005C16A
   404 0001:0005C173   405 0001:0005C18A   406 0001:0005C19F   409 0001:0005C1B7
   410 0001:0005C1DA   413 0001:0005C1F2   417 0001:0005C1F5   420 0001:0005C206
   423 0001:0005C20A   424 0001:0005C225   427 0001:0005C239   428 0001:0005C23C
   397 0001:0005C23F   429 0001:0005C248   489 0001:0005C250   491 0001:0005C260
   492 0001:0005C26F   495 0001:0005C27A   496 0001:0005C28B   497 0001:0005C298
   498 0001:0005C2A1   499 0001:0005C2B2   500 0001:0005C2C2   504 0001:0005C2CC
   507 0001:0005C2E1   508 0001:0005C2E8   509 0001:0005C2F8   510 0001:0005C30B
   513 0001:0005C319   518 0001:0005C32E   519 0001:0005C33C   520 0001:0005C34C
   521 0001:0005C355   522 0001:0005C35E   523 0001:0005C369   524 0001:0005C36F
   543 0001:0005C375   546 0001:0005C38B   547 0001:0005C399   548 0001:0005C3A9
   549 0001:0005C3B2   550 0001:0005C3B9   551 0001:0005C3C0   552 0001:0005C3DF
   553 0001:0005C3FE   554 0001:0005C41D   555 0001:0005C43C   556 0001:0005C45B
   557 0001:0005C47B   558 0001:0005C49D   559 0001:0005C4BF   562 0001:0005C4D5
   565 0001:0005C4E8   566 0001:0005C4F6   567 0001:0005C506   568 0001:0005C510
   569 0001:0005C51A   570 0001:0005C523   571 0001:0005C52C   572 0001:0005C535
   573 0001:0005C53E   574 0001:0005C547   575 0001:0005C550   576 0001:0005C558
   577 0001:0005C560   578 0001:0005C569   579 0001:0005C572   580 0001:0005C57C
   581 0001:0005C586   582 0001:0005C590   583 0001:0005C59A   584 0001:0005C5A4
   587 0001:0005C5BA   588 0001:0005C5C8   589 0001:0005C5D8   592 0001:0005C5EE
   595 0001:0005C5F3   596 0001:0005C609   597 0001:0005C617   598 0001:0005C627
   599 0001:0005C63F   600 0001:0005C660   601 0001:0005C66C   602 0001:0005C68D
   603 0001:0005C695   607 0001:0005C69F   610 0001:0005C6B5   612 0001:0005C6BF
   618 0001:0005C6E9   619 0001:0005C6F0   623 0001:0005C71E   624 0001:0005C734
   625 0001:0005C742   626 0001:0005C752   627 0001:0005C76A   628 0001:0005C79E
   629 0001:0005C7C1   630 0001:0005C7E3   631 0001:0005C7EB   633 0001:0005C7F5
   636 0001:0005C80B   638 0001:0005C815   644 0001:0005C83F   645 0001:0005C846
   649 0001:0005C874   650 0001:0005C88A   651 0001:0005C898   652 0001:0005C8A8
   653 0001:0005C8C0   654 0001:0005C8F4   655 0001:0005C917   656 0001:0005C939
   657 0001:0005C941   659 0001:0005C94B   662 0001:0005C961   664 0001:0005C96B
   670 0001:0005C995   671 0001:0005C99C   675 0001:0005C9CA   676 0001:0005C9E0
   677 0001:0005C9EE   678 0001:0005C9FE   679 0001:0005CA16   680 0001:0005CA4A
   681 0001:0005CA6D   682 0001:0005CA8F   683 0001:0005CA97   686 0001:0005CAA1
   689 0001:0005CAB7   691 0001:0005CAC1   697 0001:0005CAEB   698 0001:0005CAF2
   702 0001:0005CB20   703 0001:0005CB36   704 0001:0005CB44   705 0001:0005CB54
   706 0001:0005CB6C   707 0001:0005CB9E   708 0001:0005CBC0   709 0001:0005CBC8
   710 0001:0005CBD0   713 0001:0005CBDA   716 0001:0005CBF0   718 0001:0005CBFA
   724 0001:0005CC24   725 0001:0005CC2B   732 0001:0005CC59   735 0001:0005CC65
   740 0001:0005CC77   741 0001:0005CC85   742 0001:0005CC95   743 0001:0005CCAD
   744 0001:0005CCE1   745 0001:0005CD03   746 0001:0005CD0B   747 0001:0005CD13
   750 0001:0005CD1D   751 0001:0005CD33   752 0001:0005CD3A   755 0001:0005CD68
   756 0001:0005CD76   757 0001:0005CD86   758 0001:0005CD9E   759 0001:0005CDA6
   760 0001:0005CDAF   761 0001:0005CDB7   762 0001:0005CDBF   765 0001:0005CDC9
   766 0001:0005CDDF   769 0001:0005CDE6   772 0001:0005CE15   774 0001:0005CE39
   777 0001:0005CE67   778 0001:0005CE75   779 0001:0005CE85   780 0001:0005CE9D
   781 0001:0005CEA7   782 0001:0005CEB0   783 0001:0005CEB8   784 0001:0005CEC0
   788 0001:0005CECA   790 0001:0005CEE0   791 0001:0005CEE7   797 0001:0005CF15
   798 0001:0005CF23   799 0001:0005CF33   800 0001:0005CF4B   801 0001:0005CF55
   802 0001:0005CF5E   803 0001:0005CF66   804 0001:0005CF6E   806 0001:0005CF78
   808 0001:0005CF8E   809 0001:0005CF95   814 0001:0005CFC3   817 0001:0005CFCC
   818 0001:0005CFDC   821 0001:0005CFED   822 0001:0005CFFF   823 0001:0005D010
   824 0001:0005D024   828 0001:0005D034   829 0001:0005D046   830 0001:0005D057
   831 0001:0005D06B   835 0001:0005D07B   836 0001:0005D08D   837 0001:0005D09E
   838 0001:0005D0B2   842 0001:0005D0C2   843 0001:0005D0D4   844 0001:0005D0E5
   845 0001:0005D0F9   849 0001:0005D109   852 0001:0005D11A   853 0001:0005D12B
   854 0001:0005D149   855 0001:0005D15A   858 0001:0005D16A   859 0001:0005D17B
   860 0001:0005D19F   861 0001:0005D1B0   862 0001:0005D1C1   863 0001:0005D1D2
   865 0001:0005D1E2   866 0001:0005D1EE   869 0001:0005D1FA   870 0001:0005D20B
   871 0001:0005D215   872 0001:0005D225   873 0001:0005D22C   874 0001:0005D233
   875 0001:0005D249   877 0001:0005D259   878 0001:0005D265   883 0001:0005D26F
   884 0001:0005D280   887 0001:0005D28A   888 0001:0005D2A2   890 0001:0005D2B2
   891 0001:0005D2BE   896 0001:0005D2C8   897 0001:0005D2D6   898 0001:0005D2EC
   899 0001:0005D2FA   900 0001:0005D310   901 0001:0005D31E   902 0001:0005D334
   903 0001:0005D342   904 0001:0005D358   905 0001:0005D36A   906 0001:0005D378
   908 0001:0005D38E   909 0001:0005D3A0   910 0001:0005D3AE   912 0001:0005D3C4
   913 0001:0005D3D6   914 0001:0005D3E4   916 0001:0005D3FA   917 0001:0005D40C
   918 0001:0005D41A   920 0001:0005D430   921 0001:0005D442   922 0001:0005D450
   924 0001:0005D466   925 0001:0005D474   926 0001:0005D48A   927 0001:0005D498
   928 0001:0005D4AE   929 0001:0005D4BC   931 0001:0005D4D2   932 0001:0005D4E0
   934 0001:0005D4F6   940 0001:0005D506   941 0001:0005D51C   942 0001:0005D52D
   945 0001:0005D545   946 0001:0005D55D   951 0001:0005D56E   952 0001:0005D579
   960 0001:0005D5D4   961 0001:0005D5DB   965 0001:0005D617

Line numbers for g_util(g_util.pas) segment .text

   555 0001:0005D618   556 0001:0005D627   557 0001:0005D630   558 0001:0005D639
   559 0001:0005D670   570 0001:0005D67C   571 0001:0005D68B   572 0001:0005D6A1
   573 0001:0005D6AF   574 0001:0005D6B7   576 0001:0005D732   594 0001:0005D73C
   595 0001:0005D748   596 0001:0005D77C   743 0001:0005D7B7

Line numbers for c32_util(c32_util.pas) segment .text

    38 0001:0005D7B8    39 0001:0005D7C4    40 0001:0005D7CE    41 0001:0005D7D2
    42 0001:0005D7E2    43 0001:0005D7F8    45 0001:0005D803    40 0001:0005D806
    46 0001:0005D80C    50 0001:0005D847

Line numbers for ci_context(ci_context.pas) segment .text

    69 0001:0005D848    70 0001:0005D857    74 0001:0005D87E    75 0001:0005D891
    80 0001:0005D8A6    81 0001:0005D8B0    83 0001:0005D8B7    93 0001:0005D8BC
    94 0001:0005D8C8    95 0001:0005D8CE    96 0001:0005D8DD    97 0001:0005D8F5
    98 0001:0005D904   100 0001:0005D917   108 0001:0005D91C   109 0001:0005D92B
   112 0001:0005D938   113 0001:0005D940   116 0001:0005D94B   117 0001:0005D952
   120 0001:0005D959   123 0001:0005D960   124 0001:0005D96E   135 0001:0005D974
   140 0001:0005D985   141 0001:0005D993   144 0001:0005D9A8   147 0001:0005D9AF
   148 0001:0005D9B7   151 0001:0005D9C2   154 0001:0005D9D0   157 0001:0005D9DC
   158 0001:0005D9E8   159 0001:0005D9F8   166 0001:0005D9FC   167 0001:0005DA0F
   168 0001:0005DA21   169 0001:0005DA3F   159 0001:0005DA42   170 0001:0005DA48
   171 0001:0005DA50   173 0001:0005DA60   174 0001:0005DA6D   182 0001:0005DA7C
   183 0001:0005DA8B   184 0001:0005DA94   185 0001:0005DA9D   193 0001:0005DAA4
   194 0001:0005DAB0   195 0001:0005DAB9   203 0001:0005DAC0   204 0001:0005DAD5
   205 0001:0005DADE   206 0001:0005DAED   207 0001:0005DAF6   208 0001:0005DAFF
   212 0001:0005DB3F

Line numbers for ci_rtl(ci_rtl.pas) segment .text

    76 0001:0005DB40    77 0001:0005DB4F    79 0001:0005DB59    82 0001:0005DB65
    85 0001:0005DB79    86 0001:0005DB81    89 0001:0005DB91    92 0001:0005DBA5
    95 0001:0005DBB7    97 0001:0005DBC4   105 0001:0005DBCC   106 0001:0005DBDB
   107 0001:0005DBED   118 0001:0005DBF4   119 0001:0005DC03   120 0001:0005DC16
   121 0001:0005DC25   122 0001:0005DC34   123 0001:0005DC43   124 0001:0005DC52
   126 0001:0005DC5E   138 0001:0005DC64   143 0001:0005DC73   146 0001:0005DC82
   149 0001:0005DC99   150 0001:0005DCA3   151 0001:0005DCB6   152 0001:0005DCBF
   155 0001:0005DCC6   158 0001:0005DCE3   159 0001:0005DCF4   173 0001:0005DCF8
   175 0001:0005DD0A   178 0001:0005DD19   179 0001:0005DD23   180 0001:0005DD36
   181 0001:0005DD4F   184 0001:0005DD56   185 0001:0005DD60   186 0001:0005DD73
   187 0001:0005DD8C   190 0001:0005DD93   191 0001:0005DDA0   192 0001:0005DDAE
   193 0001:0005DDB8   194 0001:0005DDD6   197 0001:0005DDEA   198 0001:0005DDF7
   199 0001:0005DE00   200 0001:0005DE0A   201 0001:0005DE28   204 0001:0005DE3C
   205 0001:0005DE4D   206 0001:0005DE5E   220 0001:0005DE64   222 0001:0005DE76
   225 0001:0005DE85   228 0001:0005DE90   229 0001:0005DE9A   230 0001:0005DEAD
   231 0001:0005DEC6   234 0001:0005DECD   235 0001:0005DED7   236 0001:0005DEEA
   237 0001:0005DF03   240 0001:0005DF0A   243 0001:0005DF27   246 0001:0005DF38
   249 0001:0005DF55   252 0001:0005DF66   255 0001:0005DF83   258 0001:0005DF98
   259 0001:0005DFA9   263 0001:0005DFBA   267 0001:0005DFF7

Line numbers for ci_fragment(ci_fragment.pas) segment .text

   294 0001:0005DFF8   295 0001:0005E009   298 0001:0005E01D   300 0001:0005E03D
   303 0001:0005E05E   307 0001:0005E06F   308 0001:0005E086   309 0001:0005E08F
   313 0001:0005E0AF   314 0001:0005E0BD   316 0001:0005E0D2   318 0001:0005E0EF
   326 0001:0005E10C   327 0001:0005E115   332 0001:0005E130   335 0001:0005E13E
   339 0001:0005E154   341 0001:0005E161   343 0001:0005E173   346 0001:0005E19E
   348 0001:0005E1B3   350 0001:0005E1D0   354 0001:0005E1EB   357 0001:0005E1F9
   361 0001:0005E20F   363 0001:0005E221   365 0001:0005E244   368 0001:0005E265
   369 0001:0005E26F   372 0001:0005E285   375 0001:0005E2A7   378 0001:0005E2C2
   379 0001:0005E2D0   382 0001:0005E2DE   387 0001:0005E2F4   388 0001:0005E300
   394 0001:0005E31C   395 0001:0005E325   399 0001:0005E336   401 0001:0005E345
   404 0001:0005E366   407 0001:0005E37B   410 0001:0005E389   415 0001:0005E39C
   417 0001:0005E3BD   429 0001:0005E3C8   431 0001:0005E3D7   432 0001:0005E3E1
   435 0001:0005E3E8   438 0001:0005E400   439 0001:0005E406   440 0001:0005E415
   450 0001:0005E42A   455 0001:0005E4A3   456 0001:0005E4BD   460 0001:0005E4CA
   466 0001:0005E4D6   467 0001:0005E4DA   470 0001:0005E4E2   474 0001:0005E4EE
   475 0001:0005E509   497 0001:0005E510   498 0001:0005E524   501 0001:0005E549
   503 0001:0005E564   504 0001:0005E56D   508 0001:0005E577   512 0001:0005E596
   514 0001:0005E5AB   516 0001:0005E5B9   517 0001:0005E5C2   521 0001:0005E5CC
   527 0001:0005E5EB   530 0001:0005E5F9   531 0001:0005E609   534 0001:0005E612
   537 0001:0005E628   541 0001:0005E63F   544 0001:0005E65E   545 0001:0005E66F
   546 0001:0005E676   547 0001:0005E688   548 0001:0005E692   549 0001:0005E6B0
   552 0001:0005E6D1   553 0001:0005E6D5   555 0001:0005E6ED   558 0001:0005E705
   563 0001:0005E71B   566 0001:0005E742   568 0001:0005E748   569 0001:0005E75D
   574 0001:0005E767   579 0001:0005E78A   582 0001:0005E7AB   552 0001:0005E7AE
   587 0001:0005E7BA   612 0001:0005E7E1   616 0001:0005E7EB   619 0001:0005E7F9
   625 0001:0005E80C   628 0001:0005E82F   642 0001:0005E83C   646 0001:0005E84D
   647 0001:0005E871   650 0001:0005E893   651 0001:0005E8A4   652 0001:0005E8AB
   655 0001:0005E8C6   656 0001:0005E8CA   658 0001:0005E8DA   661 0001:0005E8EC
   663 0001:0005E90A   655 0001:0005E90D   664 0001:0005E913   682 0001:0005E91C
   684 0001:0005E925   686 0001:0005E93B   687 0001:0005E945   690 0001:0005E966
   693 0001:0005E98A   695 0001:0005E99E   697 0001:0005E9A4   698 0001:0005E9B5
   703 0001:0005E9BF   705 0001:0005E9E3   707 0001:0005E9FE   712 0001:0005EA10
   714 0001:0005EA22   715 0001:0005EA2C   716 0001:0005EA33   717 0001:0005EA3C
   718 0001:0005EA44   721 0001:0005EA4D   724 0001:0005EA68   728 0001:0005EA7B
   729 0001:0005EA9E   733 0001:0005EAB0   734 0001:0005EAE4   741 0001:0005EAF3
   749 0001:0005EB10   752 0001:0005EB2F   756 0001:0005EB3B   759 0001:0005EB49
   764 0001:0005EB5F   768 0001:0005EB9E   775 0001:0005EBAD   781 0001:0005EBBE
   782 0001:0005EBD0   783 0001:0005EBD7   784 0001:0005EBE1   788 0001:0005EBF2
   794 0001:0005EC44   797 0001:0005EC5E   800 0001:0005EC96   803 0001:0005ECA4
   811 0001:0005ECBA   814 0001:0005ECD4   817 0001:0005ECEF   820 0001:0005ECFD
   830 0001:0005ED10   833 0001:0005ED1E   837 0001:0005ED3A   840 0001:0005ED59
   843 0001:0005ED65   856 0001:0005ED70   858 0001:0005ED81   863 0001:0005EDA8
   864 0001:0005EDB1   865 0001:0005EDBC   869 0001:0005EDC5   872 0001:0005EDDB
   873 0001:0005EDEF   874 0001:0005EDF5   875 0001:0005EDFB   876 0001:0005EE01
   877 0001:0005EE07   881 0001:0005EE13   887 0001:0005EE2D   890 0001:0005EE48
   893 0001:0005EE56   894 0001:0005EE67   906 0001:0005EE70   908 0001:0005EE81
   910 0001:0005EE9C   911 0001:0005EEA3   915 0001:0005EEB2   917 0001:0005EEBF
   924 0001:0005EED5   925 0001:0005EEDE   929 0001:0005EEFF   931 0001:0005EF08
   937 0001:0005EF25   938 0001:0005EF3B   941 0001:0005EF45   945 0001:0005EF62
   948 0001:0005EF70   952 0001:0005EF83   954 0001:0005EF8C   960 0001:0005EF98
   963 0001:0005EFAE   966 0001:0005EFB8   969 0001:0005EFD3   972 0001:0005EFE1
   974 0001:0005EFF2   986 0001:0005EFFC   987 0001:0005F00D   989 0001:0005F031
   996 0001:0005F04C   997 0001:0005F056   998 0001:0005F069   999 0001:0005F072
  1002 0001:0005F087  1005 0001:0005F0A2  1008 0001:0005F0B0  1014 0001:0005F0C6
  1015 0001:0005F0D0  1016 0001:0005F0E3  1017 0001:0005F0EC  1020 0001:0005F101
  1023 0001:0005F122  1024 0001:0005F13D  1027 0001:0005F158  1028 0001:0005F166
  1031 0001:0005F174  1034 0001:0005F187  1036 0001:0005F193  1046 0001:0005F19C
  1047 0001:0005F1AD  1051 0001:0005F1C1  1052 0001:0005F1D4  1053 0001:0005F1E7
  1054 0001:0005F1ED  1055 0001:0005F20B  1057 0001:0005F219  1058 0001:0005F232
  1069 0001:0005F23C  1071 0001:0005F24B  1074 0001:0005F25D  1075 0001:0005F278
  1086 0001:0005F280  1088 0001:0005F28F  1089 0001:0005F299  1090 0001:0005F2AC
  1091 0001:0005F2BA  1092 0001:0005F2C1  1095 0001:0005F2D9  1096 0001:0005F2E3
  1099 0001:0005F2FE  1102 0001:0005F30C  1105 0001:0005F31A  1106 0001:0005F328
  1118 0001:0005F330  1119 0001:0005F33F  1125 0001:0005F383  1128 0001:0005F3A6
  1129 0001:0005F3BC  1132 0001:0005F3C3  1135 0001:0005F3E0  1141 0001:0005F3F3
  1142 0001:0005F409  1143 0001:0005F41C  1146 0001:0005F423  1149 0001:0005F440
  1154 0001:0005F453  1156 0001:0005F490  1161 0001:0005F4B2  1164 0001:0005F4C8
  1167 0001:0005F4E0  1168 0001:0005F4F0  1171 0001:0005F4F7  1174 0001:0005F514
  1180 0001:0005F527  1183 0001:0005F53D  1186 0001:0005F544  1189 0001:0005F555
  1190 0001:0005F566  1191 0001:0005F583  1192 0001:0005F590  1189 0001:0005F593
  1195 0001:0005F599  1198 0001:0005F5A9  1205 0001:0005F5B5  1208 0001:0005F5D1
  1211 0001:0005F5E6  1214 0001:0005F603  1217 0001:0005F613  1219 0001:0005F61F
  1230 0001:0005F628  1232 0001:0005F637  1233 0001:0005F642  1236 0001:0005F655
  1241 0001:0005F65B  1242 0001:0005F661  1243 0001:0005F680  1241 0001:0005F683
  1249 0001:0005F68B  1251 0001:0005F695  1259 0001:0005F69C  1261 0001:0005F6AB
  1262 0001:0005F6B7  1263 0001:0005F6BD  1264 0001:0005F6DC  1266 0001:0005F6EE
  1267 0001:0005F6FF  1271 0001:0005F70E  1272 0001:0005F714  1273 0001:0005F71A
  1274 0001:0005F739  1275 0001:0005F74B  1279 0001:0005F757  1280 0001:0005F75D
  1281 0001:0005F763  1282 0001:0005F777  1283 0001:0005F794  1288 0001:0005F7A0
  1289 0001:0005F7AA  1290 0001:0005F7B0  1291 0001:0005F7C6  1293 0001:0005F7CF
  1306 0001:0005F7D8  1307 0001:0005F7E7  1310 0001:0005F81A  1313 0001:0005F82F
  1315 0001:0005F83E  1316 0001:0005F848  1317 0001:0005F853  1320 0001:0005F85A
  1323 0001:0005F875  1327 0001:0005F888  1329 0001:0005F8BB  1330 0001:0005F8C5
  1331 0001:0005F8E0  1332 0001:0005F8FB  1335 0001:0005F909  1338 0001:0005F924
  1344 0001:0005F934  1345 0001:0005F93E  1346 0001:0005F944  1349 0001:0005F94B
  1352 0001:0005F966  1356 0001:0005F974  1370 0001:0005F97C  1371 0001:0005F98B
  1374 0001:0005F9BE  1377 0001:0005F9CF  1379 0001:0005F9DE  1380 0001:0005F9E8
  1381 0001:0005F9F3  1384 0001:0005F9FA  1387 0001:0005FA15  1392 0001:0005FA25
  1415 0001:0005FA2F  1424 0001:0005FA38  1425 0001:0005FA47  1435 0001:0005FA5B
  1437 0001:0005FA6D  1438 0001:0005FA81  1441 0001:0005FA95  1442 0001:0005FA9C
  1446 0001:0005FAAC  1448 0001:0005FAB8  1483 0001:0005FAC0  1484 0001:0005FAC3
  1485 0001:0005FACC  1486 0001:0005FB08  1487 0001:0005FB28  1495 0001:0005FB2C
  1497 0001:0005FB2F  1498 0001:0005FB38  1499 0001:0005FB41  1500 0001:0005FB47
  1501 0001:0005FB7D  1502 0001:0005FB9D  1509 0001:0005FBA0  1510 0001:0005FBAC
  1517 0001:0005FBB7  1518 0001:0005FBC1  1521 0001:0005FBC7  1522 0001:0005FBCE
  1524 0001:0005FBDF  1525 0001:0005FBE5  1528 0001:0005FC09  1531 0001:0005FC17
  1532 0001:0005FC1E  1522 0001:0005FC21  1535 0001:0005FC26  1536 0001:0005FC2D
  1538 0001:0005FC3E  1539 0001:0005FC44  1542 0001:0005FC68  1545 0001:0005FC76
  1546 0001:0005FC7D  1536 0001:0005FC80  1547 0001:0005FC85  1562 0001:0005FC8C
  1564 0001:0005FC98  1565 0001:0005FCA1  1568 0001:0005FCAA  1571 0001:0005FCBB
  1573 0001:0005FCC1  1576 0001:0005FCCF  1579 0001:0005FCDF  1571 0001:0005FCE5
  1581 0001:0005FCEB  1583 0001:0005FCF0  1587 0001:0005FD01  1588 0001:0005FD12
  1591 0001:0005FD23  1594 0001:0005FD35  1604 0001:0005FD47  1632 0001:0005FD50
  1633 0001:0005FD65  1666 0001:0005FD87  1669 0001:0005FD92  1674 0001:0005FDC2
  1677 0001:0005FDF7  1680 0001:0005FE15  1686 0001:0005FE28  1689 0001:0005FE44
  1692 0001:0005FE9A  1693 0001:0005FEAA  1695 0001:0005FEC1  1697 0001:0005FECA
  1698 0001:0005FEDA  1701 0001:0005FEE3  1702 0001:0005FEFB  1705 0001:0005FF19
  1706 0001:0005FF36  1709 0001:0005FF53  1710 0001:0005FF5E  1713 0001:0005FF73
  1716 0001:0005FF97  1719 0001:0005FFAC  1722 0001:0005FFBD  1723 0001:0005FFCE
  1727 0001:0005FFDF  1728 0001:0005FFF3  1729 0001:00060007  1730 0001:0006001D
  1731 0001:0006002B  1738 0001:00060039  1741 0001:00060062  1744 0001:00060070
  1746 0001:0006007E  1759 0001:00060088  1761 0001:00060097  1764 0001:000600AD
  1767 0001:000600C3  1768 0001:000600D7  1771 0001:000600EB  1774 0001:00060105
  1777 0001:00060114  1778 0001:00060129  1800 0001:00060130  1801 0001:00060143
  1855 0001:0006016E  1858 0001:000601A9  1861 0001:000601B9  1862 0001:000601BF
  1863 0001:000601D4  1861 0001:000601D7  1867 0001:000601DD  1870 0001:000601F0
  1871 0001:000601FB  1874 0001:00060211  1875 0001:0006022B  1878 0001:00060248
  1880 0001:00060258  1881 0001:00060263  1884 0001:0006026E  1887 0001:00060283
  1888 0001:00060296  1889 0001:000602A9  1892 0001:000602B0  1895 0001:000602CD
  1898 0001:000602DE  1901 0001:000602F0  1904 0001:00060311  1907 0001:00060328
  1912 0001:0006033D  1913 0001:00060348  1916 0001:00060353  1919 0001:00060368
  1922 0001:0006037D  1925 0001:0006038E  1928 0001:000603AF  1931 0001:000603C0
  1934 0001:000603D5  1935 0001:000603E3  1938 0001:000603F4  1939 0001:00060402
  1958 0001:0006040C  1959 0001:0006041B  1962 0001:0006044F  1966 0001:0006045A
  1972 0001:0006049B  1975 0001:000604B1  1978 0001:000604C9  1979 0001:000604D6
  1983 0001:000604F5  1987 0001:00060509  1990 0001:0006052A  1994 0001:0006054B
  1995 0001:0006056A  1998 0001:00060589  2010 0001:00060590  2011 0001:0006059F
  2016 0001:000605E5  2021 0001:000605EF  2022 0001:000605FD  2028 0001:00060615
  2029 0001:00060620  2032 0001:00060636  2033 0001:0006064A  2036 0001:00060665
  2040 0001:00060682  2041 0001:0006068F  2044 0001:000606AE  2046 0001:000606BC
  2047 0001:000606D7  2050 0001:000606E5  2053 0001:00060702  2056 0001:0006070C
  2062 0001:0006072D  2063 0001:0006073A  2066 0001:00060759  2079 0001:00060760
  2081 0001:00060767  2083 0001:00060773  2084 0001:00060796  2085 0001:000607A9
  2082 0001:000607B0  2089 0001:000607BD  2090 0001:000607C9  2091 0001:000607D3
  2092 0001:000607F6  2096 0001:00060809  2097 0001:00060816  2098 0001:00060820
  2100 0001:00060843  2108 0001:00060848  2109 0001:0006085A  2113 0001:00060863
  2119 0001:00060872  2122 0001:00060886  2125 0001:000608A5  2126 0001:000608BB
  2129 0001:000608D1  2132 0001:000608EE  2133 0001:000608FB  2134 0001:0006090C
  2135 0001:0006092A  2138 0001:0006093B  2139 0001:00060948  2142 0001:00060967
  2144 0001:00060971  2145 0001:0006097E  2147 0001:00060997  2150 0001:000609A4
  2151 0001:000609AD  2155 0001:000609BA  2156 0001:000609C8  2158 0001:000609D6
  2178 0001:000609DC  2179 0001:000609EB  2182 0001:00060A0D  2183 0001:00060A18
  2186 0001:00060A23  2189 0001:00060A37  2192 0001:00060A56  2195 0001:00060A6C
  2198 0001:00060A89  2199 0001:00060AA6  2202 0001:00060AB7  2205 0001:00060AD4
  2208 0001:00060AF1  2209 0001:00060AFE  2212 0001:00060B1D  2215 0001:00060B3A
  2218 0001:00060B4F  2221 0001:00060B6C  2224 0001:00060B7D  2225 0001:00060B8A
  2228 0001:00060BA9  2231 0001:00060BBE  2232 0001:00060BCC  2240 0001:00060BD4
  2241 0001:00060BE3  2242 0001:00060BF7  2244 0001:00060C03  2245 0001:00060C09
  2246 0001:00060C15  2248 0001:00060C1F  2249 0001:00060C25  2250 0001:00060C2E
  2251 0001:00060C38  2262 0001:00060C3C  2263 0001:00060C4B  2264 0001:00060C5F
  2265 0001:00060C72  2266 0001:00060C78  2267 0001:00060C99  2269 0001:00060CA7
  2270 0001:00060CC0  2274 0001:00060CFB

Line numbers for ci_expr(ci_expr.pas) segment .text

   330 0001:00060CFC   331 0001:00060D0B   332 0001:00060D27   347 0001:00060D30
   348 0001:00060D3F   349 0001:00060D53   350 0001:00060D6F   348 0001:00060D72
   351 0001:00060D78   366 0001:00060D80   367 0001:00060D8F   368 0001:00060DA3
   369 0001:00060DBF   367 0001:00060DC2   370 0001:00060DC8   386 0001:00060DD0
   387 0001:00060DDF   388 0001:00060DF3   389 0001:00060E07   390 0001:00060E23
   388 0001:00060E26   391 0001:00060E2C   387 0001:00060E2F   392 0001:00060E35
   415 0001:00060E3C   417 0001:00060E4E   418 0001:00060E56   423 0001:00060E91
   425 0001:00060EA0   428 0001:00060EAE   434 0001:00060EBA   437 0001:00060ED0
   443 0001:00060F2B   444 0001:00060F3D   445 0001:00060F5B   454 0001:00060F74
   455 0001:00060F86   457 0001:00060F8F   459 0001:00060FA0   464 0001:00060FDE
   467 0001:00061005   470 0001:0006102C   473 0001:00061043   476 0001:0006105A
   477 0001:00061067   478 0001:0006106E   484 0001:0006107F   485 0001:00061088
   489 0001:000610A8   495 0001:000610BA   503 0001:000610C9   505 0001:000610D1
   509 0001:000610E5   512 0001:000610F7   517 0001:00061103   524 0001:00061112
   525 0001:00061120   527 0001:00061129   529 0001:00061137   533 0001:00061159
   540 0001:0006116D   543 0001:0006118F   545 0001:000611B1   551 0001:000611BD
   552 0001:000611C7   556 0001:000611DD   557 0001:000611E5   560 0001:000611EF
   580 0001:00061224   581 0001:00061233   583 0001:00061247   590 0001:00061250
   591 0001:00061261   594 0001:0006127B   595 0001:0006128A   603 0001:000612A6
   604 0001:000612B7   607 0001:000612D1   608 0001:000612E2   609 0001:000612ED
   613 0001:00061307   614 0001:00061319   615 0001:0006132B   634 0001:00061334
   635 0001:00061343   636 0001:00061357   638 0001:0006136E   643 0001:00061377
   644 0001:00061388   647 0001:000613A2   648 0001:000613B1   654 0001:000613CD
   655 0001:000613DE   658 0001:000613F8   659 0001:00061409   663 0001:00061423
   664 0001:00061435   665 0001:00061447   742 0001:00061450   743 0001:00061464
   746 0001:00061478   749 0001:00061497   750 0001:000614A0   751 0001:000614A5
   754 0001:000614AF   757 0001:000614B2   758 0001:000614D1   759 0001:000614EB
   760 0001:000614F1   761 0001:000614F9   765 0001:000614FF   768 0001:00061508
   769 0001:00061511   772 0001:00061513   776 0001:0006151B   777 0001:0006151E
   781 0001:0006152E   784 0001:00061533   785 0001:0006153C   788 0001:00061542
   791 0001:00061554   793 0001:0006156B   794 0001:00061587   797 0001:000615A4
   800 0001:000615B6   801 0001:000615C1   804 0001:000615D7   808 0001:000615ED
   810 0001:000615F7   811 0001:00061606   812 0001:0006160C   815 0001:00061610
   818 0001:00061616   819 0001:00061632   824 0001:00061651   825 0001:0006166D
   826 0001:0006168A   830 0001:00061693   832 0001:0006169F   833 0001:000616BB
   836 0001:000616DB   837 0001:000616ED   840 0001:00061702   843 0001:00061723
   846 0001:00061734   830 0001:0006173D   850 0001:00061749   852 0001:00061756
   853 0001:00061768   856 0001:00061788   857 0001:0006179A   860 0001:000617AF
   863 0001:000617D0   867 0001:000617EE   907 0001:00061804   912 0001:0006180E
   913 0001:0006182A   916 0001:00061847   917 0001:00061863   920 0001:00061883
   921 0001:00061895   924 0001:000618AA   925 0001:000618B9   926 0001:000618DB
   929 0001:000618FB   930 0001:00061909   933 0001:0006190F   934 0001:00061915
   935 0001:00061924   936 0001:00061945   940 0001:00061962   946 0001:0006196C
   949 0001:00061971   954 0001:00061977   955 0001:00061993   961 0001:000619B2
   962 0001:000619CE   965 0001:000619EB   972 0001:000619F4   974 0001:00061A00
   976 0001:00061A18   977 0001:00061A34   980 0001:00061A54   981 0001:00061A66
   984 0001:00061A7B   987 0001:00061A99   991 0001:00061AAA   972 0001:00061AB3
   995 0001:00061ABF   997 0001:00061ACC   998 0001:00061ADE  1001 0001:00061AFE
  1002 0001:00061B10  1005 0001:00061B25  1008 0001:00061B43  1012 0001:00061B61
  1014 0001:00061B72  1037 0001:00061B7C  1038 0001:00061B7F  1042 0001:00061B93
  1046 0001:00061BA5  1047 0001:00061BCA  1050 0001:00061BF4  1055 0001:00061C1B
  1057 0001:00061C2D  1059 0001:00061C54  1061 0001:00061C79  1063 0001:00061C7C
  1065 0001:00061C90  1068 0001:00061C9E  1071 0001:00061CBD  1072 0001:00061CD9
  1075 0001:00061CF6  1078 0001:00061D27  1081 0001:00061D2E  1083 0001:00061D38
  1084 0001:00061D54  1087 0001:00061D71  1088 0001:00061D83  1089 0001:00061D95
  1092 0001:00061DB7  1093 0001:00061DC6  1094 0001:00061DE5  1097 0001:00061E02
  1100 0001:00061E10  1103 0001:00061E19  1105 0001:00061E23  1106 0001:00061E3F
  1109 0001:00061E4C  1110 0001:00061E6B  1113 0001:00061E8F  1117 0001:00061EB3
  1119 0001:00061EC0  1122 0001:00061ECD  1123 0001:00061EEC  1127 0001:00061F0D
  1128 0001:00061F2C  1134 0001:00061F4D  1081 0001:00061F54  1140 0001:00061F5E
  1142 0001:00061F6B  1143 0001:00061F7D  1146 0001:00061F9A  1147 0001:00061FAC
  1148 0001:00061FBE  1151 0001:00061FE0  1154 0001:00061FE9  1156 0001:00061FF6
  1158 0001:00062016  1162 0001:00062035  1165 0001:00062050  1169 0001:0006205E
  1173 0001:00062067  1178 0001:00062074  1181 0001:00062082  1187 0001:00062098
  1190 0001:000620B7  1197 0001:000620CA  1200 0001:000620E8  1202 0001:000620F9
  1227 0001:00062104  1229 0001:00062110  1231 0001:0006217E  1234 0001:000621A4
  1237 0001:000621CA  1240 0001:000621F0  1243 0001:00062216  1246 0001:0006223C
  1250 0001:00062262  1251 0001:00062274  1252 0001:0006229A  1257 0001:000622C0
  1258 0001:000622D2  1259 0001:000622F8  1263 0001:0006231E  1267 0001:00062341
  1268 0001:00062364  1272 0001:00062387  1274 0001:000623AA  1276 0001:000623B6
  1288 0001:000623BC  1292 0001:000623C8  1293 0001:000623E3  1296 0001:0006240C
  1297 0001:00062427  1300 0001:00062445  1303 0001:00062458  1306 0001:0006246F
  1307 0001:0006247E  1309 0001:0006248B  1316 0001:00062490  1317 0001:000624A4
  1320 0001:000624B8  1323 0001:000624C6  1326 0001:000624DC  1327 0001:000624E0
  1332 0001:000624E7  1333 0001:000624EB  1338 0001:000624FB  1339 0001:000624FF
  1344 0001:0006250F  1345 0001:00062513  1349 0001:00062521  1351 0001:00062548
  1352 0001:00062552  1353 0001:00062567  1356 0001:00062584  1357 0001:00062596
  1360 0001:000625B3  1361 0001:000625C5  1364 0001:000625D7  1367 0001:000625E4
  1370 0001:000625F2  1374 0001:00062608  1376 0001:00062615  1377 0001:00062627
  1380 0001:00062644  1383 0001:00062665  1386 0001:00062683  1389 0001:00062690
  1392 0001:000626A2  1395 0001:000626C0  1398 0001:000626D1  1404 0001:000626E4
  1405 0001:00062700  1408 0001:0006271D  1411 0001:00062727  1413 0001:00062738
  1439 0001:00062740  1440 0001:00062752  1474 0001:00062766  1475 0001:00062772
  1476 0001:0006277D  1480 0001:0006278A  1481 0001:00062796  1482 0001:0006279C
  1483 0001:000627A2  1488 0001:000627AF  1489 0001:000627B5  1497 0001:000627BB
  1503 0001:000627D0  1505 0001:000627DE  1507 0001:000627E6  1510 0001:000627EC
  1511 0001:000627F2  1515 0001:000627F8  1516 0001:00062801  1526 0001:0006280B
  1531 0001:00062828  1534 0001:00062831  1539 0001:00062854  1542 0001:00062862
  1545 0001:00062883  1556 0001:000628A4  1557 0001:000628B6  1562 0001:000628D3
  1565 0001:000628E5  1569 0001:000628F4  1570 0001:00062902  1571 0001:00062915
  1577 0001:0006291D  1580 0001:0006293A  1581 0001:00062948  1582 0001:0006294E
  1585 0001:00062954  1588 0001:00062960  1590 0001:00062969  1592 0001:0006297D
  1595 0001:000629B0  1597 0001:000629C4  1601 0001:000629DA  1605 0001:000629E8
  1516 0001:000629F1  1611 0001:000629FB  1616 0001:00062A0F  1619 0001:00062A1A
  1624 0001:00062A27  1627 0001:00062A3C  1630 0001:00062A59  1633 0001:00062A6A
  1636 0001:00062A7F  1639 0001:00062A9C  1642 0001:00062AAA  1648 0001:00062AB9
  1651 0001:00062ACE  1654 0001:00062AED  1657 0001:00062AFE  1660 0001:00062B13
  1663 0001:00062B32  1664 0001:00062B3C  1668 0001:00062B43  1673 0001:00062B5A
  1676 0001:00062B6A  1677 0001:00062B76  1681 0001:00062B8B  1687 0001:00062B97
  1689 0001:00062BA1  1707 0001:00062BA8  1708 0001:00062BBC  1711 0001:00062BD0
  1714 0001:00062BDE  1729 0001:00062C0E  1732 0001:00062C14  1735 0001:00062C28
  1738 0001:00062C43  1741 0001:00062C51  1742 0001:00062C62  1755 0001:00062C6C
  1757 0001:00062C7B  1758 0001:00062C95  1771 0001:00062C9C  1774 0001:00062CAB
  1775 0001:00062CC1  1796 0001:00062CC8  1797 0001:00062CDA  1800 0001:00062CEE
  1803 0001:00062CFC  1806 0001:00062D13  1809 0001:00062D40  1812 0001:00062D5B
  1815 0001:00062D80  1818 0001:00062D9B  1819 0001:00062DA9  1822 0001:00062DB7
  1823 0001:00062DC1  1824 0001:00062DCA  1848 0001:00062DD0  1849 0001:00062DE2
  1852 0001:00062E04  1855 0001:00062E12  1858 0001:00062E29  1861 0001:00062E3A
  1863 0001:00062E46  1864 0001:00062E5F  1868 0001:00062E7C  1871 0001:00062E83
  1874 0001:00062E90  1880 0001:00062EB3  1884 0001:00062EDA  1885 0001:00062EF6
  1889 0001:00062F12  1892 0001:00062F40  1898 0001:00062F63  1899 0001:00062F7C
  1902 0001:00062F99  1903 0001:00062FB2  1906 0001:00062FD2  1907 0001:00062FEE
  1908 0001:00063000  1911 0001:00063015  1912 0001:00063026  1913 0001:00063038
  1917 0001:0006304D  1920 0001:0006306C  1923 0001:00063077  1924 0001:0006307E
  1944 0001:00063088  1945 0001:000630A6  1948 0001:000630C7  1951 0001:000630DC
  1954 0001:000630EF  1960 0001:000630FD  1965 0001:00063109  1970 0001:00063115
  1973 0001:00063121  1978 0001:0006312D  1979 0001:0006313E  1982 0001:0006314C
  1983 0001:00063156  1984 0001:0006315F  2015 0001:00063168  2016 0001:0006317A
  2019 0001:0006318E  2022 0001:0006319C  2025 0001:000631B3  2026 0001:000631C8
  2029 0001:000631D8  2030 0001:000631F4  2035 0001:00063206  2036 0001:00063228
  2038 0001:0006324A  2042 0001:00063252  2046 0001:0006325C  2047 0001:0006326E
  2048 0001:0006327D  2051 0001:0006329A  2052 0001:000632AC  2053 0001:000632BB
  2056 0001:000632DB  2057 0001:000632ED  2060 0001:00063302  2061 0001:0006330F
  2064 0001:0006332A  2065 0001:00063337  2068 0001:00063355  2069 0001:00063362
  2070 0001:0006336C  2073 0001:00063385  2076 0001:000633A4  2079 0001:000633C3
  2080 0001:000633CD  2083 0001:000633EE  2084 0001:000633F8  2087 0001:00063419
  2090 0001:0006343A  2091 0001:0006344D  2094 0001:00063463  2097 0001:00063484
  2100 0001:0006349F  2101 0001:000634AA  2105 0001:000634B5  2106 0001:000634D5
  2109 0001:000634E6  2112 0001:00063505  2113 0001:00063512  2114 0001:00063522
  2115 0001:00063543  2116 0001:00063564  2117 0001:00063585  2121 0001:00063591
  2124 0001:000635A2  2127 0001:000635B7  2130 0001:000635D8  2133 0001:000635ED
  2134 0001:000635FB  2135 0001:0006360C  2136 0001:0006361D  2137 0001:0006362E
  2138 0001:0006363F  2139 0001:00063650  2142 0001:00063661  2143 0001:0006366B
  2148 0001:00063695  2153 0001:000636A1  2154 0001:000636AE  2158 0001:000636BA
  2159 0001:000636C6  2181 0001:000636CC  2183 0001:000636D8  2184 0001:00063701
  2187 0001:00063727  2190 0001:00063742  2193 0001:00063765  2196 0001:00063779
  2197 0001:00063786  2198 0001:000637A0  2218 0001:000637A4  2219 0001:000637B6
  2222 0001:000637DB  2225 0001:000637E9  2228 0001:00063800  2229 0001:00063815
  2232 0001:00063825  2233 0001:00063831  2237 0001:00063840  2238 0001:0006384C
  2243 0001:0006385B  2249 0001:0006386E  2250 0001:00063886  2254 0001:00063890
  2257 0001:000638B2  2258 0001:000638C4  2259 0001:000638D3  2262 0001:000638F0
  2263 0001:00063902  2264 0001:00063911  2267 0001:00063931  2268 0001:00063943
  2271 0001:00063958  2272 0001:00063965  2275 0001:00063980  2276 0001:0006398D
  2279 0001:000639AB  2280 0001:000639B8  2281 0001:000639C2  2284 0001:000639DB
  2285 0001:000639E5  2288 0001:00063A06  2293 0001:00063A0C  2294 0001:00063A19
  2295 0001:00063A27  2298 0001:00063A35  2303 0001:00063A58  2304 0001:00063A62
  2308 0001:00063A83  2311 0001:00063A8E  2319 0001:00063A9F  2320 0001:00063ABF
  2323 0001:00063AD0  2324 0001:00063AE3  2325 0001:00063AE9  2330 0001:00063AFF
  2331 0001:00063B09  2332 0001:00063B0D  2335 0001:00063B1D  2336 0001:00063B27
  2337 0001:00063B2B  2341 0001:00063B3A  2342 0001:00063B3E  2346 0001:00063B49
  2349 0001:00063B5F  2352 0001:00063B7E  2353 0001:00063B8B  2358 0001:00063BAB
  2361 0001:00063BC0  2362 0001:00063BCE  2363 0001:00063BDF  2364 0001:00063BF0
  2365 0001:00063C01  2368 0001:00063C12  2369 0001:00063C1C  2371 0001:00063C30
  2398 0001:00063C38  2400 0001:00063C44  2404 0001:00063C50  2410 0001:00063C68
  2411 0001:00063C7A  2412 0001:00063CA0  2415 0001:00063CBA  2418 0001:00063CD8
  2419 0001:00063CE5  2420 0001:00063CEF  2423 0001:00063D11  2424 0001:00063D2F
  2427 0001:00063D4D  2430 0001:00063D6C  2432 0001:00063D79  2433 0001:00063D83
  2434 0001:00063D94  2435 0001:00063DB6  2436 0001:00063DC6  2439 0001:00063DD5
  2440 0001:00063DDF  2441 0001:00063DEF  2442 0001:00063E11  2443 0001:00063E21
  2447 0001:00063E2D  2448 0001:00063E3B  2449 0001:00063E5D  2450 0001:00063E6D
  2454 0001:00063E77  2458 0001:00063E9E  2459 0001:00063EAC  2462 0001:00063EBA
  2465 0001:00063ED5  2468 0001:00063EFB  2471 0001:00063F12  2474 0001:00063F26
  2477 0001:00063F41  2478 0001:00063F4E  2487 0001:00063F68  2499 0001:00063F6C
  2500 0001:00063F7F  2503 0001:00063FA4  2506 0001:00063FB2  2509 0001:00064044
  2513 0001:0006405F  2514 0001:0006406B  2518 0001:0006407A  2519 0001:00064086
  2525 0001:00064095  2527 0001:000640B5  2528 0001:000640C7  2529 0001:000640D6
  2532 0001:000640F6  2533 0001:00064108  2534 0001:00064117  2537 0001:00064137
  2538 0001:0006414C  2541 0001:00064161  2542 0001:0006416E  2543 0001:00064178
  2546 0001:00064191  2549 0001:000641B0  2551 0001:000641BD  2552 0001:000641C7
  2553 0001:000641CB  2556 0001:000641DE  2557 0001:000641E8  2558 0001:000641EC
  2562 0001:000641FE  2563 0001:00064202  2567 0001:00064210  2570 0001:00064231
  2573 0001:00064250  2574 0001:0006425D  2579 0001:0006427D  2580 0001:0006428E
  2581 0001:0006429F  2582 0001:000642B0  2585 0001:000642C1  2586 0001:000642CB
  2590 0001:000642E1  2591 0001:000642F7  2596 0001:00064303  2599 0001:0006430D
  2612 0001:00064314  2614 0001:00064323  2625 0001:00064339  2638 0001:00064340
  2640 0001:0006434F  2651 0001:00064365  2664 0001:0006436C  2666 0001:0006437B
  2667 0001:00064391  2686 0001:00064398  2687 0001:000643AC  2692 0001:000643BF
  2695 0001:000643D6  2696 0001:000643E5  2699 0001:000643FF  2702 0001:00064411
  2705 0001:0006442D  2707 0001:00064436  2711 0001:0006445A  2713 0001:00064463
  2716 0001:00064482  2719 0001:0006449F  2720 0001:000644C1  2724 0001:000644D9
  2727 0001:000644E5  2730 0001:000644FE  2731 0001:00064508  2734 0001:00064526
  2737 0001:00064534  2743 0001:0006454A  2744 0001:00064554  2747 0001:00064579
  2748 0001:00064588  2749 0001:00064594  2751 0001:000645AE  2785 0001:000645B8
  2787 0001:000645C1  2790 0001:000645D2  2793 0001:000645FD  2797 0001:0006460E
  2801 0001:00064633  2802 0001:0006464B  2803 0001:0006465A  2806 0001:0006468F
  2807 0001:000646B6  2808 0001:000646DD  2809 0001:00064706  2812 0001:0006472A
  2813 0001:00064734  2816 0001:0006475E  2817 0001:00064789  2818 0001:00064790
  2821 0001:000647BA  2824 0001:000647E3  2825 0001:00064814  2826 0001:00064843
  2827 0001:00064872  2828 0001:0006489F  2829 0001:000648C6  2832 0001:000648E3
  2835 0001:00064912  2838 0001:00064948  2839 0001:00064962  2840 0001:0006497C
  2845 0001:0006499E  2851 0001:000649AD  2852 0001:000649DE  2855 0001:000649FB
  2858 0001:00064A29  2863 0001:00064A3B  2864 0001:00064A6A  2867 0001:00064A9F
  2868 0001:00064AC6  2869 0001:00064AED  2870 0001:00064B16  2873 0001:00064B3A
  2874 0001:00064B43  2877 0001:00064B6D  2883 0001:00064BB4  2884 0001:00064BCC
  2885 0001:00064BDB  2888 0001:00064C10  2889 0001:00064C37  2890 0001:00064C5E
  2891 0001:00064C87  2894 0001:00064CAB  2898 0001:00064CDA  2901 0001:00064CF6
  2905 0001:00064D02  2906 0001:00064D17  2909 0001:00064D27  2910 0001:00064D48
  2918 0001:00064D4C  2920 0001:00064D69  2921 0001:00064D76  2924 0001:00064D9B
  2926 0001:00064DAF  2931 0001:00064DBC  2934 0001:00064DE5  2935 0001:00064E00
  2939 0001:00064E1E  2940 0001:00064E3E  2943 0001:00064E62  2944 0001:00064E6C
  2947 0001:00064E8D  2948 0001:00064EB5  2949 0001:00064EBC  2952 0001:00064EE0
  2953 0001:00064F08  2956 0001:00064F30  2957 0001:00064F53  2960 0001:00064F77
  2963 0001:00064F8E  2966 0001:00064F95  2967 0001:00064F9C  2968 0001:00064FA3
  2969 0001:00064FC7  2972 0001:00064FEB  2975 0001:00065002  2976 0001:00065016
  2977 0001:0006502A  2978 0001:00065041  2984 0001:0006505D  2988 0001:0006506C
  2997 0001:0006507B  2998 0001:0006509D  3001 0001:000650C2  3002 0001:000650CF
  3005 0001:000650F4  3006 0001:0006511C  3009 0001:00065142  3010 0001:00065164
  3011 0001:00065174  3014 0001:00065191  3015 0001:0006519B  3018 0001:000651BC
  3019 0001:000651C8  3022 0001:000651CF  3025 0001:000651ED  3026 0001:000651F7
  3029 0001:0006521E  3030 0001:00065232  3031 0001:00065246  3032 0001:0006525D
  3035 0001:00065274  3036 0001:00065288  3039 0001:000652AA  3065 0001:000652B4
  3066 0001:000652C6  3069 0001:000652DA  3071 0001:000652E8  3076 0001:000652F4
  3077 0001:00065306  3080 0001:00065323  3083 0001:00065335  3086 0001:0006533C
  3089 0001:00065359  3103 0001:0006536C  3104 0001:0006537E  3105 0001:0006538D
  3108 0001:000653AD  3111 0001:000653CA  3112 0001:000653DC  3113 0001:000653F1
  3116 0001:00065406  3117 0001:00065410  3120 0001:00065428  3121 0001:00065435
  3124 0001:00065453  3127 0001:00065472  3128 0001:0006548B  3129 0001:00065495
  3132 0001:000654B6  3133 0001:000654D7  3136 0001:000654F2  3137 0001:000654F9
  3140 0001:00065517  3141 0001:00065534  3144 0001:00065554  3145 0001:00065576
  3148 0001:0006559A  3149 0001:000655A8  3150 0001:000655B6  3151 0001:000655C7
  3152 0001:000655D8  3153 0001:000655E9  3155 0001:000655FA  3171 0001:00065600
  3173 0001:0006560F  3175 0001:00065628  3180 0001:00065636  3181 0001:0006564C
  3184 0001:0006566D  3186 0001:00065676  3192 0001:0006568A  3194 0001:0006569A
  3218 0001:000656A0  3220 0001:000656B4  3223 0001:000656C2  3226 0001:000656DA
  3233 0001:000656EA  3234 0001:000656FC  3237 0001:00065719  3238 0001:00065735
  3241 0001:00065755  3242 0001:00065767  3245 0001:0006577C  3250 0001:00065790
  3251 0001:0006579A  3254 0001:000657AA  3259 0001:000657BA  3262 0001:000657C5
  3263 0001:000657DE  3266 0001:000657E5  3272 0001:00065808  3273 0001:0006580F
  3276 0001:0006581F  3277 0001:0006582B  3278 0001:00065838  3279 0001:00065841
  3280 0001:0006585F  3284 0001:00065870  3287 0001:00065893  3293 0001:000658A4
  3296 0001:000658C3  3300 0001:000658D7  3303 0001:000658E2  3306 0001:000658F1
  3308 0001:000658FE  3311 0001:0006591D  3313 0001:0006592A  3314 0001:0006593A
  3315 0001:00065944  3316 0001:00065965  3319 0001:00065985  3320 0001:00065995
  3321 0001:0006599F  3322 0001:000659A9  3323 0001:000659B9  3324 0001:000659DA
  3325 0001:000659E4  3331 0001:000659F6  3335 0001:00065A17  3338 0001:00065A28
  3342 0001:00065A42  3344 0001:00065A51  3345 0001:00065A57  3346 0001:00065A67
  3349 0001:00065A72  3352 0001:00065A82  3356 0001:00065A8E  3357 0001:00065A9D
  3360 0001:00065AB1  3361 0001:00065AC2  3362 0001:00065AD2  3365 0001:00065ADD
  3368 0001:00065AF1  3373 0001:00065AFD  3377 0001:00065B09  3380 0001:00065B10
  3390 0001:00065B33  3391 0001:00065B3A  3394 0001:00065B4A  3395 0001:00065B56
  3396 0001:00065B63  3397 0001:00065B6C  3398 0001:00065B8A  3402 0001:00065B9B
  3410 0001:00065BA5  3413 0001:00065BC5  3417 0001:00065BD3  3421 0001:00065BDF
  3422 0001:00065BED  3425 0001:00065BFE  3426 0001:00065C08  3427 0001:00065C11
  3428 0001:00065C1A  3429 0001:00065C21  3451 0001:00065C2C  3452 0001:00065C3E
  3455 0001:00065C52  3458 0001:00065C60  3461 0001:00065C7F  3463 0001:00065C8B
  3464 0001:00065CA7  3467 0001:00065CC7  3470 0001:00065CE0  3476 0001:00065CF6
  3479 0001:00065D2A  3482 0001:00065D52  3485 0001:00065D5D  3490 0001:00065D83
  3493 0001:00065DA2  3494 0001:00065DC3  3497 0001:00065DE4  3504 0001:00065DFA
  3507 0001:00065E19  3508 0001:00065E23  3511 0001:00065E2D  3513 0001:00065E41
  3514 0001:00065E62  3517 0001:00065E83  3518 0001:00065E93  3519 0001:00065EA3
  3511 0001:00065EA6  3522 0001:00065EAB  3525 0001:00065EBE  3530 0001:00065ECA
  3531 0001:00065ED4  3556 0001:00065EDC  3557 0001:00065EF0  3560 0001:00065F04
  3562 0001:00065F12  3569 0001:00065F22  3570 0001:00065F34  3571 0001:00065F43
  3574 0001:00065F60  3577 0001:00065F72  3578 0001:00065F7C  3579 0001:00065F83
  3585 0001:00065F99  3587 0001:00065FA2  3591 0001:00065FC3  3593 0001:00065FCC
  3596 0001:00065FEB  3597 0001:0006600D  3601 0001:00066025  3604 0001:00066031
  3607 0001:0006604A  3608 0001:00066051  3610 0001:0006606F  3615 0001:0006607B
  3618 0001:00066094  3619 0001:000660A2  3620 0001:000660B3  3627 0001:000660C6
  3631 0001:000660D6  3634 0001:000660ED  3635 0001:000660FF  3636 0001:0006610E
  3639 0001:0006612E  3644 0001:00066143  3645 0001:0006614D  3646 0001:00066154
  3649 0001:0006616A  3655 0001:00066186  3656 0001:00066193  3660 0001:000661B5
  3663 0001:000661C0  3664 0001:000661DE  3670 0001:000661EF  3674 0001:00066204
  3684 0001:00066210  3685 0001:00066222  3689 0001:00066242  3690 0001:00066254
  3693 0001:00066269  3694 0001:0006627B  3697 0001:00066290  3700 0001:000662AF
  3701 0001:000662BD  3702 0001:000662CE  3703 0001:000662DC  3704 0001:000662ED
  3714 0001:00066303  3727 0001:00066322  3732 0001:0006632E  3733 0001:00066340
  3734 0001:0006634F  3737 0001:0006636C  3740 0001:0006637E  3743 0001:00066394
  3748 0001:000663A7  3753 0001:000663B9  3757 0001:000663EC  3758 0001:000663F5
  3759 0001:0006640C  3762 0001:0006642A  3765 0001:0006643B  3771 0001:00066451
  3772 0001:00066463  3773 0001:00066470  3776 0001:00066490  3777 0001:000664A2
  3780 0001:000664BF  3781 0001:000664D1  3784 0001:000664E6  3785 0001:000664F8
  3788 0001:0006650D  3789 0001:0006651B  3790 0001:00066533  3791 0001:00066552
  3795 0001:0006655E  3796 0001:0006656C  3802 0001:0006657D  3818 0001:00066588
  3819 0001:00066598  3822 0001:000665B3  3824 0001:000665BD  3826 0001:000665D8
  3833 0001:000665E9  3836 0001:000665F6  3837 0001:00066626  3840 0001:00066657
  3842 0001:00066669  3861 0001:00066670  3863 0001:00066684  3867 0001:0006668F
  3871 0001:000666B2  3873 0001:000666BB  3874 0001:000666CD  3877 0001:000666EC
  3878 0001:00066708  3882 0001:00066725  3885 0001:00066737  3886 0001:0006674F
  3887 0001:00066755  3888 0001:0006675B  3889 0001:00066761  3890 0001:00066767
  3892 0001:00066773  3895 0001:00066791  3901 0001:000667A7  3903 0001:000667B0
  3904 0001:000667C2  3907 0001:000667E1  3908 0001:000667FD  3912 0001:0006681A
  3915 0001:0006682C  3917 0001:0006683B  3922 0001:0006684E  3924 0001:0006686D
  3928 0001:00066879  3933 0001:0006688C  3936 0001:00066898  3938 0001:000668A4
  3968 0001:000668AC  3970 0001:000668C0  3973 0001:000668D2  3978 0001:000668E1
  3979 0001:000668F5  3980 0001:00066906  3981 0001:00066916  3982 0001:00066924
  3985 0001:0006692F  3987 0001:00066933  3988 0001:00066946  3989 0001:0006695C
  3993 0001:00066967  3996 0001:0006697D  4000 0001:0006698D  4004 0001:000669AF
  4006 0001:000669C7  4010 0001:000669E1  4016 0001:000669F9  4020 0001:00066A0D
  4021 0001:00066A17  4022 0001:00066A1B  4023 0001:00066A29  4028 0001:00066A34
  4034 0001:00066A4C  4035 0001:00066A56  4036 0001:00066A5C  4042 0001:00066A80
  4043 0001:00066A8A  4046 0001:00066A90  4047 0001:00066AB0  4048 0001:00066AC8
  4052 0001:00066ADD  4053 0001:00066AF7  4054 0001:00066B02  4060 0001:00066B14
  4063 0001:00066B26  4067 0001:00066B34  4071 0001:00066B40  4073 0001:00066B5D
  3985 0001:00066B60  4074 0001:00066B6A  4095 0001:00066B7C  4096 0001:00066B8E
  4099 0001:00066BB1  4101 0001:00066BBA  4106 0001:00066BC9  4107 0001:00066BDB
  4110 0001:00066BFB  4116 0001:00066C12  4120 0001:00066C2B  4123 0001:00066C3F
  4125 0001:00066C48  4129 0001:00066C68  4130 0001:00066C6D  4131 0001:00066C76
  4133 0001:00066C81  4132 0001:00066C84  4138 0001:00066C9F  4143 0001:00066CA5
  4144 0001:00066CAF  4147 0001:00066CC5  4153 0001:00066CDF  4154 0001:00066CE9
  4155 0001:00066CFC  4156 0001:00066D03  4159 0001:00066D15  4162 0001:00066D31
  4165 0001:00066D4C  4166 0001:00066D5A  4177 0001:00066D61  4178 0001:00066D71
  4181 0001:00066D95  4193 0001:00066DB2  4194 0001:00066DE1  4197 0001:00066DF0
  4198 0001:00066E06  4202 0001:00066E1C  4203 0001:00066E30  4204 0001:00066E4A
  4205 0001:00066E54  4206 0001:00066E6F  4207 0001:00066E7D  4208 0001:00066E87
  4212 0001:00066E92  4213 0001:00066EA1  4214 0001:00066EC8  4220 0001:00066ED5
  4221 0001:00066EDF  4222 0001:00066EE5  4223 0001:00066EF1  4226 0001:00066F13
  4227 0001:00066F31  4234 0001:00066F4C  4253 0001:00066F7F  4254 0001:00066F9D
  4259 0001:00066FB8  4265 0001:00066FC9  4268 0001:00066FF4  4269 0001:00067006
  4272 0001:00067026  4273 0001:00067038  4276 0001:0006704C  4277 0001:0006705F
  4280 0001:0006706D  4283 0001:0006708D  4284 0001:000670A3  4295 0001:000670BB
  4303 0001:000670D0  4304 0001:000670DA  4305 0001:000670E0  4308 0001:000670EE
  4310 0001:000670FA  4326 0001:00067104  4327 0001:00067113  4332 0001:00067127
  4333 0001:00067131  4334 0001:00067137  4335 0001:00067140  4338 0001:0006715C
  4339 0001:0006717A  4345 0001:00067195  4348 0001:000671B1  4351 0001:000671BB
  4352 0001:000671D0  4353 0001:000671DA  4354 0001:000671F6  4378 0001:0006720C
  4379 0001:0006721A  4380 0001:00067241  4381 0001:0006724B  4387 0001:00067258
  4391 0001:000672C2  4392 0001:000672CC  4393 0001:000672D2  4394 0001:000672DB
  4398 0001:000672F9  4401 0001:00067305  4421 0001:00067314  4426 0001:00067323
  4428 0001:00067364  4449 0001:00067370  4453 0001:0006737C  4456 0001:00067388
  4459 0001:00067394  4462 0001:000673A6  4464 0001:000673B2  4489 0001:000673B8
  4493 0001:000673BC  4496 0001:000673D0  4497 0001:000673DC  4499 0001:00067400
  4511 0001:00067404  4514 0001:0006740A  4518 0001:00067414  4519 0001:00067425
  4520 0001:00067430  4522 0001:0006743A  4523 0001:00067451  4528 0001:0006745C
  4529 0001:0006746B  4550 0001:00067470  4552 0001:00067482  4555 0001:00067486
  4556 0001:0006748B  4558 0001:000674A5  4561 0001:000674B3  4563 0001:000674B9
  4565 0001:000674C4  4569 0001:000674D3  4572 0001:000674D9  4576 0001:000674EB
  4577 0001:00067501  4579 0001:00067512  4595 0001:00067534  4596 0001:00067552
  4600 0001:00067567  4603 0001:00067586  4606 0001:0006759C  4609 0001:000675B0
  4612 0001:000675CD  4618 0001:000675DD  4621 0001:000675FC  4624 0001:0006760B
  4625 0001:00067615  4628 0001:00067620  4631 0001:0006763D  4636 0001:0006764B
  4637 0001:00067652  4638 0001:0006765C  4642 0001:00067669  4646 0001:00067687
  4652 0001:000676AB  4655 0001:000676E0  4656 0001:000676FC  4660 0001:0006770B
  4663 0001:0006771F  4666 0001:00067733  4669 0001:00067747  4671 0001:00067753
  4675 0001:0006775F  4678 0001:00067771  4681 0001:0006779D  4687 0001:000677C2
  4691 0001:000677CC  4637 0001:000677D3  4695 0001:000677DD  4696 0001:000677EB
  4697 0001:000677F1  4698 0001:000677F7  4699 0001:00067800  4702 0001:0006781B
  4706 0001:00067834  4713 0001:0006785C  4715 0001:0006786A  4719 0001:00067870
  4720 0001:00067882  4725 0001:000678A7  4726 0001:000678B1  4727 0001:000678BB
  4728 0001:000678C2  4735 0001:000678E4  4736 0001:000678F2  4739 0001:00067903
  4740 0001:00067915  4741 0001:00067932  4746 0001:00067945  4749 0001:00067971
  4750 0001:0006797F  4753 0001:00067990  4754 0001:000679A2  4757 0001:000679BF
  4760 0001:000679D1  4763 0001:000679EE  4766 0001:00067A06  4767 0001:00067A0A
  4768 0001:00067A12  4769 0001:00067A19  4770 0001:00067A28  4773 0001:00067A33
  4776 0001:00067A4B  4777 0001:00067A4F  4778 0001:00067A57  4779 0001:00067A5E
  4784 0001:00067A7A  4788 0001:00067A86  4790 0001:00067A96  4795 0001:00067A9C
  4796 0001:00067AAE  4799 0001:00067ACB  4804 0001:00067AE2  4812 0001:00067AF4
  4813 0001:00067B06  4816 0001:00067B23  4819 0001:00067B35  4822 0001:00067B3C
  4825 0001:00067B5B  4826 0001:00067B68  4827 0001:00067B86  4830 0001:00067B93
  4833 0001:00067B9E  4834 0001:00067BBE  4837 0001:00067BCF  4840 0001:00067BEF
  4843 0001:00067C04  4846 0001:00067C17  4853 0001:00067C23  4856 0001:00067C31
  4859 0001:00067C4E  4862 0001:00067C5C  4865 0001:00067C6F  4866 0001:00067C7A
  4871 0001:00067C93  4874 0001:00067CB2  4875 0001:00067CBC  4876 0001:00067CD5
  4880 0001:00067CDE  4881 0001:00067CEB  4882 0001:00067D09  4883 0001:00067D29
  4892 0001:00067D3F  4895 0001:00067D5E  4899 0001:00067D67  4905 0001:00067D82
  4908 0001:00067D91  4912 0001:00067D9F  4915 0001:00067DBD  4916 0001:00067DD1
  4919 0001:00067DDA  4922 0001:00067DF7  4923 0001:00067E0B  4928 0001:00067E19
  4931 0001:00067E2F  4939 0001:00067E47  4941 0001:00067E4E  4944 0001:00067E6D
  4948 0001:00067E90  4951 0001:00067E9C  4952 0001:00067EB2  4955 0001:00067EC8
  4971 0001:00067ED4  4973 0001:00067EE3  4974 0001:00067EF2  4977 0001:00067F13
  4978 0001:00067F2D  5001 0001:00067F34  5003 0001:00067F48  5006 0001:00067F56
  5007 0001:00067F68  5008 0001:00067F85  5012 0001:00067F96  5013 0001:00067FA8
  5016 0001:00067FC8  5017 0001:00067FDA  5020 0001:00067FEF  5023 0001:00068011
  5026 0001:00068033  5027 0001:00068044  5028 0001:00068066  5032 0001:0006807A
  5036 0001:0006809E  5037 0001:000680EB  5038 0001:00068106  5042 0001:00068119
  5044 0001:00068122  5047 0001:0006813B  5048 0001:00068156  5052 0001:00068162
  5054 0001:0006816B  5057 0001:00068184  5063 0001:000681A1  5066 0001:000681BA
  5070 0001:000681D2  5071 0001:000681DD  5077 0001:000681F0  5078 0001:000681FB
  5079 0001:00068206  5084 0001:00068219  5092 0001:00068228  5095 0001:00068233
  5100 0001:00068256  5103 0001:00068273  5106 0001:0006828C  5107 0001:00068297
  5110 0001:000682AC  5113 0001:000682BD  5119 0001:000682D7  5122 0001:000682F6
  5125 0001:0006830C  5128 0001:00068329  5129 0001:00068334  5132 0001:0006834C
  5135 0001:00068361  5136 0001:0006837E  5139 0001:0006838F  5143 0001:000683A2
  5147 0001:000683AE  5148 0001:000683BF  5157 0001:000683CC  5158 0001:000683E2
  5162 0001:000683F8  5163 0001:00068409  5185 0001:00068418  5187 0001:0006842C
  5189 0001:00068437  5193 0001:00068461  5194 0001:00068473  5197 0001:00068490
  5200 0001:000684A2  5202 0001:000684BB  5203 0001:000684DA  5206 0001:000684F3
  5209 0001:00068544  5212 0001:00068552  5218 0001:0006856B  5221 0001:00068590
  5222 0001:0006859C  5223 0001:000685B5  5226 0001:000685C7  5229 0001:000685D5
  5230 0001:000685F4  5233 0001:0006860A  5234 0001:0006861E  5235 0001:00068628
  5236 0001:00068635  5237 0001:0006863F  5238 0001:00068646  5239 0001:0006864F
  5242 0001:00068670  5245 0001:0006868C  5246 0001:00068698  5247 0001:000686A5
  5248 0001:000686AF  5252 0001:000686C2  5253 0001:000686D4  5254 0001:000686E1
  5258 0001:000686F0  5260 0001:00068702  5261 0001:00068714  5264 0001:00068734
  5267 0001:00068749  5273 0001:0006876C  5276 0001:00068778  5279 0001:00068799
  5281 0001:000687AC  5284 0001:000687C8  5289 0001:0006880D  5292 0001:00068819
  5294 0001:00068825  5296 0001:00068831  5315 0001:00068840  5317 0001:00068853
  5320 0001:0006885E  5325 0001:0006886F  5328 0001:00068881  5329 0001:00068897
  5332 0001:000688BA  5338 0001:000688DC  5339 0001:000688EE  5344 0001:00068910
  5346 0001:00068939  5350 0001:00068963  5351 0001:0006897B  5354 0001:00068998
  5355 0001:000689A2  5356 0001:000689AD  5357 0001:000689C0  5364 0001:000689E4
  5365 0001:00068A00  5371 0001:00068A1F  5374 0001:00068A2B  5376 0001:00068A37
  5380 0001:00068A43  5404 0001:00068A4C  5406 0001:00068A55  5407 0001:00068A6A
  5410 0001:00068A99  5413 0001:00068AB0  5414 0001:00068AD4  5418 0001:00068AD8
  5419 0001:00068AEA  5422 0001:00068AFB  5428 0001:00068B05  5429 0001:00068B0F
  5430 0001:00068B15  5434 0001:00068B2E  5440 0001:00068B45  5443 0001:00068BA9
  5444 0001:00068BB8  5450 0001:00068BDA  5451 0001:00068BE9  5454 0001:00068C06
  5459 0001:00068C2D  5460 0001:00068C3C  5464 0001:00068C5E  5467 0001:00068C6C
  5472 0001:00068C7A  5475 0001:00068C83  5479 0001:00068CA2  5484 0001:00068CAD
  5487 0001:00068CB6  5490 0001:00068CD3  5493 0001:00068CE1  5494 0001:00068CEB
  5497 0001:00068CF4  5500 0001:00068D02  5502 0001:00068D0E  5520 0001:00068D14
  5522 0001:00068D26  5523 0001:00068D34  5526 0001:00068D3D  5530 0001:00068D54
  5531 0001:00068D66  5534 0001:00068D83  5539 0001:00068DAA  5543 0001:00068DBD
  5545 0001:00068DF1  5546 0001:00068E0D  5550 0001:00068E2F  5552 0001:00068E4D
  5553 0001:00068E69  5557 0001:00068E88  5572 0001:00068E9C  5576 0001:00068EAA
  5583 0001:00068EB6  5602 0001:00068EBC  5604 0001:00068ECE  5607 0001:00068EDC
  5611 0001:00068EE2  5616 0001:00068EEE  5620 0001:00068F02  5621 0001:00068F14
  5625 0001:00068F31  5626 0001:00068F45  5646 0001:00068F4C  5648 0001:00068F5E
  5651 0001:00068F6C  5655 0001:00068F7B  5658 0001:00068F97  5663 0001:00068FB9
  5665 0001:00068FD5  5668 0001:00068FEB  5671 0001:00069005  5672 0001:00069017
  5675 0001:00069034  5679 0001:0006903D  5685 0001:00069050  5688 0001:00069063
  5691 0001:00069083  5697 0001:00069096  5700 0001:000690A2  5705 0001:000690AE
  5741 0001:000690B8  5758 0001:000690C0  5760 0001:000690CF  5777 0001:000690F9
  5785 0001:00069100  5786 0001:0006910F  5789 0001:0006912E  5791 0001:00069190
  5794 0001:000691AB  5797 0001:000691C6  5800 0001:000691E1  5803 0001:000691FC
  5806 0001:00069217  5809 0001:00069232  5812 0001:0006924D  5815 0001:00069268
  5818 0001:00069283  5821 0001:0006929E  5824 0001:000692B6  5827 0001:000692CE
  5830 0001:000692E6  5835 0001:000692FE  5836 0001:00069306  5838 0001:0006931C
  5841 0001:00069328  5853 0001:00069330  5855 0001:00069342  5856 0001:0006934A
  5857 0001:00069354  5861 0001:0006935C  5863 0001:0006936A  5866 0001:00069379
  5869 0001:000693B5  5870 0001:000693BD  5873 0001:000693C4  5874 0001:000693CC
  5879 0001:000693D6  5880 0001:000693DE  5883 0001:000693E8  5899 0001:00069490
  5900 0001:000694A2  5903 0001:000694BE  5904 0001:000694C6  5905 0001:000694D0
  5909 0001:000694D8  5911 0001:000694E6  5916 0001:000694FF  5919 0001:0006950E
  5925 0001:00069534  5928 0001:0006954E  5929 0001:00069563  5932 0001:00069583
  5934 0001:00069598  5937 0001:0006959E  5942 0001:000695A6  5945 0001:000695C3
  5949 0001:000695C7  5952 0001:000695D8  5956 0001:0006961E  5957 0001:00069626
  5960 0001:0006962D  5961 0001:00069635  5966 0001:0006963F  5967 0001:00069647
  5970 0001:00069651  5983 0001:000696F8  5984 0001:0006970A  5986 0001:00069737
  5988 0001:00069745  5991 0001:00069754  5992 0001:00069769  5995 0001:0006978C
  5998 0001:000697C4  5999 0001:000697CC  6002 0001:000697D3  6003 0001:000697DB
  6006 0001:000697E5  6014 0001:000697EC  6016 0001:000697FB  6017 0001:00069803
  6018 0001:0006980D  6022 0001:00069815  6024 0001:00069823  6027 0001:0006983D
  6030 0001:00069872  6031 0001:0006987A  6034 0001:00069881  6035 0001:00069889
  6040 0001:00069893  6041 0001:0006989B  6044 0001:000698A5  6052 0001:0006994C
  6054 0001:0006995B  6055 0001:00069963  6056 0001:0006996D  6060 0001:00069975
  6062 0001:00069983  6065 0001:0006999D  6068 0001:000699D2  6069 0001:000699DA
  6072 0001:000699E1  6073 0001:000699E9  6078 0001:000699F3  6079 0001:000699FB
  6082 0001:00069A05  6093 0001:00069AAC  6095 0001:00069ABB  6096 0001:00069AC3
  6097 0001:00069ACD  6101 0001:00069AD5  6103 0001:00069AE3  6104 0001:00069AEF
  6107 0001:00069B09  6113 0001:00069B17  6114 0001:00069B1D  6115 0001:00069B37
  6119 0001:00069B6C  6120 0001:00069B74  6123 0001:00069B7B  6124 0001:00069B83
  6129 0001:00069B8D  6130 0001:00069B95  6133 0001:00069B9F  6146 0001:00069C48
  6148 0001:00069C57  6149 0001:00069C5F  6150 0001:00069C69  6154 0001:00069C71
  6156 0001:00069C7F  6157 0001:00069C8B  6160 0001:00069CA5  6163 0001:00069CAF
  6164 0001:00069CB5  6165 0001:00069CCF  6169 0001:00069D04  6170 0001:00069D0C
  6173 0001:00069D13  6174 0001:00069D1B  6179 0001:00069D25  6180 0001:00069D2D
  6183 0001:00069D37  6192 0001:00069DE0  6196 0001:00069DEF  6199 0001:00069E06
  6202 0001:00069E21  6205 0001:00069E3C  6210 0001:00069E53  6215 0001:00069E6A
  6218 0001:00069E85  6221 0001:00069E9C  6226 0001:00069EB3  6231 0001:00069ECA
  6236 0001:00069EE5  6239 0001:00069EF8  6244 0001:00069F13  6247 0001:00069F2A
  6250 0001:00069F41  6253 0001:00069F5C  6257 0001:00069F77  6260 0001:00069F8E
  6265 0001:00069FA9  6268 0001:00069FBC  6271 0001:00069FD7  6274 0001:00069FF2
  6279 0001:0006A00D  6282 0001:0006A020  6287 0001:0006A037  6292 0001:0006A04E
  6296 0001:0006A065  6305 0001:0006A0B8  6306 0001:0006A0BD  6310 0001:0006A0F7

Line numbers for ci_block(ci_block.pas) segment .text

    67 0001:0006A0F8    69 0001:0006A109    72 0001:0006A11B    75 0001:0006A124
    76 0001:0006A12F   105 0001:0006A138   106 0001:0006A14D   113 0001:0006A153
   115 0001:0006A159   118 0001:0006A16F   113 0001:0006A178   120 0001:0006A17E
   133 0001:0006A188   138 0001:0006A197   139 0001:0006A1AC   152 0001:0006A1B4
   157 0001:0006A1C3   162 0001:0006A1DA   165 0001:0006A1F8   171 0001:0006A20E
   173 0001:0006A222   186 0001:0006A228   191 0001:0006A237   192 0001:0006A240
   196 0001:0006A259   197 0001:0006A26D   210 0001:0006A274   214 0001:0006A283
   219 0001:0006A28C   224 0001:0006A293   227 0001:0006A2A8   231 0001:0006A2B1
   236 0001:0006A2BD   243 0001:0006A2CC   248 0001:0006A2E0   261 0001:0006A2E8
   265 0001:0006A2F7   266 0001:0006A301   279 0001:0006A308   284 0001:0006A317
   285 0001:0006A326   290 0001:0006A33A   291 0001:0006A354   324 0001:0006A35C
   325 0001:0006A365   327 0001:0006A386   330 0001:0006A3A6   333 0001:0006A3CA
   336 0001:0006A3F0   337 0001:0006A414   340 0001:0006A437   342 0001:0006A43C
   344 0001:0006A457   345 0001:0006A46E   348 0001:0006A484   354 0001:0006A4AC
   360 0001:0006A4B8   365 0001:0006A4CC   368 0001:0006A4DE   371 0001:0006A504
   377 0001:0006A516   380 0001:0006A528   387 0001:0006A54E   391 0001:0006A55A
   394 0001:0006A570   409 0001:0006A57C   410 0001:0006A589   411 0001:0006A590
   415 0001:0006A59C   418 0001:0006A5A5   430 0001:0006A5B6   435 0001:0006A5C6
   436 0001:0006A5D8   439 0001:0006A5FE   442 0001:0006A607   443 0001:0006A614
   446 0001:0006A634   447 0001:0006A654   450 0001:0006A673   451 0001:0006A689
   459 0001:0006A6A1   463 0001:0006A6AD   468 0001:0006A6B9   469 0001:0006A6CD
   472 0001:0006A6E7   473 0001:0006A6F4   474 0001:0006A70A   479 0001:0006A714
   496 0001:0006A71D   499 0001:0006A73D   509 0001:0006A74E   514 0001:0006A784
   517 0001:0006A791   523 0001:0006A79D   525 0001:0006A7AA   542 0001:0006A7B8
   547 0001:0006A7CA   550 0001:0006A7D9   553 0001:0006A7F5   554 0001:0006A802
   567 0001:0006A808   571 0001:0006A817   572 0001:0006A821   590 0001:0006A828
   592 0001:0006A837   595 0001:0006A842   596 0001:0006A84B   597 0001:0006A855
   600 0001:0006A868   603 0001:0006A884   605 0001:0006A88D   608 0001:0006A898
   612 0001:0006A8B3   615 0001:0006A8CC   616 0001:0006A8D5   620 0001:0006A8E6
   621 0001:0006A8EF   625 0001:0006A904   596 0001:0006A90D   629 0001:0006A917
   632 0001:0006A933   633 0001:0006A948   652 0001:0006A950   654 0001:0006A95F
   657 0001:0006A97B   658 0001:0006A986   659 0001:0006A991   662 0001:0006A9A6
   665 0001:0006A9B4   667 0001:0006A9CD   671 0001:0006A9D6   674 0001:0006A9F2
   680 0001:0006AA0F   682 0001:0006AA2B   686 0001:0006AA3C   687 0001:0006AA51
   712 0001:0006AA58   714 0001:0006AA6A   720 0001:0006AA86   721 0001:0006AA91
   724 0001:0006AA9C   726 0001:0006AAA9   727 0001:0006AAB3   728 0001:0006AABC
   729 0001:0006AAE0   732 0001:0006AB02   733 0001:0006AB0C   734 0001:0006AB15
   735 0001:0006AB39   738 0001:0006AB5B   739 0001:0006AB5F   744 0001:0006AB68
   746 0001:0006AB77   749 0001:0006AB94   750 0001:0006AB9D   751 0001:0006ABBE
   754 0001:0006ABE0   757 0001:0006ABE8   760 0001:0006AC05   761 0001:0006AC0E
   762 0001:0006AC32   765 0001:0006AC51   769 0001:0006AC6B   771 0001:0006AC7B
   772 0001:0006AC85   773 0001:0006AC8E   774 0001:0006ACAB   777 0001:0006ACC6
   778 0001:0006ACD0   779 0001:0006ACD9   780 0001:0006ACF6   783 0001:0006AD11
   784 0001:0006AD15   789 0001:0006AD1E   790 0001:0006AD2D   793 0001:0006AD60
   794 0001:0006AD6A   796 0001:0006AD87   799 0001:0006AD93   801 0001:0006AD9F
   805 0001:0006ADB1   807 0001:0006ADCE   810 0001:0006ADF7   812 0001:0006AE22
   816 0001:0006AE34   818 0001:0006AE3D   822 0001:0006AE4D   826 0001:0006AE53
   827 0001:0006AE57   831 0001:0006AE64   834 0001:0006AE70   837 0001:0006AE7F
   840 0001:0006AE9E   848 0001:0006AEBC   851 0001:0006AECB   854 0001:0006AED5
   859 0001:0006AEDB   862 0001:0006AEFF   865 0001:0006AF1D   868 0001:0006AF3E
   874 0001:0006AF54   878 0001:0006AF72   882 0001:0006AF7B   883 0001:0006AF8D
   884 0001:0006AFA0   889 0001:0006AFB3   890 0001:0006AFC5   891 0001:0006AFD8
   896 0001:0006AFE9   899 0001:0006AFFE   902 0001:0006B00F   905 0001:0006B02B
   908 0001:0006B047   911 0001:0006B056   915 0001:0006B05C   916 0001:0006B080
   917 0001:0006B09E   918 0001:0006B0BF   922 0001:0006B0D5   925 0001:0006B0F3
   928 0001:0006B104   930 0001:0006B10D   932 0001:0006B12F   935 0001:0006B14F
   938 0001:0006B160   944 0001:0006B175   963 0001:0006B17C   965 0001:0006B18B
   968 0001:0006B1A7   969 0001:0006B1B2   970 0001:0006B1BD   973 0001:0006B1D2
   976 0001:0006B1E0   979 0001:0006B1FB   982 0001:0006B214   985 0001:0006B230
   988 0001:0006B241   989 0001:0006B256  1020 0001:0006B25C  1022 0001:0006B26E
  1025 0001:0006B28A  1040 0001:0006B29B  1043 0001:0006B2A6  1044 0001:0006B2AF
  1045 0001:0006B2B4  1046 0001:0006B2BA  1047 0001:0006B2BD  1045 0001:0006B2C6
  1049 0001:0006B2CC  1052 0001:0006B2DD  1053 0001:0006B2F0  1054 0001:0006B301
  1055 0001:0006B313  1056 0001:0006B325  1053 0001:0006B328  1061 0001:0006B32D
  1064 0001:0006B33D  1067 0001:0006B359  1068 0001:0006B362  1070 0001:0006B377
  1073 0001:0006B393  1075 0001:0006B3AF  1080 0001:0006B3C4  1081 0001:0006B3DC
  1086 0001:0006B407  1087 0001:0006B414  1090 0001:0006B42E  1093 0001:0006B44C
  1097 0001:0006B464  1098 0001:0006B47F  1105 0001:0006B495  1106 0001:0006B4A2
  1109 0001:0006B4BC  1112 0001:0006B4DA  1114 0001:0006B4E2  1116 0001:0006B4EA
  1117 0001:0006B4F6  1118 0001:0006B502  1119 0001:0006B515  1122 0001:0006B526
  1123 0001:0006B533  1126 0001:0006B54D  1129 0001:0006B56B  1130 0001:0006B577
  1131 0001:0006B591  1133 0001:0006B5A9  1080 0001:0006B5AC  1195 0001:0006B5B7
  1198 0001:0006B5D1  1202 0001:0006B5DD  1203 0001:0006B5E6  1068 0001:0006B5E9
  1206 0001:0006B5F2  1207 0001:0006B5FB  1209 0001:0006B60C  1212 0001:0006B628
  1215 0001:0006B641  1218 0001:0006B65A  1219 0001:0006B663  1207 0001:0006B666
  1222 0001:0006B66B  1225 0001:0006B687  1226 0001:0006B69C  1239 0001:0006B6A4
  1241 0001:0006B6B3  1243 0001:0006B6CF  1244 0001:0006B6D9  1265 0001:0006B6E0
  1267 0001:0006B6E7  1272 0001:0006B6F0  1273 0001:0006B6F9  1275 0001:0006B702
  1292 0001:0006B708  1294 0001:0006B719  1297 0001:0006B735  1298 0001:0006B745
  1299 0001:0006B748  1302 0001:0006B74C  1308 0001:0006B78B  1311 0001:0006B7A6
  1312 0001:0006B7B1  1313 0001:0006B7BC  1314 0001:0006B7C7  1317 0001:0006B7D2
  1320 0001:0006B7DC  1321 0001:0006B7E2  1325 0001:0006B7F4  1326 0001:0006B800
  1330 0001:0006B80B  1336 0001:0006B811  1339 0001:0006B82A  1342 0001:0006B833
  1343 0001:0006B843  1346 0001:0006B855  1351 0001:0006B86E  1352 0001:0006B874
  1356 0001:0006B886  1359 0001:0006B89F  1360 0001:0006B8A8  1364 0001:0006B8B9
  1365 0001:0006B8C2  1369 0001:0006B8DE  1372 0001:0006B8F3  1377 0001:0006B900
  1380 0001:0006B904  1381 0001:0006B90D  1383 0001:0006B917  1386 0001:0006B933
  1390 0001:0006B948  1393 0001:0006B953  1396 0001:0006B967  1398 0001:0006B97B
  1401 0001:0006B997  1404 0001:0006B9A4  1405 0001:0006B9AF  1406 0001:0006B9C2
  1407 0001:0006B9D3  1396 0001:0006B9D6  1410 0001:0006B9DB  1416 0001:0006B9FB
  1420 0001:0006BA07  1423 0001:0006BA12  1426 0001:0006BA1C  1429 0001:0006BA35
  1432 0001:0006BA4A  1435 0001:0006BA57  1438 0001:0006BA68  1439 0001:0006BA71
  1443 0001:0006BA86  1381 0001:0006BA8F  1446 0001:0006BA99  1450 0001:0006BA9D
  1451 0001:0006BAA6  1455 0001:0006BAC2  1458 0001:0006BAD7  1463 0001:0006BAE0
  1466 0001:0006BAEA  1467 0001:0006BAF0  1471 0001:0006BB02  1475 0001:0006BB1B
  1478 0001:0006BB37  1481 0001:0006BB4C  1486 0001:0006BB5E  1487 0001:0006BB6E
  1490 0001:0006BB80  1494 0001:0006BB9C  1497 0001:0006BBB1  1499 0001:0006BBB7
  1503 0001:0006BBC4  1504 0001:0006BBD0  1506 0001:0006BBE1  1519 0001:0006BBEC
  1524 0001:0006BBFB  1525 0001:0006BC0A  1529 0001:0006BC1E  1530 0001:0006BC3C
  1541 0001:0006BC44  1542 0001:0006BC53  1551 0001:0006BC7A  1557 0001:0006BC8E
  1560 0001:0006BC9A  1564 0001:0006BCB0  1566 0001:0006BCC6  1568 0001:0006BCDE
  1569 0001:0006BCE5  1570 0001:0006BCED  1577 0001:0006BCF5  1581 0001:0006BD03
  1585 0001:0006BD11  1589 0001:0006BD1F  1592 0001:0006BD28  1595 0001:0006BD3C
  1599 0001:0006BD4A  1601 0001:0006BD56  1618 0001:0006BD5C  1620 0001:0006BD6B
  1621 0001:0006BD74  1623 0001:0006BD7A  1624 0001:0006BD91  1621 0001:0006BD99
  1628 0001:0006BD9F  1629 0001:0006BDA8  1630 0001:0006BDB2  1634 0001:0006BDC2
  1640 0001:0006BDDF  1643 0001:0006BDFB  1644 0001:0006BE02  1645 0001:0006BE18
  1643 0001:0006BE1B  1648 0001:0006BE21  1650 0001:0006BE3D  1653 0001:0006BE49
  1657 0001:0006BE6C  1658 0001:0006BE75  1662 0001:0006BE86  1666 0001:0006BEAE
  1670 0001:0006BEBA  1629 0001:0006BEC2  1672 0001:0006BECC  1685 0001:0006BED4
  1687 0001:0006BEE3  1689 0001:0006BF21  1692 0001:0006BF42  1695 0001:0006BF63
  1698 0001:0006BF84  1701 0001:0006BFA5  1704 0001:0006BFC6  1707 0001:0006BFE4
  1710 0001:0006C002  1713 0001:0006C020  1716 0001:0006C03E  1720 0001:0006C04A
  1723 0001:0006C063  1725 0001:0006C0A1  1728 0001:0006C0BC  1731 0001:0006C0D7
  1734 0001:0006C0F2  1737 0001:0006C10D  1740 0001:0006C125  1743 0001:0006C13D
  1746 0001:0006C155  1749 0001:0006C16D  1752 0001:0006C185  1756 0001:0006C191
  1757 0001:0006C1AA  1768 0001:0006C1B0  1769 0001:0006C1BF  1772 0001:0006C1E4
  1774 0001:0006C246  1777 0001:0006C261  1780 0001:0006C27C  1783 0001:0006C297
  1786 0001:0006C2B2  1789 0001:0006C2CD  1792 0001:0006C2E8  1795 0001:0006C303
  1798 0001:0006C31E  1801 0001:0006C339  1804 0001:0006C354  1807 0001:0006C36F
  1810 0001:0006C38A  1813 0001:0006C3A5  1816 0001:0006C3BD  1819 0001:0006C3D5
  1822 0001:0006C3ED  1825 0001:0006C405  1828 0001:0006C41D  1832 0001:0006C429
  1854 0001:0006C430  1862 0001:0006C43F  1863 0001:0006C44E  1868 0001:0006C475
  1871 0001:0006C48C  1874 0001:0006C4A4  1878 0001:0006C4B5  1883 0001:0006C4D8
  1884 0001:0006C4F4  1888 0001:0006C513  1889 0001:0006C526  1890 0001:0006C52A
  1891 0001:0006C543  1892 0001:0006C559  1894 0001:0006C589  1889 0001:0006C58C
  1898 0001:0006C592  1901 0001:0006C5AA  1902 0001:0006C5B0  1906 0001:0006C5C9
  1907 0001:0006C5CF  1923 0001:0006C5DC  1930 0001:0006C5EB  1934 0001:0006C617
  1935 0001:0006C623  1936 0001:0006C62F  1939 0001:0006C63B  1940 0001:0006C658
  1941 0001:0006C664  1958 0001:0006C668  1965 0001:0006C677  1968 0001:0006C68A
  1974 0001:0006C6A6  1979 0001:0006C6B2  1982 0001:0006C6D1  1987 0001:0006C6F2
  1990 0001:0006C709  1991 0001:0006C713  1994 0001:0006C724  1997 0001:0006C741
  2008 0001:0006C753  2011 0001:0006C772  2014 0001:0006C784  2017 0001:0006C790
  2020 0001:0006C79F  2024 0001:0006C7B7  2027 0001:0006C7CA  2029 0001:0006C7D6
  2032 0001:0006C7DF  2035 0001:0006C7E3  2039 0001:0006C7EA  2042 0001:0006C7FA
  2047 0001:0006C804  2048 0001:0006C80E  2049 0001:0006C824  2053 0001:0006C83A
  2054 0001:0006C848  2058 0001:0006C85C  2050 0001:0006C864  2064 0001:0006C86A
  2066 0001:0006C87A  2076 0001:0006C896  2079 0001:0006C8A6  2080 0001:0006C8DB
  2084 0001:0006C8F5  2088 0001:0006C901  2091 0001:0006C917  2092 0001:0006C931
  2096 0001:0006C943  2089 0001:0006C94B  2099 0001:0006C951  2110 0001:0006C960
  2117 0001:0006C96F  2125 0001:0006C97F  2135 0001:0006C988  2139 0001:0006C9A1
  2141 0001:0006C9C0  2144 0001:0006C9E1  2148 0001:0006C9ED  2153 0001:0006C9F6
  2154 0001:0006CA00  2157 0001:0006CA0E  2162 0001:0006CA2D  2166 0001:0006CA4C
  2167 0001:0006CA58  2168 0001:0006CA7A  2175 0001:0006CA99  2187 0001:0006CAA0
  2190 0001:0006CAAC  2193 0001:0006CAC1  2196 0001:0006CACC  2197 0001:0006CAD9
  2204 0001:0006CADE  2205 0001:0006CAEA  2209 0001:0006CB0C  2212 0001:0006CB1A
  2218 0001:0006CB36  2221 0001:0006CB44  2222 0001:0006CB52  2226 0001:0006CB8F

Line numbers for ci_gen(ci_gen.pas) segment .text

    50 0001:0006CB90    52 0001:0006CB9C    55 0001:0006CBA4    56 0001:0006CBB6
    57 0001:0006CBC4    58 0001:0006CBD6    59 0001:0006CBE9    62 0001:0006CBFA
    63 0001:0006CC09    64 0001:0006CC14    67 0001:0006CC28    68 0001:0006CC37
    69 0001:0006CC42    72 0001:0006CC56    74 0001:0006CC66    77 0001:0006CC78
    79 0001:0006CC87    82 0001:0006CCA4    83 0001:0006CCAD    84 0001:0006CCBD
    85 0001:0006CCEC    86 0001:0006CCFE    87 0001:0006CD07    83 0001:0006CD0A
    90 0001:0006CD10   108 0001:0006CD14   109 0001:0006CD21   110 0001:0006CD2D
   114 0001:0006CD4D   117 0001:0006CD58   120 0001:0006CD63   123 0001:0006CD6E
   126 0001:0006CD7C   129 0001:0006CD8E   131 0001:0006CDA6   134 0001:0006CDC3
   135 0001:0006CDDD   129 0001:0006CDE0   138 0001:0006CDE5   139 0001:0006CDF0
   140 0001:0006CE07   143 0001:0006CE1B   145 0001:0006CE2C   148 0001:0006CE49
   149 0001:0006CE63   143 0001:0006CE66   152 0001:0006CE6C   155 0001:0006CE7A
   158 0001:0006CE91   161 0001:0006CEA6   164 0001:0006CEBD   165 0001:0006CECB
   177 0001:0006CF00   179 0001:0006CF15   180 0001:0006CF28   181 0001:0006CF34
   184 0001:0006CF94   186 0001:0006CFA2   189 0001:0006CFAD   191 0001:0006CFC7
   194 0001:0006CFCC   195 0001:0006CFD1   199 0001:0006CFDE   200 0001:0006CFE7
   204 0001:0006CFED   208 0001:0006CFFB   200 0001:0006D004   210 0001:0006D00A
   223 0001:0006D024   225 0001:0006D030   226 0001:0006D03F   230 0001:0006D044
   231 0001:0006D04D   235 0001:0006D053   239 0001:0006D05E   231 0001:0006D067
   241 0001:0006D06D   254 0001:0006D074   256 0001:0006D07D   257 0001:0006D082
   260 0001:0006D08D   261 0001:0006D092   262 0001:0006D09D   263 0001:0006D0AB
   266 0001:0006D0B3   267 0001:0006D0BB   271 0001:0006D0F7

Line numbers for ci_asm(ci_asm.pas) segment .text

    72 0001:0006D14C    73 0001:0006D15B    76 0001:0006D161    77 0001:0006D167
    79 0001:0006D16D    80 0001:0006D182    81 0001:0006D19D    82 0001:0006D1A8
    83 0001:0006D1B0    85 0001:0006D1BA    86 0001:0006D1DA    87 0001:0006D1E0
    88 0001:0006D1E9    92 0001:0006D1EE    93 0001:0006D1F6    95 0001:0006D21E
    96 0001:0006D225    97 0001:0006D22B    98 0001:0006D234   102 0001:0006D236
   103 0001:0006D23E   105 0001:0006D266   106 0001:0006D26D   107 0001:0006D273
   112 0001:0006D27C   126 0001:0006D280   128 0001:0006D28C   129 0001:0006D299
   132 0001:0006D2BA   134 0001:0006D2C0   137 0001:0006D2D2   138 0001:0006D2DF
   139 0001:0006D2E7   142 0001:0006D2F5   146 0001:0006D300   147 0001:0006D309
   162 0001:0006D310   164 0001:0006D31C   167 0001:0006D332   168 0001:0006D33B
   169 0001:0006D34C   170 0001:0006D361   171 0001:0006D36B   177 0001:0006D375
   180 0001:0006D387   181 0001:0006D38E   184 0001:0006D397   187 0001:0006D3A0
   188 0001:0006D3AB   189 0001:0006D3B8   190 0001:0006D3C5   193 0001:0006D3D0
   194 0001:0006D3DB   195 0001:0006D3E1   196 0001:0006D3F2   197 0001:0006D3FC
   199 0001:0006D406   212 0001:0006D40C   214 0001:0006D418   215 0001:0006D42B
   218 0001:0006D438   219 0001:0006D44B   222 0001:0006D458   223 0001:0006D469
   224 0001:0006D473   226 0001:0006D47D   227 0001:0006D488   237 0001:0006D48C
   238 0001:0006D498   239 0001:0006D4A2   240 0001:0006D4B0   241 0001:0006D4B8
   255 0001:0006D4BC   257 0001:0006D4E5   260 0001:0006D501   261 0001:0006D507
   262 0001:0006D50F   263 0001:0006D516   264 0001:0006D51F   265 0001:0006D531
   293 0001:0006D53C   295 0001:0006D54E   296 0001:0006D553   298 0001:0006D565
   299 0001:0006D572   306 0001:0006D589   307 0001:0006D598   308 0001:0006D5A9
   309 0001:0006D5B1   313 0001:0006D5B3   317 0001:0006D5CB   318 0001:0006D5D9
   319 0001:0006D5EA   324 0001:0006D5F4   325 0001:0006D5FF   328 0001:0006D637
   329 0001:0006D63F   331 0001:0006D648   332 0001:0006D65C   333 0001:0006D671
   334 0001:0006D686   335 0001:0006D699   338 0001:0006D6B0   339 0001:0006D6C9
   340 0001:0006D6DA   347 0001:0006D6E7   348 0001:0006D705   349 0001:0006D719
   350 0001:0006D722   351 0001:0006D733   352 0001:0006D743   353 0001:0006D74D
   357 0001:0006D757   360 0001:0006D769   361 0001:0006D775   362 0001:0006D77C
   363 0001:0006D786   364 0001:0006D792   369 0001:0006D79A   372 0001:0006D7A6
   375 0001:0006D7BE   378 0001:0006D7CB   382 0001:0006D7D7   384 0001:0006D7E1
   393 0001:0006D7EF   396 0001:0006D7F7   399 0001:0006D802   401 0001:0006D80C
   408 0001:0006D81A   411 0001:0006D827   414 0001:0006D84A   422 0001:0006D853
   426 0001:0006D85D   427 0001:0006D868   432 0001:0006D86E   433 0001:0006D87C
   434 0001:0006D88D   435 0001:0006D897   437 0001:0006D8A1   440 0001:0006D8A9
   443 0001:0006D8B1   449 0001:0006D8C4   451 0001:0006D8D5   455 0001:0006D8E8
   456 0001:0006D8F0   459 0001:0006D8F6   460 0001:0006D8FF   461 0001:0006D910
   462 0001:0006D91A   466 0001:0006D924   471 0001:0006D936   472 0001:0006D93F
   473 0001:0006D950   474 0001:0006D95A   478 0001:0006D964   479 0001:0006D972
   480 0001:0006D983   481 0001:0006D98D   483 0001:0006D997   486 0001:0006D99F
   487 0001:0006D9AA   488 0001:0006D9D0   489 0001:0006D9E1   490 0001:0006D9EB
   494 0001:0006D9F5   495 0001:0006D9FE   501 0001:0006DA0C   503 0001:0006DA20
   506 0001:0006DA34   507 0001:0006DA45   508 0001:0006DA4F   516 0001:0006DA5B
   519 0001:0006DA63   524 0001:0006DA73   525 0001:0006DA84   526 0001:0006DA8E
   530 0001:0006DA98   531 0001:0006DAA3   534 0001:0006DAB0   535 0001:0006DABE
   536 0001:0006DACF   540 0001:0006DAD9   541 0001:0006DADF   546 0001:0006DAEA
   547 0001:0006DAFB   548 0001:0006DB05   550 0001:0006DB0F   571 0001:0006DB18
   572 0001:0006DB2A   574 0001:0006DB38   577 0001:0006DB4A   579 0001:0006DB50
   580 0001:0006DB58   582 0001:0006DB61   583 0001:0006DB6C   584 0001:0006DB72
   585 0001:0006DB83   586 0001:0006DB8D   591 0001:0006DB97   592 0001:0006DB9F
   593 0001:0006DBA8   594 0001:0006DBAF   595 0001:0006DBC1   593 0001:0006DBC4
   598 0001:0006DBCA   601 0001:0006DBD9   604 0001:0006DBE0   605 0001:0006DBEB
   608 0001:0006DBF5   609 0001:0006DBFD   610 0001:0006DC02   612 0001:0006DC07
   613 0001:0006DC0D   614 0001:0006DC12   616 0001:0006DC2C   617 0001:0006DC32
   620 0001:0006DC4C   621 0001:0006DC5D   622 0001:0006DC6C   623 0001:0006DC76
   625 0001:0006DC80   602 0001:0006DC83   629 0001:0006DC8D   633 0001:0006DC97
   636 0001:0006DCA6   637 0001:0006DCAF   638 0001:0006DCC6   640 0001:0006DCDB
   641 0001:0006DCE4   642 0001:0006DCFB   644 0001:0006DD10   645 0001:0006DD19
   646 0001:0006DD30   650 0001:0006DD45   653 0001:0006DD6A   654 0001:0006DD75
   655 0001:0006DD82   656 0001:0006DD8F   659 0001:0006DDB5   661 0001:0006DDCD
   676 0001:0006DDFC   677 0001:0006DE0B   679 0001:0006DE19   682 0001:0006DE28
   685 0001:0006DE2F   686 0001:0006DE3A   688 0001:0006DE85   691 0001:0006DE8A
   694 0001:0006DE99   700 0001:0006DEA8   704 0001:0006DEB8   705 0001:0006DEC9
   706 0001:0006DED8   707 0001:0006DEE2   711 0001:0006DEEC   712 0001:0006DEFD
   713 0001:0006DF0C   714 0001:0006DF16   684 0001:0006DF20   719 0001:0006DF25
   720 0001:0006DF30   721 0001:0006DF3A   725 0001:0006DF48   726 0001:0006DF4F
   728 0001:0006DF5D   729 0001:0006DF6E   730 0001:0006DF7F   731 0001:0006DF96
   735 0001:0006DFAB   725 0001:0006DFAE   743 0001:0006DFB6   745 0001:0006DFC2
   720 0001:0006DFCA   750 0001:0006DFE1   752 0001:0006DFEE   754 0001:0006DFFD
   758 0001:0006E03F

Line numbers for cl_link(cl_link.pas) segment .text

    50 0001:0006E040    51 0001:0006E046    54 0001:0006E063    55 0001:0006E075
    56 0001:0006E086    60 0001:0006E0A6    61 0001:0006E0AA    62 0001:0006E0CB
    64 0001:0006E0F9    60 0001:0006E0FC    67 0001:0006E102    68 0001:0006E116
    74 0001:0006E11C    76 0001:0006E12C    77 0001:0006E132    78 0001:0006E13C
    80 0001:0006E141    83 0001:0006E151    88 0001:0006E15B    89 0001:0006E167
    93 0001:0006E17A    95 0001:0006E1A1    97 0001:0006E1B4   101 0001:0006E1C7
   103 0001:0006E1D6   108 0001:0006E1E7   109 0001:0006E1F6   113 0001:0006E20A
   118 0001:0006E21D   121 0001:0006E234   124 0001:0006E23F   129 0001:0006E25B
   131 0001:0006E263   135 0001:0006E26F   137 0001:0006E277   140 0001:0006E27E
   146 0001:0006E297   147 0001:0006E2A9   149 0001:0006E2C3   140 0001:0006E2C6
   161 0001:0006E2CD   162 0001:0006E2D5   163 0001:0006E2DD   168 0001:0006E2ED
   173 0001:0006E2FC   182 0001:0006E308   193 0001:0006E310   196 0001:0006E31F
   197 0001:0006E326   198 0001:0006E330   202 0001:0006E33A   205 0001:0006E347
   208 0001:0006E355   211 0001:0006E361   214 0001:0006E36B   215 0001:0006E375
   216 0001:0006E381   217 0001:0006E389   221 0001:0006E41B

Line numbers for cc_comp(cc_comp.pas) segment .text

    84 0001:0006E41C    86 0001:0006E431    87 0001:0006E440    90 0001:0006E44A
    91 0001:0006E44F    92 0001:0006E454    96 0001:0006E45C    99 0001:0006E489
   100 0001:0006E497   102 0001:0006E4A5   105 0001:0006E4AD   106 0001:0006E4C6
   107 0001:0006E4D2   108 0001:0006E4E6   111 0001:0006E4FD   113 0001:0006E50C
   114 0001:0006E521   117 0001:0006E535   121 0001:0006E541   124 0001:0006E553
   125 0001:0006E568   131 0001:0006E57C   132 0001:0006E595   133 0001:0006E5AA
   136 0001:0006E5BE   139 0001:0006E5CC   143 0001:0006E5D8   144 0001:0006E5E2
   148 0001:0006E5EC   152 0001:0006E5F6   155 0001:0006E5FB   159 0001:0006E609
   160 0001:0006E610   161 0001:0006E61A   162 0001:0006E643   163 0001:0006E66C
   164 0001:0006E695   165 0001:0006E6E4   169 0001:0006E6EE   172 0001:0006E6F3
   175 0001:0006E6FF   179 0001:0006E713   182 0001:0006E71B   185 0001:0006E725
   187 0001:0006E745   191 0001:0006E759   194 0001:0006E763   198 0001:0006E777
   201 0001:0006E781   205 0001:0006E795   209 0001:0006E7AA   213 0001:0006E7BC
   215 0001:0006E7E2   216 0001:0006E7F4   221 0001:0006E807   225 0001:0006E819
   227 0001:0006E83C   228 0001:0006E84E   231 0001:0006E861   235 0001:0006E86D
   249 0001:0006E8C2   250 0001:0006E8C7   254 0001:0006E8CC   256 0001:0006E8F9
   259 0001:0006E901   260 0001:0006E90B   264 0001:0006E9DE   271 0001:0006E9E8
   274 0001:0006E9F2   276 0001:0006EA02   285 0001:0006EB58   286 0001:0006EB5D
   287 0001:0006EB62   288 0001:0006EB67   289 0001:0006EB6C   290 0001:0006EB71
   291 0001:0006EB76   292 0001:0006EB7B   293 0001:0006EB80   294 0001:0006EB85
   298 0001:0006EBBF

Line numbers for f_comp(f_comp.pas) segment .text

    52 0001:0006EBC0    54 0001:0006EBCB    57 0001:0006EBD2    60 0001:0006EBD9
    63 0001:0006EBF4    66 0001:0006EC03    67 0001:0006EC12    68 0001:0006EC21
    71 0001:0006EC30    72 0001:0006EC3A    75 0001:0006EC41    78 0001:0006EC48
    81 0001:0006EC4F    84 0001:0006EC56    85 0001:0006EC69    88 0001:0006EC76
    91 0001:0006EC8C    94 0001:0006EC93    95 0001:0006EC9A   111 0001:0006ECA8
   113 0001:0006ECB3   114 0001:0006ECBC   115 0001:0006ECC1   119 0001:0006ECCB
   120 0001:0006ECDA   121 0001:0006ECE9   122 0001:0006ECF2   126 0001:0006ECF9
   127 0001:0006ED12   128 0001:0006ED25   129 0001:0006ED34   131 0001:0006ED59
   135 0001:0006ED64   138 0001:0006ED69   151 0001:0006EE95   153 0001:0006EEA3
   154 0001:0006EEAC   155 0001:0006EEC0   157 0001:0006EEC9   160 0001:0006EED5
   162 0001:0006EEDC   166 0001:0006EF47

Line numbers for f_param(f_param.pas) segment .text

    29 0001:0006EF48    30 0001:0006EF70    32 0001:0006EF7A    33 0001:0006EF8E
    36 0001:0006EF98    37 0001:0006EFAC    38 0001:0006EFC0    39 0001:0006EFD4
    40 0001:0006EFE8    43 0001:0006EFF2    44 0001:0006F006    45 0001:0006F01A
    46 0001:0006F02E    47 0001:0006F042    48 0001:0006F056    49 0001:0006F06A
    50 0001:0006F07E    53 0001:0006F088    54 0001:0006F09C    55 0001:0006F0B0
    56 0001:0006F0C4    57 0001:0006F0D8    58 0001:0006F0EC    59 0001:0006F100
    60 0001:0006F114    61 0001:0006F128    62 0001:0006F13C    63 0001:0006F150
    66 0001:0006F15A    67 0001:0006F16E    68 0001:0006F182    71 0001:0006F196
    72 0001:0006F1AA    73 0001:0006F1BE    74 0001:0006F1D2    75 0001:0006F1E6
    76 0001:0006F1FA    77 0001:0006F20E    78 0001:0006F222    79 0001:0006F22C
    98 0001:0006F734    99 0001:0006F740   100 0001:0006F768   101 0001:0006F772
   105 0001:0006F790   107 0001:0006F79B   108 0001:0006F7B1   109 0001:0006F7BB
   110 0001:0006F7C0   115 0001:0006F7CF   117 0001:0006F7EE   122 0001:0006F7F8
   123 0001:0006F82F   126 0001:0006F86D   127 0001:0006F899   131 0001:0006F8B7
   132 0001:0006F8CE   137 0001:0006F8EC   138 0001:0006F917   143 0001:0006F926
   144 0001:0006F95D   147 0001:0006F99B   148 0001:0006F9B2   152 0001:0006F9C8
   153 0001:0006F9DF   157 0001:0006F9F3   158 0001:0006FA0A   163 0001:0006FA1B
   164 0001:0006FA46   169 0001:0006FA55   170 0001:0006FA8C   173 0001:0006FACA
   174 0001:0006FAF6   179 0001:0006FB07   180 0001:0006FB32   185 0001:0006FB41
   186 0001:0006FB58   190 0001:0006FB65   191 0001:0006FB98   192 0001:0006FBD8
   196 0001:0006FC08   197 0001:0006FC1F   201 0001:0006FC2C   202 0001:0006FC63
   203 0001:0006FC93   205 0001:0006FCBA   206 0001:0006FCCC   207 0001:0006FCDE
   211 0001:0006FCF5   212 0001:0006FD28   213 0001:0006FD68   217 0001:0006FD98
   218 0001:0006FDCB   219 0001:0006FE0B   223 0001:0006FE3B   224 0001:0006FE6E
   225 0001:0006FEAE   229 0001:0006FEDE   230 0001:0006FF15   231 0001:0006FF55
   232 0001:0006FF65   233 0001:0006FF75   237 0001:0006FFA5   238 0001:0006FFBC
   239 0001:0006FFC9   243 0001:0006FFD6   244 0001:0006FFED   245 0001:0006FFFA
   249 0001:00070007   250 0001:0007001E   254 0001:0007002B   255 0001:00070042
   259 0001:0007004F   260 0001:00070066   264 0001:00070073   265 0001:0007008A
   269 0001:00070097   270 0001:000700AE   274 0001:000700BB   275 0001:000700D2
   279 0001:000700DF   280 0001:000700F6   284 0001:00070103   285 0001:0007011A
   289 0001:00070127   290 0001:0007013E   294 0001:0007014B   295 0001:00070162
   299 0001:0007016F   300 0001:00070186   304 0001:00070193   305 0001:000701AA
   309 0001:000701B7   310 0001:00070200   311 0001:00070232   312 0001:00070250
   313 0001:00070267   316 0001:00070285   320 0001:00070294   321 0001:000702C2
   322 0001:000702C7   327 0001:000702D6   328 0001:00070301   334 0001:00070310
   335 0001:0007031A   336 0001:0007031F   338 0001:00070329   341 0001:00070339
   342 0001:00070362   343 0001:00070387   114 0001:000703AF   347 0001:000703D1
   348 0001:000703E2   349 0001:000703F3   350 0001:00070404   354 0001:000705DF

Line numbers for f_main(f_main.pas) segment .text

    31 0001:000705E0    33 0001:000705E9    36 0001:000705F6    42 0001:000705FB
    43 0001:00070618    44 0001:00070660    45 0001:00070677    46 0001:00070694
    47 0001:000706AC    44 0001:000706B0    48 0001:000706B7    50 0001:000706C8
    66 0001:000706E8    72 0001:000706F1    75 0001:000706F6    79 0001:000706FB
    80 0001:0007070C    81 0001:00070716    87 0001:0007071D    89 0001:00070725
    90 0001:00070734    92 0001:0007076D    93 0001:0007077F    94 0001:00070788
    96 0001:000707BE    97 0001:000707D0   100 0001:00070804   101 0001:0007080E
   105 0001:00070839   108 0001:0007083E   109 0001:00070843   110 0001:0007084D
   111 0001:0007085C   112 0001:00070861   113 0001:00070866   114 0001:0007086B
   115 0001:00070870   116 0001:00070875   117 0001:0007087A   118 0001:0007087F
   121 0001:00070884   122 0001:000708B2   125 0001:000708BC   126 0001:000708C8
   129 0001:000708D3   130 0001:000708D8   134 0001:00070957

Line numbers for fcc32(D:\ol40\gen\2\source\comp\fcc32.dpr) segment .text

    19 0001:00070E78    20 0001:00070E90    21 0001:00070E95

Program entry point at 0001:00070E78
